---
triple:          'arm64-apple-darwin'
binary-path:     '/Users/justinshih/college/Data_Structure/HW4/output/Spider-Man'
relocations:
  - { offsetInCU: 0x52, offset: 0x52, size: 0x8, addend: 0x0, symName: __ZL5PLACE, symObjAddr: 0x89C78, symBinAddr: 0x10001C000, symSize: 0x0 }
  - { offsetInCU: 0xCA00, offset: 0xCA00, size: 0x8, addend: 0x0, symName: __ZNSt3__124__put_character_sequenceB8ue170006IcNS_11char_traitsIcEEEERNS_13basic_ostreamIT_T0_EES7_PKS4_m, symObjAddr: 0xF608, symBinAddr: 0x100012D98, symSize: 0x1F4 }
  - { offsetInCU: 0xF13A, offset: 0xF13A, size: 0x8, addend: 0x0, symName: __ZNSt3__117__floyd_sift_downB8ue170006INS_17_ClassicAlgPolicyERNS_7greaterINS_4pairIiiEEEENS_11__wrap_iterIPS4_EEEET1_SA_OT0_NS_15iterator_traitsISA_E15difference_typeE, symObjAddr: 0x120FC, symBinAddr: 0x10001588C, symSize: 0x148 }
  - { offsetInCU: 0x101F5, offset: 0x101F5, size: 0x8, addend: 0x0, symName: __ZNSt3__1rsB8ue170006IcNS_11char_traitsIcEENS_9allocatorIcEEEERNS_13basic_istreamIT_T0_EES9_RNS_12basic_stringIS6_S7_T1_EE, symObjAddr: 0x414, symBinAddr: 0x100003BA4, symSize: 0x324 }
  - { offsetInCU: 0x102C4, offset: 0x102C4, size: 0x8, addend: 0x0, symName: __ZNSt3__1eqB8ue170006INS_9allocatorIcEEEEbRKNS_12basic_stringIcNS_11char_traitsIcEET_EES9_, symObjAddr: 0xA00, symBinAddr: 0x100004190, symSize: 0x148 }
  - { offsetInCU: 0x10337, offset: 0x10337, size: 0x8, addend: 0x0, symName: __ZNSt3__1lsB8ue170006INS_11char_traitsIcEEEERNS_13basic_ostreamIcT_EES6_PKc, symObjAddr: 0x2340, symBinAddr: 0x100005AD0, symSize: 0x48 }
  - { offsetInCU: 0x1037D, offset: 0x1037D, size: 0x8, addend: 0x0, symName: __ZNSt3__14endlB8ue170006IcNS_11char_traitsIcEEEERNS_13basic_ostreamIT_T0_EES7_, symObjAddr: 0x23B4, symBinAddr: 0x100005B44, symSize: 0x58 }
  - { offsetInCU: 0x103BD, offset: 0x103BD, size: 0x8, addend: 0x0, symName: __ZNSt3__1neB8ue170006IPNS_4pairIP6VertexP4EdgeEEEEbRKNS_11__wrap_iterIT_EESC_, symObjAddr: 0x25F4, symBinAddr: 0x100005D84, symSize: 0x34 }
  - { offsetInCU: 0x10604, offset: 0x10604, size: 0x8, addend: 0x0, symName: __ZNSt3__13getB8ue170006ILm0EiiEEONS_13tuple_elementIXT_ENS_4pairIT0_T1_EEE4typeEOS5_, symObjAddr: 0x2D30, symBinAddr: 0x1000064C0, symSize: 0x24 }
  - { offsetInCU: 0x1064E, offset: 0x1064E, size: 0x8, addend: 0x0, symName: __ZNSt3__13getB8ue170006ILm1EiiEEONS_13tuple_elementIXT_ENS_4pairIT0_T1_EEE4typeEOS5_, symObjAddr: 0x2D54, symBinAddr: 0x1000064E4, symSize: 0x24 }
  - { offsetInCU: 0x10698, offset: 0x10698, size: 0x8, addend: 0x0, symName: __ZNSt3__1neB8ue170006IPNS_4pairIiiEEEEbRKNS_11__wrap_iterIT_EES8_, symObjAddr: 0x2EE4, symBinAddr: 0x100006674, symSize: 0x34 }
  - { offsetInCU: 0x106DB, offset: 0x106DB, size: 0x8, addend: 0x0, symName: __ZNSt3__1neB8ue170006IPiEEbRKNS_11__wrap_iterIT_EES6_, symObjAddr: 0x3494, symBinAddr: 0x100006C24, symSize: 0x34 }
  - { offsetInCU: 0x1071E, offset: 0x1071E, size: 0x8, addend: 0x0, symName: __ZNSt3__112__to_addressB8ue170006INS_4pairIP6VertexP4EdgeEEEEPT_S8_, symObjAddr: 0x3FBC, symBinAddr: 0x10000774C, symSize: 0x14 }
  - { offsetInCU: 0x10753, offset: 0x10753, size: 0x8, addend: 0x0, symName: __ZNSt3__130__libcpp_is_constant_evaluatedB8ue170006Ev, symObjAddr: 0x409C, symBinAddr: 0x10000782C, symSize: 0xC }
  - { offsetInCU: 0x10770, offset: 0x10770, size: 0x8, addend: 0x0, symName: __ZNSt3__119__libcpp_deallocateB8ue170006EPvmm, symObjAddr: 0x40A8, symBinAddr: 0x100007838, symSize: 0x30 }
  - { offsetInCU: 0x107B8, offset: 0x107B8, size: 0x8, addend: 0x0, symName: __ZNSt3__127__do_deallocate_handle_sizeB8ue170006IJEEEvPvmDpT_, symObjAddr: 0x40D8, symBinAddr: 0x100007868, symSize: 0x28 }
  - { offsetInCU: 0x107F6, offset: 0x107F6, size: 0x8, addend: 0x0, symName: __ZNSt3__124__libcpp_operator_deleteB8ue170006IJPvEEEvDpT_, symObjAddr: 0x4100, symBinAddr: 0x100007890, symSize: 0x24 }
  - { offsetInCU: 0x1082B, offset: 0x1082B, size: 0x8, addend: 0x0, symName: __ZNSt3__118__constexpr_strlenB8ue170006EPKc, symObjAddr: 0x4448, symBinAddr: 0x100007BD8, symSize: 0x24 }
  - { offsetInCU: 0x10857, offset: 0x10857, size: 0x8, addend: 0x0, symName: __ZNSt3__112__to_addressB8ue170006IP4EdgeEEPT_S4_, symObjAddr: 0x491C, symBinAddr: 0x1000080AC, symSize: 0x14 }
  - { offsetInCU: 0x1088C, offset: 0x1088C, size: 0x8, addend: 0x0, symName: __ZNSt3__112__to_addressB8ue170006IP8DeliveryEEPT_S4_, symObjAddr: 0x4F44, symBinAddr: 0x1000086D4, symSize: 0x14 }
  - { offsetInCU: 0x108C1, offset: 0x108C1, size: 0x8, addend: 0x0, symName: __ZNSt3__13maxB8ue170006ImEERKT_S3_S3_, symObjAddr: 0x56A8, symBinAddr: 0x100008E38, symSize: 0x2C }
  - { offsetInCU: 0x10904, offset: 0x10904, size: 0x8, addend: 0x0, symName: __ZNSt3__13minB8ue170006ImEERKT_S3_S3_, symObjAddr: 0x56D4, symBinAddr: 0x100008E64, symSize: 0x2C }
  - { offsetInCU: 0x10B48, offset: 0x10B48, size: 0x8, addend: 0x0, symName: __ZNSt3__13minB8ue170006ImNS_6__lessIvvEEEERKT_S5_S5_T0_, symObjAddr: 0x5760, symBinAddr: 0x100008EF0, symSize: 0x54 }
  - { offsetInCU: 0x10BE7, offset: 0x10BE7, size: 0x8, addend: 0x0, symName: __ZNSt3__120__throw_length_errorB8ue170006EPKc, symObjAddr: 0x583C, symBinAddr: 0x100008FCC, symSize: 0x64 }
  - { offsetInCU: 0x10C11, offset: 0x10C11, size: 0x8, addend: 0x0, symName: __ZNSt3__13maxB8ue170006ImNS_6__lessIvvEEEERKT_S5_S5_T0_, symObjAddr: 0x5920, symBinAddr: 0x1000090B0, symSize: 0x54 }
  - { offsetInCU: 0x10C6B, offset: 0x10C6B, size: 0x8, addend: 0x0, symName: __ZNSt3__119__allocate_at_leastB8ue170006INS_9allocatorIP8DeliveryEEEENS_19__allocation_resultINS_16allocator_traitsIT_E7pointerEEERS7_m, symObjAddr: 0x5A84, symBinAddr: 0x100009214, symSize: 0x40 }
  - { offsetInCU: 0x10CAE, offset: 0x10CAE, size: 0x8, addend: 0x0, symName: __ZNSt3__117__libcpp_allocateB8ue170006Emm, symObjAddr: 0x5C34, symBinAddr: 0x1000093C4, symSize: 0x28 }
  - { offsetInCU: 0x10CEB, offset: 0x10CEB, size: 0x8, addend: 0x0, symName: __ZNSt3__121__libcpp_operator_newB8ue170006IJmEEEPvDpT_, symObjAddr: 0x5C5C, symBinAddr: 0x1000093EC, symSize: 0x24 }
  - { offsetInCU: 0x10D24, offset: 0x10D24, size: 0x8, addend: 0x0, symName: __ZNSt3__142__uninitialized_allocator_move_if_noexceptB8ue170006INS_9allocatorIP8DeliveryEENS_16reverse_iteratorIPS3_EES7_S3_vEET1_RT_T0_SB_S8_, symObjAddr: 0x5CE4, symBinAddr: 0x100009474, symSize: 0xE8 }
  - { offsetInCU: 0x10DA1, offset: 0x10DA1, size: 0x8, addend: 0x0, symName: __ZNSt3__14swapB8ue170006IPP8DeliveryEEvRT_S5_, symObjAddr: 0x5E18, symBinAddr: 0x1000095A8, symSize: 0x3C }
  - { offsetInCU: 0x10DF2, offset: 0x10DF2, size: 0x8, addend: 0x0, symName: __ZNSt3__1neB8ue170006IPP8DeliveryS3_EEbRKNS_16reverse_iteratorIT_EERKNS4_IT0_EE, symObjAddr: 0x5F00, symBinAddr: 0x100009690, symSize: 0x48 }
  - { offsetInCU: 0x10E63, offset: 0x10E63, size: 0x8, addend: 0x0, symName: __ZNSt3__114__construct_atB8ue170006IP8DeliveryJS2_EPS2_EEPT_S5_DpOT0_, symObjAddr: 0x5F48, symBinAddr: 0x1000096D8, symSize: 0x2C }
  - { offsetInCU: 0x10ED3, offset: 0x10ED3, size: 0x8, addend: 0x0, symName: __ZNSt3__112__to_addressB8ue170006INS_16reverse_iteratorIPP8DeliveryEEvEEu7__decayIDTclsr19__to_address_helperIT_EE6__callclsr3stdE7declvalIRKS6_EEEEES8_, symObjAddr: 0x5F74, symBinAddr: 0x100009704, symSize: 0x24 }
  - { offsetInCU: 0x10F09, offset: 0x10F09, size: 0x8, addend: 0x0, symName: __ZNSt3__14moveB8ue170006INS_16reverse_iteratorIPP8DeliveryEES5_EET0_T_S7_S6_, symObjAddr: 0x5FE0, symBinAddr: 0x100009770, symSize: 0x78 }
  - { offsetInCU: 0x10F8C, offset: 0x10F8C, size: 0x8, addend: 0x0, symName: __ZNSt3__16__moveB8ue170006INS_17_ClassicAlgPolicyENS_16reverse_iteratorIPP8DeliveryEES6_S6_EENS_4pairIT0_T2_EES8_T1_S9_, symObjAddr: 0x60C8, symBinAddr: 0x100009858, symSize: 0x64 }
  - { offsetInCU: 0x10FF8, offset: 0x10FF8, size: 0x8, addend: 0x0, symName: __ZNSt3__123__dispatch_copy_or_moveB8ue170006INS_17_ClassicAlgPolicyENS_11__move_loopIS1_EENS_14__move_trivialENS_16reverse_iteratorIPP8DeliveryEES9_S9_EENS_4pairIT2_T4_EESB_T3_SC_, symObjAddr: 0x612C, symBinAddr: 0x1000098BC, symSize: 0x64 }
  - { offsetInCU: 0x11076, offset: 0x11076, size: 0x8, addend: 0x0, symName: __ZNSt3__121__unwrap_and_dispatchB8ue170006INS_10__overloadINS_11__move_loopINS_17_ClassicAlgPolicyEEENS_14__move_trivialEEENS_16reverse_iteratorIPP8DeliveryEESB_SB_Li0EEENS_4pairIT0_T2_EESD_T1_SE_, symObjAddr: 0x6190, symBinAddr: 0x100009920, symSize: 0x12C }
  - { offsetInCU: 0x11106, offset: 0x11106, size: 0x8, addend: 0x0, symName: __ZNSt3__114__unwrap_rangeB8ue170006INS_16reverse_iteratorIPP8DeliveryEES5_EENS_4pairIT0_S7_EET_S9_, symObjAddr: 0x62BC, symBinAddr: 0x100009A4C, symSize: 0x84 }
  - { offsetInCU: 0x11356, offset: 0x11356, size: 0x8, addend: 0x0, symName: __ZNSt3__113__unwrap_iterB8ue170006INS_16reverse_iteratorIPP8DeliveryEENS_18__unwrap_iter_implIS5_Lb0EEELi0EEEDTclsrT0_8__unwrapclsr3stdE7declvalIT_EEEES9_, symObjAddr: 0x63E0, symBinAddr: 0x100009B70, symSize: 0x44 }
  - { offsetInCU: 0x1139A, offset: 0x1139A, size: 0x8, addend: 0x0, symName: __ZNSt3__19make_pairB8ue170006INS_16reverse_iteratorIPP8DeliveryEES5_EENS_4pairINS_18__unwrap_ref_decayIT_E4typeENS7_IT0_E4typeEEEOS8_OSB_, symObjAddr: 0x6424, symBinAddr: 0x100009BB4, symSize: 0x38 }
  - { offsetInCU: 0x113E9, offset: 0x113E9, size: 0x8, addend: 0x0, symName: __ZNSt3__114__rewrap_rangeB8ue170006INS_16reverse_iteratorIPP8DeliveryEES5_EET_S6_T0_, symObjAddr: 0x645C, symBinAddr: 0x100009BEC, symSize: 0x5C }
  - { offsetInCU: 0x11435, offset: 0x11435, size: 0x8, addend: 0x0, symName: __ZNSt3__113__rewrap_iterB8ue170006INS_16reverse_iteratorIPP8DeliveryEES5_NS_18__unwrap_iter_implIS5_Lb0EEEEET_S8_T0_, symObjAddr: 0x64B8, symBinAddr: 0x100009C48, symSize: 0x88 }
  - { offsetInCU: 0x1163B, offset: 0x1163B, size: 0x8, addend: 0x0, symName: __ZNSt3__1eqB8ue170006IPNS_4pairIP6VertexP4EdgeEEEEbRKNS_11__wrap_iterIT_EESC_, symObjAddr: 0x68CC, symBinAddr: 0x10000A05C, symSize: 0x48 }
  - { offsetInCU: 0x1167E, offset: 0x1167E, size: 0x8, addend: 0x0, symName: __ZNSt3__112__to_addressB8ue170006IP6VertexEEPT_S4_, symObjAddr: 0x6CB4, symBinAddr: 0x10000A444, symSize: 0x14 }
  - { offsetInCU: 0x116B3, offset: 0x116B3, size: 0x8, addend: 0x0, symName: __ZNSt3__112__to_addressB8ue170006IiEEPT_S2_, symObjAddr: 0x71BC, symBinAddr: 0x10000A94C, symSize: 0x14 }
  - { offsetInCU: 0x116E8, offset: 0x116E8, size: 0x8, addend: 0x0, symName: __ZNSt3__112__to_addressB8ue170006IP5OrderEEPT_S4_, symObjAddr: 0x76C4, symBinAddr: 0x10000AE54, symSize: 0x14 }
  - { offsetInCU: 0x11CB3, offset: 0x11CB3, size: 0x8, addend: 0x0, symName: __ZNSt3__19use_facetB8ue170006INS_5ctypeIcEEEERKT_RKNS_6localeE, symObjAddr: 0x7DA8, symBinAddr: 0x10000B538, symSize: 0x2C }
  - { offsetInCU: 0x122C6, offset: 0x122C6, size: 0x8, addend: 0x0, symName: __ZNSt3__112__to_addressB8ue170006IKcEEPT_S3_, symObjAddr: 0x8480, symBinAddr: 0x10000BC10, symSize: 0x14 }
  - { offsetInCU: 0x1232E, offset: 0x1232E, size: 0x8, addend: 0x0, symName: __ZNSt3__119__allocate_at_leastB8ue170006INS_9allocatorIP6VertexEEEENS_19__allocation_resultINS_16allocator_traitsIT_E7pointerEEERS7_m, symObjAddr: 0x921C, symBinAddr: 0x10000C9AC, symSize: 0x40 }
  - { offsetInCU: 0x12371, offset: 0x12371, size: 0x8, addend: 0x0, symName: __ZNSt3__142__uninitialized_allocator_move_if_noexceptB8ue170006INS_9allocatorIP6VertexEENS_16reverse_iteratorIPS3_EES7_S3_vEET1_RT_T0_SB_S8_, symObjAddr: 0x94C8, symBinAddr: 0x10000CC58, symSize: 0xE8 }
  - { offsetInCU: 0x123EE, offset: 0x123EE, size: 0x8, addend: 0x0, symName: __ZNSt3__14swapB8ue170006IPP6VertexEEvRT_S5_, symObjAddr: 0x95FC, symBinAddr: 0x10000CD8C, symSize: 0x3C }
  - { offsetInCU: 0x1243F, offset: 0x1243F, size: 0x8, addend: 0x0, symName: __ZNSt3__1neB8ue170006IPP6VertexS3_EEbRKNS_16reverse_iteratorIT_EERKNS4_IT0_EE, symObjAddr: 0x96E4, symBinAddr: 0x10000CE74, symSize: 0x48 }
  - { offsetInCU: 0x124B0, offset: 0x124B0, size: 0x8, addend: 0x0, symName: __ZNSt3__114__construct_atB8ue170006IP6VertexJS2_EPS2_EEPT_S5_DpOT0_, symObjAddr: 0x972C, symBinAddr: 0x10000CEBC, symSize: 0x2C }
  - { offsetInCU: 0x12520, offset: 0x12520, size: 0x8, addend: 0x0, symName: __ZNSt3__112__to_addressB8ue170006INS_16reverse_iteratorIPP6VertexEEvEEu7__decayIDTclsr19__to_address_helperIT_EE6__callclsr3stdE7declvalIRKS6_EEEEES8_, symObjAddr: 0x9758, symBinAddr: 0x10000CEE8, symSize: 0x24 }
  - { offsetInCU: 0x12556, offset: 0x12556, size: 0x8, addend: 0x0, symName: __ZNSt3__14moveB8ue170006INS_16reverse_iteratorIPP6VertexEES5_EET0_T_S7_S6_, symObjAddr: 0x97C4, symBinAddr: 0x10000CF54, symSize: 0x78 }
  - { offsetInCU: 0x125D9, offset: 0x125D9, size: 0x8, addend: 0x0, symName: __ZNSt3__16__moveB8ue170006INS_17_ClassicAlgPolicyENS_16reverse_iteratorIPP6VertexEES6_S6_EENS_4pairIT0_T2_EES8_T1_S9_, symObjAddr: 0x98AC, symBinAddr: 0x10000D03C, symSize: 0x64 }
  - { offsetInCU: 0x12645, offset: 0x12645, size: 0x8, addend: 0x0, symName: __ZNSt3__123__dispatch_copy_or_moveB8ue170006INS_17_ClassicAlgPolicyENS_11__move_loopIS1_EENS_14__move_trivialENS_16reverse_iteratorIPP6VertexEES9_S9_EENS_4pairIT2_T4_EESB_T3_SC_, symObjAddr: 0x9910, symBinAddr: 0x10000D0A0, symSize: 0x64 }
  - { offsetInCU: 0x126C3, offset: 0x126C3, size: 0x8, addend: 0x0, symName: __ZNSt3__121__unwrap_and_dispatchB8ue170006INS_10__overloadINS_11__move_loopINS_17_ClassicAlgPolicyEEENS_14__move_trivialEEENS_16reverse_iteratorIPP6VertexEESB_SB_Li0EEENS_4pairIT0_T2_EESD_T1_SE_, symObjAddr: 0x9974, symBinAddr: 0x10000D104, symSize: 0x12C }
  - { offsetInCU: 0x12753, offset: 0x12753, size: 0x8, addend: 0x0, symName: __ZNSt3__114__unwrap_rangeB8ue170006INS_16reverse_iteratorIPP6VertexEES5_EENS_4pairIT0_S7_EET_S9_, symObjAddr: 0x9AA0, symBinAddr: 0x10000D230, symSize: 0x84 }
  - { offsetInCU: 0x1284C, offset: 0x1284C, size: 0x8, addend: 0x0, symName: __ZNSt3__113__unwrap_iterB8ue170006INS_16reverse_iteratorIPP6VertexEENS_18__unwrap_iter_implIS5_Lb0EEELi0EEEDTclsrT0_8__unwrapclsr3stdE7declvalIT_EEEES9_, symObjAddr: 0x9BC4, symBinAddr: 0x10000D354, symSize: 0x44 }
  - { offsetInCU: 0x12890, offset: 0x12890, size: 0x8, addend: 0x0, symName: __ZNSt3__19make_pairB8ue170006INS_16reverse_iteratorIPP6VertexEES5_EENS_4pairINS_18__unwrap_ref_decayIT_E4typeENS7_IT0_E4typeEEEOS8_OSB_, symObjAddr: 0x9C08, symBinAddr: 0x10000D398, symSize: 0x38 }
  - { offsetInCU: 0x128DF, offset: 0x128DF, size: 0x8, addend: 0x0, symName: __ZNSt3__114__rewrap_rangeB8ue170006INS_16reverse_iteratorIPP6VertexEES5_EET_S6_T0_, symObjAddr: 0x9C40, symBinAddr: 0x10000D3D0, symSize: 0x5C }
  - { offsetInCU: 0x1292B, offset: 0x1292B, size: 0x8, addend: 0x0, symName: __ZNSt3__113__rewrap_iterB8ue170006INS_16reverse_iteratorIPP6VertexEES5_NS_18__unwrap_iter_implIS5_Lb0EEEEET_S8_T0_, symObjAddr: 0x9C9C, symBinAddr: 0x10000D42C, symSize: 0x88 }
  - { offsetInCU: 0x129EC, offset: 0x129EC, size: 0x8, addend: 0x0, symName: __ZNSt3__119__allocate_at_leastB8ue170006INS_9allocatorIP5OrderEEEENS_19__allocation_resultINS_16allocator_traitsIT_E7pointerEEERS7_m, symObjAddr: 0xA9D8, symBinAddr: 0x10000E168, symSize: 0x40 }
  - { offsetInCU: 0x12A2F, offset: 0x12A2F, size: 0x8, addend: 0x0, symName: __ZNSt3__142__uninitialized_allocator_move_if_noexceptB8ue170006INS_9allocatorIP5OrderEENS_16reverse_iteratorIPS3_EES7_S3_vEET1_RT_T0_SB_S8_, symObjAddr: 0xAC84, symBinAddr: 0x10000E414, symSize: 0xE8 }
  - { offsetInCU: 0x12AAC, offset: 0x12AAC, size: 0x8, addend: 0x0, symName: __ZNSt3__14swapB8ue170006IPP5OrderEEvRT_S5_, symObjAddr: 0xADB8, symBinAddr: 0x10000E548, symSize: 0x3C }
  - { offsetInCU: 0x12AFD, offset: 0x12AFD, size: 0x8, addend: 0x0, symName: __ZNSt3__1neB8ue170006IPP5OrderS3_EEbRKNS_16reverse_iteratorIT_EERKNS4_IT0_EE, symObjAddr: 0xAEA0, symBinAddr: 0x10000E630, symSize: 0x48 }
  - { offsetInCU: 0x12B6E, offset: 0x12B6E, size: 0x8, addend: 0x0, symName: __ZNSt3__114__construct_atB8ue170006IP5OrderJS2_EPS2_EEPT_S5_DpOT0_, symObjAddr: 0xAEE8, symBinAddr: 0x10000E678, symSize: 0x2C }
  - { offsetInCU: 0x12BDE, offset: 0x12BDE, size: 0x8, addend: 0x0, symName: __ZNSt3__112__to_addressB8ue170006INS_16reverse_iteratorIPP5OrderEEvEEu7__decayIDTclsr19__to_address_helperIT_EE6__callclsr3stdE7declvalIRKS6_EEEEES8_, symObjAddr: 0xAF14, symBinAddr: 0x10000E6A4, symSize: 0x24 }
  - { offsetInCU: 0x12C14, offset: 0x12C14, size: 0x8, addend: 0x0, symName: __ZNSt3__14moveB8ue170006INS_16reverse_iteratorIPP5OrderEES5_EET0_T_S7_S6_, symObjAddr: 0xAF80, symBinAddr: 0x10000E710, symSize: 0x78 }
  - { offsetInCU: 0x12C97, offset: 0x12C97, size: 0x8, addend: 0x0, symName: __ZNSt3__16__moveB8ue170006INS_17_ClassicAlgPolicyENS_16reverse_iteratorIPP5OrderEES6_S6_EENS_4pairIT0_T2_EES8_T1_S9_, symObjAddr: 0xB068, symBinAddr: 0x10000E7F8, symSize: 0x64 }
  - { offsetInCU: 0x12D03, offset: 0x12D03, size: 0x8, addend: 0x0, symName: __ZNSt3__123__dispatch_copy_or_moveB8ue170006INS_17_ClassicAlgPolicyENS_11__move_loopIS1_EENS_14__move_trivialENS_16reverse_iteratorIPP5OrderEES9_S9_EENS_4pairIT2_T4_EESB_T3_SC_, symObjAddr: 0xB0CC, symBinAddr: 0x10000E85C, symSize: 0x64 }
  - { offsetInCU: 0x12D81, offset: 0x12D81, size: 0x8, addend: 0x0, symName: __ZNSt3__121__unwrap_and_dispatchB8ue170006INS_10__overloadINS_11__move_loopINS_17_ClassicAlgPolicyEEENS_14__move_trivialEEENS_16reverse_iteratorIPP5OrderEESB_SB_Li0EEENS_4pairIT0_T2_EESD_T1_SE_, symObjAddr: 0xB130, symBinAddr: 0x10000E8C0, symSize: 0x12C }
  - { offsetInCU: 0x12E11, offset: 0x12E11, size: 0x8, addend: 0x0, symName: __ZNSt3__114__unwrap_rangeB8ue170006INS_16reverse_iteratorIPP5OrderEES5_EENS_4pairIT0_S7_EET_S9_, symObjAddr: 0xB25C, symBinAddr: 0x10000E9EC, symSize: 0x84 }
  - { offsetInCU: 0x12F0A, offset: 0x12F0A, size: 0x8, addend: 0x0, symName: __ZNSt3__113__unwrap_iterB8ue170006INS_16reverse_iteratorIPP5OrderEENS_18__unwrap_iter_implIS5_Lb0EEELi0EEEDTclsrT0_8__unwrapclsr3stdE7declvalIT_EEEES9_, symObjAddr: 0xB380, symBinAddr: 0x10000EB10, symSize: 0x44 }
  - { offsetInCU: 0x12F4E, offset: 0x12F4E, size: 0x8, addend: 0x0, symName: __ZNSt3__19make_pairB8ue170006INS_16reverse_iteratorIPP5OrderEES5_EENS_4pairINS_18__unwrap_ref_decayIT_E4typeENS7_IT0_E4typeEEEOS8_OSB_, symObjAddr: 0xB3C4, symBinAddr: 0x10000EB54, symSize: 0x38 }
  - { offsetInCU: 0x12F9D, offset: 0x12F9D, size: 0x8, addend: 0x0, symName: __ZNSt3__114__rewrap_rangeB8ue170006INS_16reverse_iteratorIPP5OrderEES5_EET_S6_T0_, symObjAddr: 0xB3FC, symBinAddr: 0x10000EB8C, symSize: 0x5C }
  - { offsetInCU: 0x12FE9, offset: 0x12FE9, size: 0x8, addend: 0x0, symName: __ZNSt3__113__rewrap_iterB8ue170006INS_16reverse_iteratorIPP5OrderEES5_NS_18__unwrap_iter_implIS5_Lb0EEEEET_S8_T0_, symObjAddr: 0xB458, symBinAddr: 0x10000EBE8, symSize: 0x88 }
  - { offsetInCU: 0x130AA, offset: 0x130AA, size: 0x8, addend: 0x0, symName: __ZNSt3__119__allocate_at_leastB8ue170006INS_9allocatorIiEEEENS_19__allocation_resultINS_16allocator_traitsIT_E7pointerEEERS5_m, symObjAddr: 0xC008, symBinAddr: 0x10000F798, symSize: 0x40 }
  - { offsetInCU: 0x130ED, offset: 0x130ED, size: 0x8, addend: 0x0, symName: __ZNSt3__142__uninitialized_allocator_move_if_noexceptB8ue170006INS_9allocatorIiEENS_16reverse_iteratorIPiEES5_ivEET1_RT_T0_S9_S6_, symObjAddr: 0xC1E8, symBinAddr: 0x10000F978, symSize: 0xE8 }
  - { offsetInCU: 0x1316A, offset: 0x1316A, size: 0x8, addend: 0x0, symName: __ZNSt3__14swapB8ue170006IPiEEvRT_S3_, symObjAddr: 0xC31C, symBinAddr: 0x10000FAAC, symSize: 0x3C }
  - { offsetInCU: 0x131BB, offset: 0x131BB, size: 0x8, addend: 0x0, symName: __ZNSt3__1neB8ue170006IPiS1_EEbRKNS_16reverse_iteratorIT_EERKNS2_IT0_EE, symObjAddr: 0xC404, symBinAddr: 0x10000FB94, symSize: 0x48 }
  - { offsetInCU: 0x1322C, offset: 0x1322C, size: 0x8, addend: 0x0, symName: __ZNSt3__114__construct_atB8ue170006IiJiEPiEEPT_S3_DpOT0_, symObjAddr: 0xC44C, symBinAddr: 0x10000FBDC, symSize: 0x2C }
  - { offsetInCU: 0x1329C, offset: 0x1329C, size: 0x8, addend: 0x0, symName: __ZNSt3__112__to_addressB8ue170006INS_16reverse_iteratorIPiEEvEEu7__decayIDTclsr19__to_address_helperIT_EE6__callclsr3stdE7declvalIRKS4_EEEEES6_, symObjAddr: 0xC478, symBinAddr: 0x10000FC08, symSize: 0x24 }
  - { offsetInCU: 0x132D2, offset: 0x132D2, size: 0x8, addend: 0x0, symName: __ZNSt3__14moveB8ue170006INS_16reverse_iteratorIPiEES3_EET0_T_S5_S4_, symObjAddr: 0xC4E4, symBinAddr: 0x10000FC74, symSize: 0x78 }
  - { offsetInCU: 0x13355, offset: 0x13355, size: 0x8, addend: 0x0, symName: __ZNSt3__16__moveB8ue170006INS_17_ClassicAlgPolicyENS_16reverse_iteratorIPiEES4_S4_EENS_4pairIT0_T2_EES6_T1_S7_, symObjAddr: 0xC5CC, symBinAddr: 0x10000FD5C, symSize: 0x64 }
  - { offsetInCU: 0x133C1, offset: 0x133C1, size: 0x8, addend: 0x0, symName: __ZNSt3__123__dispatch_copy_or_moveB8ue170006INS_17_ClassicAlgPolicyENS_11__move_loopIS1_EENS_14__move_trivialENS_16reverse_iteratorIPiEES7_S7_EENS_4pairIT2_T4_EES9_T3_SA_, symObjAddr: 0xC630, symBinAddr: 0x10000FDC0, symSize: 0x64 }
  - { offsetInCU: 0x1343F, offset: 0x1343F, size: 0x8, addend: 0x0, symName: __ZNSt3__121__unwrap_and_dispatchB8ue170006INS_10__overloadINS_11__move_loopINS_17_ClassicAlgPolicyEEENS_14__move_trivialEEENS_16reverse_iteratorIPiEES9_S9_Li0EEENS_4pairIT0_T2_EESB_T1_SC_, symObjAddr: 0xC694, symBinAddr: 0x10000FE24, symSize: 0x12C }
  - { offsetInCU: 0x134CF, offset: 0x134CF, size: 0x8, addend: 0x0, symName: __ZNSt3__114__unwrap_rangeB8ue170006INS_16reverse_iteratorIPiEES3_EENS_4pairIT0_S5_EET_S7_, symObjAddr: 0xC7C0, symBinAddr: 0x10000FF50, symSize: 0x84 }
  - { offsetInCU: 0x135C8, offset: 0x135C8, size: 0x8, addend: 0x0, symName: __ZNSt3__113__unwrap_iterB8ue170006INS_16reverse_iteratorIPiEENS_18__unwrap_iter_implIS3_Lb0EEELi0EEEDTclsrT0_8__unwrapclsr3stdE7declvalIT_EEEES7_, symObjAddr: 0xC8E4, symBinAddr: 0x100010074, symSize: 0x44 }
  - { offsetInCU: 0x1360C, offset: 0x1360C, size: 0x8, addend: 0x0, symName: __ZNSt3__19make_pairB8ue170006INS_16reverse_iteratorIPiEES3_EENS_4pairINS_18__unwrap_ref_decayIT_E4typeENS5_IT0_E4typeEEEOS6_OS9_, symObjAddr: 0xC928, symBinAddr: 0x1000100B8, symSize: 0x38 }
  - { offsetInCU: 0x1365B, offset: 0x1365B, size: 0x8, addend: 0x0, symName: __ZNSt3__114__rewrap_rangeB8ue170006INS_16reverse_iteratorIPiEES3_EET_S4_T0_, symObjAddr: 0xC960, symBinAddr: 0x1000100F0, symSize: 0x5C }
  - { offsetInCU: 0x136A7, offset: 0x136A7, size: 0x8, addend: 0x0, symName: __ZNSt3__113__rewrap_iterB8ue170006INS_16reverse_iteratorIPiEES3_NS_18__unwrap_iter_implIS3_Lb0EEEEET_S6_T0_, symObjAddr: 0xC9BC, symBinAddr: 0x10001014C, symSize: 0x88 }
  - { offsetInCU: 0x13768, offset: 0x13768, size: 0x8, addend: 0x0, symName: __ZNSt3__119__allocate_at_leastB8ue170006INS_9allocatorIP4EdgeEEEENS_19__allocation_resultINS_16allocator_traitsIT_E7pointerEEERS7_m, symObjAddr: 0xD4B8, symBinAddr: 0x100010C48, symSize: 0x40 }
  - { offsetInCU: 0x137AB, offset: 0x137AB, size: 0x8, addend: 0x0, symName: __ZNSt3__142__uninitialized_allocator_move_if_noexceptB8ue170006INS_9allocatorIP4EdgeEENS_16reverse_iteratorIPS3_EES7_S3_vEET1_RT_T0_SB_S8_, symObjAddr: 0xD698, symBinAddr: 0x100010E28, symSize: 0xE8 }
  - { offsetInCU: 0x13828, offset: 0x13828, size: 0x8, addend: 0x0, symName: __ZNSt3__14swapB8ue170006IPP4EdgeEEvRT_S5_, symObjAddr: 0xD7CC, symBinAddr: 0x100010F5C, symSize: 0x3C }
  - { offsetInCU: 0x13879, offset: 0x13879, size: 0x8, addend: 0x0, symName: __ZNSt3__1neB8ue170006IPP4EdgeS3_EEbRKNS_16reverse_iteratorIT_EERKNS4_IT0_EE, symObjAddr: 0xD8B4, symBinAddr: 0x100011044, symSize: 0x48 }
  - { offsetInCU: 0x138EA, offset: 0x138EA, size: 0x8, addend: 0x0, symName: __ZNSt3__114__construct_atB8ue170006IP4EdgeJS2_EPS2_EEPT_S5_DpOT0_, symObjAddr: 0xD8FC, symBinAddr: 0x10001108C, symSize: 0x2C }
  - { offsetInCU: 0x1395A, offset: 0x1395A, size: 0x8, addend: 0x0, symName: __ZNSt3__112__to_addressB8ue170006INS_16reverse_iteratorIPP4EdgeEEvEEu7__decayIDTclsr19__to_address_helperIT_EE6__callclsr3stdE7declvalIRKS6_EEEEES8_, symObjAddr: 0xD928, symBinAddr: 0x1000110B8, symSize: 0x24 }
  - { offsetInCU: 0x13990, offset: 0x13990, size: 0x8, addend: 0x0, symName: __ZNSt3__14moveB8ue170006INS_16reverse_iteratorIPP4EdgeEES5_EET0_T_S7_S6_, symObjAddr: 0xD994, symBinAddr: 0x100011124, symSize: 0x78 }
  - { offsetInCU: 0x13A13, offset: 0x13A13, size: 0x8, addend: 0x0, symName: __ZNSt3__16__moveB8ue170006INS_17_ClassicAlgPolicyENS_16reverse_iteratorIPP4EdgeEES6_S6_EENS_4pairIT0_T2_EES8_T1_S9_, symObjAddr: 0xDA7C, symBinAddr: 0x10001120C, symSize: 0x64 }
  - { offsetInCU: 0x13A7F, offset: 0x13A7F, size: 0x8, addend: 0x0, symName: __ZNSt3__123__dispatch_copy_or_moveB8ue170006INS_17_ClassicAlgPolicyENS_11__move_loopIS1_EENS_14__move_trivialENS_16reverse_iteratorIPP4EdgeEES9_S9_EENS_4pairIT2_T4_EESB_T3_SC_, symObjAddr: 0xDAE0, symBinAddr: 0x100011270, symSize: 0x64 }
  - { offsetInCU: 0x13AFD, offset: 0x13AFD, size: 0x8, addend: 0x0, symName: __ZNSt3__121__unwrap_and_dispatchB8ue170006INS_10__overloadINS_11__move_loopINS_17_ClassicAlgPolicyEEENS_14__move_trivialEEENS_16reverse_iteratorIPP4EdgeEESB_SB_Li0EEENS_4pairIT0_T2_EESD_T1_SE_, symObjAddr: 0xDB44, symBinAddr: 0x1000112D4, symSize: 0x12C }
  - { offsetInCU: 0x13B8D, offset: 0x13B8D, size: 0x8, addend: 0x0, symName: __ZNSt3__114__unwrap_rangeB8ue170006INS_16reverse_iteratorIPP4EdgeEES5_EENS_4pairIT0_S7_EET_S9_, symObjAddr: 0xDC70, symBinAddr: 0x100011400, symSize: 0x84 }
  - { offsetInCU: 0x13C86, offset: 0x13C86, size: 0x8, addend: 0x0, symName: __ZNSt3__113__unwrap_iterB8ue170006INS_16reverse_iteratorIPP4EdgeEENS_18__unwrap_iter_implIS5_Lb0EEELi0EEEDTclsrT0_8__unwrapclsr3stdE7declvalIT_EEEES9_, symObjAddr: 0xDD94, symBinAddr: 0x100011524, symSize: 0x44 }
  - { offsetInCU: 0x13CCA, offset: 0x13CCA, size: 0x8, addend: 0x0, symName: __ZNSt3__19make_pairB8ue170006INS_16reverse_iteratorIPP4EdgeEES5_EENS_4pairINS_18__unwrap_ref_decayIT_E4typeENS7_IT0_E4typeEEEOS8_OSB_, symObjAddr: 0xDDD8, symBinAddr: 0x100011568, symSize: 0x38 }
  - { offsetInCU: 0x13D19, offset: 0x13D19, size: 0x8, addend: 0x0, symName: __ZNSt3__114__rewrap_rangeB8ue170006INS_16reverse_iteratorIPP4EdgeEES5_EET_S6_T0_, symObjAddr: 0xDE10, symBinAddr: 0x1000115A0, symSize: 0x5C }
  - { offsetInCU: 0x13D65, offset: 0x13D65, size: 0x8, addend: 0x0, symName: __ZNSt3__113__rewrap_iterB8ue170006INS_16reverse_iteratorIPP4EdgeEES5_NS_18__unwrap_iter_implIS5_Lb0EEEEET_S8_T0_, symObjAddr: 0xDE6C, symBinAddr: 0x1000115FC, symSize: 0x88 }
  - { offsetInCU: 0x13E26, offset: 0x13E26, size: 0x8, addend: 0x0, symName: __ZNSt3__119__allocate_at_leastB8ue170006INS_9allocatorINS_4pairIP6VertexP4EdgeEEEEEENS_19__allocation_resultINS_16allocator_traitsIT_E7pointerEEERSB_m, symObjAddr: 0xE99C, symBinAddr: 0x10001212C, symSize: 0x40 }
  - { offsetInCU: 0x13E69, offset: 0x13E69, size: 0x8, addend: 0x0, symName: __ZNSt3__142__uninitialized_allocator_move_if_noexceptB8ue170006INS_9allocatorINS_4pairIP6VertexP4EdgeEEEENS_16reverse_iteratorIPS7_EESB_SB_EET2_RT_T0_T1_SC_, symObjAddr: 0xEB7C, symBinAddr: 0x10001230C, symSize: 0x134 }
  - { offsetInCU: 0x13F09, offset: 0x13F09, size: 0x8, addend: 0x0, symName: __ZNSt3__14swapB8ue170006IPNS_4pairIP6VertexP4EdgeEEEEvRT_S9_, symObjAddr: 0xECFC, symBinAddr: 0x10001248C, symSize: 0x3C }
  - { offsetInCU: 0x13F5A, offset: 0x13F5A, size: 0x8, addend: 0x0, symName: __ZNSt3__122__make_exception_guardB8ue170006INS_29_AllocatorDestroyRangeReverseINS_9allocatorINS_4pairIP6VertexP4EdgeEEEENS_16reverse_iteratorIPS8_EEEEEENS_28__exception_guard_exceptionsIT_EESF_, symObjAddr: 0xEDE4, symBinAddr: 0x100012574, symSize: 0x4C }
  - { offsetInCU: 0x13F90, offset: 0x13F90, size: 0x8, addend: 0x0, symName: __ZNSt3__1neB8ue170006IPNS_4pairIP6VertexP4EdgeEES7_EEbRKNS_16reverse_iteratorIT_EERKNS8_IT0_EE, symObjAddr: 0xEE74, symBinAddr: 0x100012604, symSize: 0x48 }
  - { offsetInCU: 0x13FDC, offset: 0x13FDC, size: 0x8, addend: 0x0, symName: __ZNSt3__112__to_addressB8ue170006INS_16reverse_iteratorIPNS_4pairIP6VertexP4EdgeEEEEvEEu7__decayIDTclsr19__to_address_helperIT_EE6__callclsr3stdE7declvalIRKSA_EEEEESC_, symObjAddr: 0xEEBC, symBinAddr: 0x10001264C, symSize: 0x24 }
  - { offsetInCU: 0x1403B, offset: 0x1403B, size: 0x8, addend: 0x0, symName: __ZNSt3__119__allocator_destroyB8ue170006INS_9allocatorINS_4pairIP6VertexP4EdgeEEEENS_16reverse_iteratorINS9_IPS7_EEEESC_EEvRT_T0_T1_, symObjAddr: 0xF178, symBinAddr: 0x100012908, symSize: 0x70 }
  - { offsetInCU: 0x140A0, offset: 0x140A0, size: 0x8, addend: 0x0, symName: __ZNSt3__1neB8ue170006INS_16reverse_iteratorIPNS_4pairIP6VertexP4EdgeEEEES9_EEbRKNS1_IT_EERKNS1_IT0_EE, symObjAddr: 0xF224, symBinAddr: 0x1000129B4, symSize: 0x60 }
  - { offsetInCU: 0x140EC, offset: 0x140EC, size: 0x8, addend: 0x0, symName: __ZNSt3__112__to_addressB8ue170006INS_16reverse_iteratorINS1_IPNS_4pairIP6VertexP4EdgeEEEEEEvEEu7__decayIDTclsr19__to_address_helperIT_EE6__callclsr3stdE7declvalIRKSB_EEEEESD_, symObjAddr: 0xF284, symBinAddr: 0x100012A14, symSize: 0x24 }
  - { offsetInCU: 0x1414B, offset: 0x1414B, size: 0x8, addend: 0x0, symName: __ZNSt3__116__pad_and_outputB8ue170006IcNS_11char_traitsIcEEEENS_19ostreambuf_iteratorIT_T0_EES6_PKS4_S8_S8_RNS_8ios_baseES4_, symObjAddr: 0xF818, symBinAddr: 0x100012FA8, symSize: 0x248 }
  - { offsetInCU: 0x1421A, offset: 0x1421A, size: 0x8, addend: 0x0, symName: __ZNSt3__122__make_exception_guardB8ue170006INS_6vectorIiNS_9allocatorIiEEE16__destroy_vectorEEENS_28__exception_guard_exceptionsIT_EES7_, symObjAddr: 0xFE08, symBinAddr: 0x100013598, symSize: 0x40 }
  - { offsetInCU: 0x1424F, offset: 0x1424F, size: 0x8, addend: 0x0, symName: __ZNSt3__112__to_addressB8ue170006INS_4pairIiiEEEEPT_S4_, symObjAddr: 0x10448, symBinAddr: 0x100013BD8, symSize: 0x14 }
  - { offsetInCU: 0x14284, offset: 0x14284, size: 0x8, addend: 0x0, symName: __ZNSt3__19push_heapB8ue170006INS_11__wrap_iterIPNS_4pairIiiEEEENS_7greaterIS3_EEEEvT_S8_T0_, symObjAddr: 0x10654, symBinAddr: 0x100013DE4, symSize: 0x40 }
  - { offsetInCU: 0x142DA, offset: 0x142DA, size: 0x8, addend: 0x0, symName: __ZNSt3__119__allocate_at_leastB8ue170006INS_9allocatorINS_4pairIiiEEEEEENS_19__allocation_resultINS_16allocator_traitsIT_E7pointerEEERS7_m, symObjAddr: 0x10E00, symBinAddr: 0x100014590, symSize: 0x40 }
  - { offsetInCU: 0x1431D, offset: 0x1431D, size: 0x8, addend: 0x0, symName: __ZNSt3__142__uninitialized_allocator_move_if_noexceptB8ue170006INS_9allocatorINS_4pairIiiEEEENS_16reverse_iteratorIPS3_EES7_S7_EET2_RT_T0_T1_S8_, symObjAddr: 0x10FFC, symBinAddr: 0x10001478C, symSize: 0x134 }
  - { offsetInCU: 0x143BD, offset: 0x143BD, size: 0x8, addend: 0x0, symName: __ZNSt3__14swapB8ue170006IPNS_4pairIiiEEEEvRT_S5_, symObjAddr: 0x1117C, symBinAddr: 0x10001490C, symSize: 0x3C }
  - { offsetInCU: 0x1440E, offset: 0x1440E, size: 0x8, addend: 0x0, symName: __ZNSt3__122__make_exception_guardB8ue170006INS_29_AllocatorDestroyRangeReverseINS_9allocatorINS_4pairIiiEEEENS_16reverse_iteratorIPS4_EEEEEENS_28__exception_guard_exceptionsIT_EESB_, symObjAddr: 0x11264, symBinAddr: 0x1000149F4, symSize: 0x4C }
  - { offsetInCU: 0x14444, offset: 0x14444, size: 0x8, addend: 0x0, symName: __ZNSt3__1neB8ue170006IPNS_4pairIiiEES3_EEbRKNS_16reverse_iteratorIT_EERKNS4_IT0_EE, symObjAddr: 0x112F4, symBinAddr: 0x100014A84, symSize: 0x48 }
  - { offsetInCU: 0x14490, offset: 0x14490, size: 0x8, addend: 0x0, symName: __ZNSt3__112__to_addressB8ue170006INS_16reverse_iteratorIPNS_4pairIiiEEEEvEEu7__decayIDTclsr19__to_address_helperIT_EE6__callclsr3stdE7declvalIRKS6_EEEEES8_, symObjAddr: 0x11370, symBinAddr: 0x100014B00, symSize: 0x24 }
  - { offsetInCU: 0x144EF, offset: 0x144EF, size: 0x8, addend: 0x0, symName: __ZNSt3__119__allocator_destroyB8ue170006INS_9allocatorINS_4pairIiiEEEENS_16reverse_iteratorINS5_IPS3_EEEES8_EEvRT_T0_T1_, symObjAddr: 0x11654, symBinAddr: 0x100014DE4, symSize: 0x70 }
  - { offsetInCU: 0x14554, offset: 0x14554, size: 0x8, addend: 0x0, symName: __ZNSt3__1neB8ue170006INS_16reverse_iteratorIPNS_4pairIiiEEEES5_EEbRKNS1_IT_EERKNS1_IT0_EE, symObjAddr: 0x11700, symBinAddr: 0x100014E90, symSize: 0x60 }
  - { offsetInCU: 0x145A0, offset: 0x145A0, size: 0x8, addend: 0x0, symName: __ZNSt3__112__to_addressB8ue170006INS_16reverse_iteratorINS1_IPNS_4pairIiiEEEEEEvEEu7__decayIDTclsr19__to_address_helperIT_EE6__callclsr3stdE7declvalIRKS7_EEEEES9_, symObjAddr: 0x11760, symBinAddr: 0x100014EF0, symSize: 0x24 }
  - { offsetInCU: 0x145FF, offset: 0x145FF, size: 0x8, addend: 0x0, symName: __ZNSt3__111__push_heapB8ue170006INS_17_ClassicAlgPolicyENS_11__wrap_iterIPNS_4pairIiiEEEENS_7greaterIS4_EEEEvT0_S9_RT1_, symObjAddr: 0x11AE4, symBinAddr: 0x100015274, symSize: 0x5C }
  - { offsetInCU: 0x1466C, offset: 0x1466C, size: 0x8, addend: 0x0, symName: __ZNSt3__1miB8ue170006IPNS_4pairIiiEES3_EENS_11__wrap_iterIT_E15difference_typeERKS6_RKNS4_IT0_EE, symObjAddr: 0x11B40, symBinAddr: 0x1000152D0, symSize: 0x48 }
  - { offsetInCU: 0x146B8, offset: 0x146B8, size: 0x8, addend: 0x0, symName: __ZNSt3__19__sift_upB8ue170006INS_17_ClassicAlgPolicyERNS_7greaterINS_4pairIiiEEEENS_11__wrap_iterIPS4_EEEEvT1_SA_OT0_NS_15iterator_traitsISA_E15difference_typeE, symObjAddr: 0x11B88, symBinAddr: 0x100015318, symSize: 0x15C }
  - { offsetInCU: 0x1478C, offset: 0x1478C, size: 0x8, addend: 0x0, symName: __ZNSt3__1gtB8ue170006IiiiiEEbRKNS_4pairIT_T0_EERKNS1_IT1_T2_EE, symObjAddr: 0x11E0C, symBinAddr: 0x10001559C, symSize: 0x30 }
  - { offsetInCU: 0x147ED, offset: 0x147ED, size: 0x8, addend: 0x0, symName: __ZNSt3__1ltB8ue170006IiiiiEEbRKNS_4pairIT_T0_EERKNS1_IT1_T2_EE, symObjAddr: 0x11E3C, symBinAddr: 0x1000155CC, symSize: 0x98 }
  - { offsetInCU: 0x148C8, offset: 0x148C8, size: 0x8, addend: 0x0, symName: __ZNSt3__18pop_heapB8ue170006INS_11__wrap_iterIPNS_4pairIiiEEEENS_7greaterIS3_EEEEvT_S8_T0_, symObjAddr: 0x11F50, symBinAddr: 0x1000156E0, symSize: 0x58 }
  - { offsetInCU: 0x1492C, offset: 0x1492C, size: 0x8, addend: 0x0, symName: __ZNSt3__110__pop_heapB8ue170006INS_17_ClassicAlgPolicyENS_7greaterINS_4pairIiiEEEENS_11__wrap_iterIPS4_EEEEvT1_S9_RT0_NS_15iterator_traitsIS9_E15difference_typeE, symObjAddr: 0x11FD4, symBinAddr: 0x100015764, symSize: 0x128 }
  - { offsetInCU: 0x149DC, offset: 0x149DC, size: 0x8, addend: 0x0, symName: __ZNSt3__1eqB8ue170006IPNS_4pairIiiEEEEbRKNS_11__wrap_iterIT_EES8_, symObjAddr: 0x12244, symBinAddr: 0x1000159D4, symSize: 0x48 }
  - { offsetInCU: 0x14A1F, offset: 0x14A1F, size: 0x8, addend: 0x0, symName: __ZNSt3__1eqB8ue170006IPiEEbRKNS_11__wrap_iterIT_EES6_, symObjAddr: 0x12A0C, symBinAddr: 0x10001619C, symSize: 0x48 }
  - { offsetInCU: 0x14D82, offset: 0x14D82, size: 0x8, addend: 0x0, symName: __ZSt28__throw_bad_array_new_lengthB8ue170006v, symObjAddr: 0x5C00, symBinAddr: 0x100009390, symSize: 0x34 }
  - { offsetInCU: 0x14F44, offset: 0x14F44, size: 0x8, addend: 0x0, symName: __ZL4EDGE, symObjAddr: 0x89C90, symBinAddr: 0x10001C018, symSize: 0x0 }
  - { offsetInCU: 0x14F5D, offset: 0x14F5D, size: 0x8, addend: 0x0, symName: __ZL5ORDER, symObjAddr: 0x89CA8, symBinAddr: 0x10001C030, symSize: 0x0 }
  - { offsetInCU: 0x14F76, offset: 0x14F76, size: 0x8, addend: 0x0, symName: __ZL4DROP, symObjAddr: 0x89CC0, symBinAddr: 0x10001C048, symSize: 0x0 }
  - { offsetInCU: 0x14F8F, offset: 0x14F8F, size: 0x8, addend: 0x0, symName: __ZL8COMPLETE, symObjAddr: 0x89CD8, symBinAddr: 0x10001C060, symSize: 0x0 }
  - { offsetInCU: 0x1571A, offset: 0x1571A, size: 0x8, addend: 0x0, symName: __ZNSt3__16vectorIP8DeliveryNS_9allocatorIS2_EEE26__swap_out_circular_bufferERNS_14__split_bufferIS2_RS4_EE, symObjAddr: 0x54DC, symBinAddr: 0x100008C6C, symSize: 0x110 }
  - { offsetInCU: 0x15C90, offset: 0x15C90, size: 0x8, addend: 0x0, symName: __ZNSt3__16vectorIP6VertexNS_9allocatorIS2_EEE26__swap_out_circular_bufferERNS_14__split_bufferIS2_RS4_EE, symObjAddr: 0x8D48, symBinAddr: 0x10000C4D8, symSize: 0x110 }
  - { offsetInCU: 0x15CE7, offset: 0x15CE7, size: 0x8, addend: 0x0, symName: __ZNSt3__16vectorIP5OrderNS_9allocatorIS2_EEE26__swap_out_circular_bufferERNS_14__split_bufferIS2_RS4_EE, symObjAddr: 0xA504, symBinAddr: 0x10000DC94, symSize: 0x110 }
  - { offsetInCU: 0x15D3E, offset: 0x15D3E, size: 0x8, addend: 0x0, symName: __ZNSt3__16vectorIiNS_9allocatorIiEEE26__swap_out_circular_bufferERNS_14__split_bufferIiRS2_EE, symObjAddr: 0xBC94, symBinAddr: 0x10000F424, symSize: 0x110 }
  - { offsetInCU: 0x15D95, offset: 0x15D95, size: 0x8, addend: 0x0, symName: __ZNSt3__16vectorIP4EdgeNS_9allocatorIS2_EEE26__swap_out_circular_bufferERNS_14__split_bufferIS2_RS4_EE, symObjAddr: 0xD144, symBinAddr: 0x1000108D4, symSize: 0x110 }
  - { offsetInCU: 0x15DEC, offset: 0x15DEC, size: 0x8, addend: 0x0, symName: __ZNSt3__16vectorINS_4pairIP6VertexP4EdgeEENS_9allocatorIS6_EEE26__swap_out_circular_bufferERNS_14__split_bufferIS6_RS8_EE, symObjAddr: 0xE628, symBinAddr: 0x100011DB8, symSize: 0x110 }
  - { offsetInCU: 0x160F2, offset: 0x160F2, size: 0x8, addend: 0x0, symName: __ZNSt3__16vectorINS_4pairIiiEENS_9allocatorIS2_EEE26__swap_out_circular_bufferERNS_14__split_bufferIS2_RS4_EE, symObjAddr: 0x10A8C, symBinAddr: 0x10001421C, symSize: 0x110 }
  - { offsetInCU: 0x18500, offset: 0x18500, size: 0x8, addend: 0x0, symName: __ZNSt3__112basic_stringIcNS_11char_traitsIcEENS_9allocatorIcEEEC1B8ue170006ILi0EEEPKc, symObjAddr: 0x0, symBinAddr: 0x100003790, symSize: 0x34 }
  - { offsetInCU: 0x1853F, offset: 0x1853F, size: 0x8, addend: 0x0, symName: _main, symObjAddr: 0x34, symBinAddr: 0x1000037C4, symSize: 0x378 }
  - { offsetInCU: 0x18952, offset: 0x18952, size: 0x8, addend: 0x0, symName: __ZN5GraphC1Eii, symObjAddr: 0x3AC, symBinAddr: 0x100003B3C, symSize: 0x3C }
  - { offsetInCU: 0x18999, offset: 0x18999, size: 0x8, addend: 0x0, symName: __ZNSt3__112basic_stringIcNS_11char_traitsIcEENS_9allocatorIcEEEC1B8ue170006Ev, symObjAddr: 0x3E8, symBinAddr: 0x100003B78, symSize: 0x2C }
  - { offsetInCU: 0x189C3, offset: 0x189C3, size: 0x8, addend: 0x0, symName: __ZN5Graph12InsertVertexEii, symObjAddr: 0x738, symBinAddr: 0x100003EC8, symSize: 0xAC }
  - { offsetInCU: 0x18A14, offset: 0x18A14, size: 0x8, addend: 0x0, symName: __ZN5Graph11addDeliveryEi, symObjAddr: 0x7E4, symBinAddr: 0x100003F74, symSize: 0x7C }
  - { offsetInCU: 0x18A49, offset: 0x18A49, size: 0x8, addend: 0x0, symName: __ZN5Graph10InsertEdgeEiiii, symObjAddr: 0x860, symBinAddr: 0x100003FF0, symSize: 0x1A0 }
  - { offsetInCU: 0x18AB6, offset: 0x18AB6, size: 0x8, addend: 0x0, symName: __ZN5Graph12findDeliveryEiii, symObjAddr: 0xB48, symBinAddr: 0x1000042D8, symSize: 0x4E0 }
  - { offsetInCU: 0x18B71, offset: 0x18B71, size: 0x8, addend: 0x0, symName: __ZN5Graph12DropDeliveryEii, symObjAddr: 0x1028, symBinAddr: 0x1000047B8, symSize: 0x194 }
  - { offsetInCU: 0x18BF3, offset: 0x18BF3, size: 0x8, addend: 0x0, symName: __ZN5Graph16CompleteDeliveryEi, symObjAddr: 0x11BC, symBinAddr: 0x10000494C, symSize: 0x840 }
  - { offsetInCU: 0x18D2D, offset: 0x18D2D, size: 0x8, addend: 0x0, symName: __ZN5GraphD1Ev, symObjAddr: 0x1A08, symBinAddr: 0x100005198, symSize: 0x2C }
  - { offsetInCU: 0x18D59, offset: 0x18D59, size: 0x8, addend: 0x0, symName: __ZN5GraphC2Eii, symObjAddr: 0x1A34, symBinAddr: 0x1000051C4, symSize: 0x190 }
  - { offsetInCU: 0x18DA0, offset: 0x18DA0, size: 0x8, addend: 0x0, symName: __ZNSt3__16vectorIP4EdgeNS_9allocatorIS2_EEEC1B8ue170006Ev, symObjAddr: 0x1BC4, symBinAddr: 0x100005354, symSize: 0x2C }
  - { offsetInCU: 0x18DCA, offset: 0x18DCA, size: 0x8, addend: 0x0, symName: __ZNSt3__16vectorIP6VertexNS_9allocatorIS2_EEEC1B8ue170006Ev, symObjAddr: 0x1BF0, symBinAddr: 0x100005380, symSize: 0x2C }
  - { offsetInCU: 0x18DF4, offset: 0x18DF4, size: 0x8, addend: 0x0, symName: __ZNSt3__16vectorIiNS_9allocatorIiEEEC1B8ue170006Ev, symObjAddr: 0x1C1C, symBinAddr: 0x1000053AC, symSize: 0x2C }
  - { offsetInCU: 0x18E1E, offset: 0x18E1E, size: 0x8, addend: 0x0, symName: __ZNSt3__16vectorIP8DeliveryNS_9allocatorIS2_EEEC1B8ue170006Ev, symObjAddr: 0x1C48, symBinAddr: 0x1000053D8, symSize: 0x2C }
  - { offsetInCU: 0x18E48, offset: 0x18E48, size: 0x8, addend: 0x0, symName: __ZNSt3__16vectorIP5OrderNS_9allocatorIS2_EEEC1B8ue170006Ev, symObjAddr: 0x1C74, symBinAddr: 0x100005404, symSize: 0x2C }
  - { offsetInCU: 0x18E72, offset: 0x18E72, size: 0x8, addend: 0x0, symName: __ZNSt3__16vectorIP6VertexNS_9allocatorIS2_EEE6resizeEmRKS2_, symObjAddr: 0x1CA0, symBinAddr: 0x100005430, symSize: 0x9C }
  - { offsetInCU: 0x18EC7, offset: 0x18EC7, size: 0x8, addend: 0x0, symName: __ZNSt3__16vectorIP5OrderNS_9allocatorIS2_EEE6resizeEmRKS2_, symObjAddr: 0x1D3C, symBinAddr: 0x1000054CC, symSize: 0x9C }
  - { offsetInCU: 0x18F1C, offset: 0x18F1C, size: 0x8, addend: 0x0, symName: __ZNSt3__16vectorIP5OrderNS_9allocatorIS2_EEED1B8ue170006Ev, symObjAddr: 0x1DD8, symBinAddr: 0x100005568, symSize: 0x2C }
  - { offsetInCU: 0x18F46, offset: 0x18F46, size: 0x8, addend: 0x0, symName: __ZNSt3__16vectorIP8DeliveryNS_9allocatorIS2_EEED1B8ue170006Ev, symObjAddr: 0x1E04, symBinAddr: 0x100005594, symSize: 0x2C }
  - { offsetInCU: 0x18F70, offset: 0x18F70, size: 0x8, addend: 0x0, symName: __ZNSt3__16vectorIiNS_9allocatorIiEEED1B8ue170006Ev, symObjAddr: 0x1E30, symBinAddr: 0x1000055C0, symSize: 0x2C }
  - { offsetInCU: 0x18F9A, offset: 0x18F9A, size: 0x8, addend: 0x0, symName: __ZNSt3__16vectorIP6VertexNS_9allocatorIS2_EEED1B8ue170006Ev, symObjAddr: 0x1E5C, symBinAddr: 0x1000055EC, symSize: 0x2C }
  - { offsetInCU: 0x18FC4, offset: 0x18FC4, size: 0x8, addend: 0x0, symName: __ZNSt3__16vectorIP4EdgeNS_9allocatorIS2_EEED1B8ue170006Ev, symObjAddr: 0x1E88, symBinAddr: 0x100005618, symSize: 0x2C }
  - { offsetInCU: 0x18FEE, offset: 0x18FEE, size: 0x8, addend: 0x0, symName: __ZN5Graph7isEmptyEv, symObjAddr: 0x1EB4, symBinAddr: 0x100005644, symSize: 0x24 }
  - { offsetInCU: 0x19015, offset: 0x19015, size: 0x8, addend: 0x0, symName: __ZN5Graph10ExistsEdgeEii, symObjAddr: 0x1ED8, symBinAddr: 0x100005668, symSize: 0xE4 }
  - { offsetInCU: 0x19082, offset: 0x19082, size: 0x8, addend: 0x0, symName: __ZNKSt3__16vectorIP4EdgeNS_9allocatorIS2_EEE4sizeB8ue170006Ev, symObjAddr: 0x1FBC, symBinAddr: 0x10000574C, symSize: 0x28 }
  - { offsetInCU: 0x190A8, offset: 0x190A8, size: 0x8, addend: 0x0, symName: __ZNSt3__16vectorIP4EdgeNS_9allocatorIS2_EEEixB8ue170006Em, symObjAddr: 0x1FE4, symBinAddr: 0x100005774, symSize: 0x24 }
  - { offsetInCU: 0x190DF, offset: 0x190DF, size: 0x8, addend: 0x0, symName: __ZN6VertexC1Eii, symObjAddr: 0x2008, symBinAddr: 0x100005798, symSize: 0x3C }
  - { offsetInCU: 0x19125, offset: 0x19125, size: 0x8, addend: 0x0, symName: __ZNSt3__16vectorIP6VertexNS_9allocatorIS2_EEEixB8ue170006Em, symObjAddr: 0x2044, symBinAddr: 0x1000057D4, symSize: 0x24 }
  - { offsetInCU: 0x1915C, offset: 0x1915C, size: 0x8, addend: 0x0, symName: __ZNSt3__16vectorIiNS_9allocatorIiEEE9push_backB8ue170006ERKi, symObjAddr: 0x2068, symBinAddr: 0x1000057F8, symSize: 0x6C }
  - { offsetInCU: 0x19193, offset: 0x19193, size: 0x8, addend: 0x0, symName: __ZN4EdgeC1Eiiii, symObjAddr: 0x20D4, symBinAddr: 0x100005864, symSize: 0x4C }
  - { offsetInCU: 0x191F5, offset: 0x191F5, size: 0x8, addend: 0x0, symName: __ZNSt3__16vectorIP4EdgeNS_9allocatorIS2_EEE9push_backB8ue170006ERKS2_, symObjAddr: 0x2120, symBinAddr: 0x1000058B0, symSize: 0x6C }
  - { offsetInCU: 0x1922C, offset: 0x1922C, size: 0x8, addend: 0x0, symName: __ZNSt3__16vectorINS_4pairIP6VertexP4EdgeEENS_9allocatorIS6_EEE9push_backB8ue170006EOS6_, symObjAddr: 0x218C, symBinAddr: 0x10000591C, symSize: 0x6C }
  - { offsetInCU: 0x19263, offset: 0x19263, size: 0x8, addend: 0x0, symName: __ZNSt3__14pairIP6VertexP4EdgeEC1B8ue170006ERKS2_RKS4_, symObjAddr: 0x21F8, symBinAddr: 0x100005988, symSize: 0x3C }
  - { offsetInCU: 0x192A9, offset: 0x192A9, size: 0x8, addend: 0x0, symName: __ZN5Graph9printEdgeEiP4Edge, symObjAddr: 0x2234, symBinAddr: 0x1000059C4, symSize: 0x10C }
  - { offsetInCU: 0x192EC, offset: 0x192EC, size: 0x8, addend: 0x0, symName: __ZNSt3__113basic_ostreamIcNS_11char_traitsIcEEElsB8ue170006EPFRS3_S4_E, symObjAddr: 0x2388, symBinAddr: 0x100005B18, symSize: 0x2C }
  - { offsetInCU: 0x19320, offset: 0x19320, size: 0x8, addend: 0x0, symName: __ZN5Graph10resetVisitEv, symObjAddr: 0x240C, symBinAddr: 0x100005B9C, symSize: 0x2C }
  - { offsetInCU: 0x19347, offset: 0x19347, size: 0x8, addend: 0x0, symName: __ZN5Graph10PrintGraphEi, symObjAddr: 0x2438, symBinAddr: 0x100005BC8, symSize: 0x38 }
  - { offsetInCU: 0x1937C, offset: 0x1937C, size: 0x8, addend: 0x0, symName: __ZN5Graph3dfsEi, symObjAddr: 0x2470, symBinAddr: 0x100005C00, symSize: 0x154 }
  - { offsetInCU: 0x193CD, offset: 0x193CD, size: 0x8, addend: 0x0, symName: __ZNSt3__16vectorINS_4pairIP6VertexP4EdgeEENS_9allocatorIS6_EEE5beginB8ue170006Ev, symObjAddr: 0x25C4, symBinAddr: 0x100005D54, symSize: 0x30 }
  - { offsetInCU: 0x193F5, offset: 0x193F5, size: 0x8, addend: 0x0, symName: __ZNSt3__16vectorINS_4pairIP6VertexP4EdgeEENS_9allocatorIS6_EEE3endB8ue170006Ev, symObjAddr: 0x2628, symBinAddr: 0x100005DB8, symSize: 0x30 }
  - { offsetInCU: 0x1941D, offset: 0x1941D, size: 0x8, addend: 0x0, symName: __ZNKSt3__111__wrap_iterIPNS_4pairIP6VertexP4EdgeEEEdeB8ue170006Ev, symObjAddr: 0x2658, symBinAddr: 0x100005DE8, symSize: 0x18 }
  - { offsetInCU: 0x19443, offset: 0x19443, size: 0x8, addend: 0x0, symName: __ZNSt3__111__wrap_iterIPNS_4pairIP6VertexP4EdgeEEEppB8ue170006Ei, symObjAddr: 0x2670, symBinAddr: 0x100005E00, symSize: 0x34 }
  - { offsetInCU: 0x19482, offset: 0x19482, size: 0x8, addend: 0x0, symName: __ZNSt3__16vectorIP8DeliveryNS_9allocatorIS2_EEE9push_backB8ue170006EOS2_, symObjAddr: 0x26A4, symBinAddr: 0x100005E34, symSize: 0x6C }
  - { offsetInCU: 0x194B9, offset: 0x194B9, size: 0x8, addend: 0x0, symName: __ZN8DeliveryC1Ei, symObjAddr: 0x2710, symBinAddr: 0x100005EA0, symSize: 0x34 }
  - { offsetInCU: 0x194F1, offset: 0x194F1, size: 0x8, addend: 0x0, symName: __ZN5Graph8DijkstraEii, symObjAddr: 0x2744, symBinAddr: 0x100005ED4, symSize: 0x45C }
  - { offsetInCU: 0x19637, offset: 0x19637, size: 0x8, addend: 0x0, symName: __ZNKSt3__16vectorINS_4pairIP6VertexP4EdgeEENS_9allocatorIS6_EEE4sizeB8ue170006Ev, symObjAddr: 0x2BA0, symBinAddr: 0x100006330, symSize: 0x28 }
  - { offsetInCU: 0x1965D, offset: 0x1965D, size: 0x8, addend: 0x0, symName: __ZNSt3__16vectorIiNS_9allocatorIiEEEC1EmRKi, symObjAddr: 0x2BC8, symBinAddr: 0x100006358, symSize: 0x3C }
  - { offsetInCU: 0x196E8, offset: 0x196E8, size: 0x8, addend: 0x0, symName: __ZNSt3__114priority_queueINS_4pairIiiEENS_6vectorIS2_NS_9allocatorIS2_EEEENS_7greaterIS2_EEEC1B8ue170006Ev, symObjAddr: 0x2C04, symBinAddr: 0x100006394, symSize: 0x2C }
  - { offsetInCU: 0x19712, offset: 0x19712, size: 0x8, addend: 0x0, symName: __ZNSt3__16vectorIiNS_9allocatorIiEEEixB8ue170006Em, symObjAddr: 0x2C30, symBinAddr: 0x1000063C0, symSize: 0x24 }
  - { offsetInCU: 0x19749, offset: 0x19749, size: 0x8, addend: 0x0, symName: __ZNSt3__114priority_queueINS_4pairIiiEENS_6vectorIS2_NS_9allocatorIS2_EEEENS_7greaterIS2_EEE4pushERKS2_, symObjAddr: 0x2C54, symBinAddr: 0x1000063E4, symSize: 0x58 }
  - { offsetInCU: 0x19780, offset: 0x19780, size: 0x8, addend: 0x0, symName: __ZNSt3__14pairIiiEC1B8ue170006ERKiS3_, symObjAddr: 0x2CAC, symBinAddr: 0x10000643C, symSize: 0x3C }
  - { offsetInCU: 0x197C6, offset: 0x197C6, size: 0x8, addend: 0x0, symName: __ZNKSt3__114priority_queueINS_4pairIiiEENS_6vectorIS2_NS_9allocatorIS2_EEEENS_7greaterIS2_EEE4sizeB8ue170006Ev, symObjAddr: 0x2CE8, symBinAddr: 0x100006478, symSize: 0x24 }
  - { offsetInCU: 0x197EC, offset: 0x197EC, size: 0x8, addend: 0x0, symName: __ZNKSt3__114priority_queueINS_4pairIiiEENS_6vectorIS2_NS_9allocatorIS2_EEEENS_7greaterIS2_EEE3topB8ue170006Ev, symObjAddr: 0x2D0C, symBinAddr: 0x10000649C, symSize: 0x24 }
  - { offsetInCU: 0x19812, offset: 0x19812, size: 0x8, addend: 0x0, symName: __ZNSt3__114priority_queueINS_4pairIiiEENS_6vectorIS2_NS_9allocatorIS2_EEEENS_7greaterIS2_EEE3popEv, symObjAddr: 0x2D78, symBinAddr: 0x100006508, symSize: 0x50 }
  - { offsetInCU: 0x1983A, offset: 0x1983A, size: 0x8, addend: 0x0, symName: __ZNSt3__16vectorINS_4pairIiiEENS_9allocatorIS2_EEEC1B8ue170006Ev, symObjAddr: 0x2DC8, symBinAddr: 0x100006558, symSize: 0x2C }
  - { offsetInCU: 0x19864, offset: 0x19864, size: 0x8, addend: 0x0, symName: __ZNSt3__16vectorINS_4pairIiiEENS_9allocatorIS2_EEE9push_backB8ue170006EOS2_, symObjAddr: 0x2DF4, symBinAddr: 0x100006584, symSize: 0x6C }
  - { offsetInCU: 0x1989B, offset: 0x1989B, size: 0x8, addend: 0x0, symName: __ZNSt3__16vectorINS_4pairIP6VertexP4EdgeEENS_9allocatorIS6_EEEixB8ue170006Em, symObjAddr: 0x2E60, symBinAddr: 0x1000065F0, symSize: 0x24 }
  - { offsetInCU: 0x198D2, offset: 0x198D2, size: 0x8, addend: 0x0, symName: __ZNSt3__16vectorINS_4pairIiiEENS_9allocatorIS2_EEE5beginB8ue170006Ev, symObjAddr: 0x2E84, symBinAddr: 0x100006614, symSize: 0x30 }
  - { offsetInCU: 0x198FA, offset: 0x198FA, size: 0x8, addend: 0x0, symName: __ZNSt3__16vectorINS_4pairIiiEENS_9allocatorIS2_EEE3endB8ue170006Ev, symObjAddr: 0x2EB4, symBinAddr: 0x100006644, symSize: 0x30 }
  - { offsetInCU: 0x19922, offset: 0x19922, size: 0x8, addend: 0x0, symName: __ZNKSt3__111__wrap_iterIPNS_4pairIiiEEEdeB8ue170006Ev, symObjAddr: 0x2F18, symBinAddr: 0x1000066A8, symSize: 0x18 }
  - { offsetInCU: 0x19948, offset: 0x19948, size: 0x8, addend: 0x0, symName: __ZNSt3__111__wrap_iterIPNS_4pairIiiEEEppB8ue170006Ev, symObjAddr: 0x2F30, symBinAddr: 0x1000066C0, symSize: 0x20 }
  - { offsetInCU: 0x1996E, offset: 0x1996E, size: 0x8, addend: 0x0, symName: __ZNSt3__16vectorINS_4pairIiiEENS_9allocatorIS2_EEED1B8ue170006Ev, symObjAddr: 0x2F50, symBinAddr: 0x1000066E0, symSize: 0x2C }
  - { offsetInCU: 0x19998, offset: 0x19998, size: 0x8, addend: 0x0, symName: __ZNSt3__114priority_queueINS_4pairIiiEENS_6vectorIS2_NS_9allocatorIS2_EEEENS_7greaterIS2_EEED1Ev, symObjAddr: 0x2F7C, symBinAddr: 0x10000670C, symSize: 0x2C }
  - { offsetInCU: 0x199C5, offset: 0x199C5, size: 0x8, addend: 0x0, symName: __ZN5Graph12updateStatusEiiiiii, symObjAddr: 0x2FA8, symBinAddr: 0x100006738, symSize: 0x398 }
  - { offsetInCU: 0x19A9E, offset: 0x19A9E, size: 0x8, addend: 0x0, symName: __ZNSt3__16vectorIP8DeliveryNS_9allocatorIS2_EEEixB8ue170006Em, symObjAddr: 0x3340, symBinAddr: 0x100006AD0, symSize: 0x24 }
  - { offsetInCU: 0x19AD5, offset: 0x19AD5, size: 0x8, addend: 0x0, symName: __ZNSt3__16vectorIP8DeliveryNS_9allocatorIS2_EEE8pop_backEv, symObjAddr: 0x3364, symBinAddr: 0x100006AF4, symSize: 0x2C }
  - { offsetInCU: 0x19AFD, offset: 0x19AFD, size: 0x8, addend: 0x0, symName: __ZNSt3__16vectorIP8DeliveryNS_9allocatorIS2_EEE9push_backB8ue170006ERKS2_, symObjAddr: 0x3390, symBinAddr: 0x100006B20, symSize: 0x6C }
  - { offsetInCU: 0x19B34, offset: 0x19B34, size: 0x8, addend: 0x0, symName: __ZNSt3__16vectorIP5OrderNS_9allocatorIS2_EEEixB8ue170006Em, symObjAddr: 0x33FC, symBinAddr: 0x100006B8C, symSize: 0x24 }
  - { offsetInCU: 0x19B6B, offset: 0x19B6B, size: 0x8, addend: 0x0, symName: __ZN5OrderC1Eiii, symObjAddr: 0x3420, symBinAddr: 0x100006BB0, symSize: 0x44 }
  - { offsetInCU: 0x19BBF, offset: 0x19BBF, size: 0x8, addend: 0x0, symName: __ZNSt3__16vectorIiNS_9allocatorIiEEE5beginB8ue170006Ev, symObjAddr: 0x3464, symBinAddr: 0x100006BF4, symSize: 0x30 }
  - { offsetInCU: 0x19BE7, offset: 0x19BE7, size: 0x8, addend: 0x0, symName: __ZNSt3__16vectorIiNS_9allocatorIiEEE3endB8ue170006Ev, symObjAddr: 0x34C8, symBinAddr: 0x100006C58, symSize: 0x30 }
  - { offsetInCU: 0x19C0F, offset: 0x19C0F, size: 0x8, addend: 0x0, symName: __ZNKSt3__111__wrap_iterIPiEdeB8ue170006Ev, symObjAddr: 0x34F8, symBinAddr: 0x100006C88, symSize: 0x18 }
  - { offsetInCU: 0x19C35, offset: 0x19C35, size: 0x8, addend: 0x0, symName: __ZN6Vertex9availableEv, symObjAddr: 0x3510, symBinAddr: 0x100006CA0, symSize: 0xB8 }
  - { offsetInCU: 0x19C77, offset: 0x19C77, size: 0x8, addend: 0x0, symName: __ZN6Vertex13foundNeighborEi, symObjAddr: 0x35C8, symBinAddr: 0x100006D58, symSize: 0xC8 }
  - { offsetInCU: 0x19CC7, offset: 0x19CC7, size: 0x8, addend: 0x0, symName: __ZNSt3__111__wrap_iterIPiEppB8ue170006Ei, symObjAddr: 0x3690, symBinAddr: 0x100006E20, symSize: 0x34 }
  - { offsetInCU: 0x19D06, offset: 0x19D06, size: 0x8, addend: 0x0, symName: __ZN6Vertex7findManEi, symObjAddr: 0x36C4, symBinAddr: 0x100006E54, symSize: 0xA8 }
  - { offsetInCU: 0x19D56, offset: 0x19D56, size: 0x8, addend: 0x0, symName: __ZN6Vertex7Man_DisEi, symObjAddr: 0x376C, symBinAddr: 0x100006EFC, symSize: 0x4C }
  - { offsetInCU: 0x19D98, offset: 0x19D98, size: 0x8, addend: 0x0, symName: __ZNSt3__16vectorIP5OrderNS_9allocatorIS2_EEE9push_backB8ue170006ERKS2_, symObjAddr: 0x37B8, symBinAddr: 0x100006F48, symSize: 0x6C }
  - { offsetInCU: 0x19DCF, offset: 0x19DCF, size: 0x8, addend: 0x0, symName: __ZNKSt3__16vectorIP5OrderNS_9allocatorIS2_EEE4sizeB8ue170006Ev, symObjAddr: 0x3824, symBinAddr: 0x100006FB4, symSize: 0x28 }
  - { offsetInCU: 0x19DF5, offset: 0x19DF5, size: 0x8, addend: 0x0, symName: __ZN5GraphD2Ev, symObjAddr: 0x384C, symBinAddr: 0x100006FDC, symSize: 0x108 }
  - { offsetInCU: 0x19E21, offset: 0x19E21, size: 0x8, addend: 0x0, symName: __ZN6VertexC2Eii, symObjAddr: 0x3954, symBinAddr: 0x1000070E4, symSize: 0x160 }
  - { offsetInCU: 0x19E7B, offset: 0x19E7B, size: 0x8, addend: 0x0, symName: __ZNSt3__16vectorINS_4pairIP6VertexP4EdgeEENS_9allocatorIS6_EEEC1B8ue170006Ev, symObjAddr: 0x3AB4, symBinAddr: 0x100007244, symSize: 0x2C }
  - { offsetInCU: 0x19EA5, offset: 0x19EA5, size: 0x8, addend: 0x0, symName: __ZNSt3__16vectorINS_4pairIP6VertexP4EdgeEENS_9allocatorIS6_EEED1B8ue170006Ev, symObjAddr: 0x3AE0, symBinAddr: 0x100007270, symSize: 0x2C }
  - { offsetInCU: 0x19ECF, offset: 0x19ECF, size: 0x8, addend: 0x0, symName: __ZNSt3__16vectorINS_4pairIP6VertexP4EdgeEENS_9allocatorIS6_EEEC2B8ue170006Ev, symObjAddr: 0x3B0C, symBinAddr: 0x10000729C, symSize: 0x44 }
  - { offsetInCU: 0x19F05, offset: 0x19F05, size: 0x8, addend: 0x0, symName: __ZNSt3__117__compressed_pairIPNS_4pairIP6VertexP4EdgeEENS_9allocatorIS6_EEEC1B8ue170006IDnNS_18__default_init_tagEEEOT_OT0_, symObjAddr: 0x3B50, symBinAddr: 0x1000072E0, symSize: 0x3C }
  - { offsetInCU: 0x19F5D, offset: 0x19F5D, size: 0x8, addend: 0x0, symName: __ZNSt3__117__compressed_pairIPNS_4pairIP6VertexP4EdgeEENS_9allocatorIS6_EEEC2B8ue170006IDnNS_18__default_init_tagEEEOT_OT0_, symObjAddr: 0x3B8C, symBinAddr: 0x10000731C, symSize: 0x40 }
  - { offsetInCU: 0x19FB5, offset: 0x19FB5, size: 0x8, addend: 0x0, symName: __ZNSt3__122__compressed_pair_elemIPNS_4pairIP6VertexP4EdgeEELi0ELb0EEC2B8ue170006IDnvEEOT_, symObjAddr: 0x3BCC, symBinAddr: 0x10000735C, symSize: 0x1C }
  - { offsetInCU: 0x19FF7, offset: 0x19FF7, size: 0x8, addend: 0x0, symName: __ZNSt3__122__compressed_pair_elemINS_9allocatorINS_4pairIP6VertexP4EdgeEEEELi1ELb1EEC2B8ue170006ENS_18__default_init_tagE, symObjAddr: 0x3BE8, symBinAddr: 0x100007378, symSize: 0x2C }
  - { offsetInCU: 0x1A02C, offset: 0x1A02C, size: 0x8, addend: 0x0, symName: __ZNSt3__19allocatorINS_4pairIP6VertexP4EdgeEEEC2B8ue170006Ev, symObjAddr: 0x3C14, symBinAddr: 0x1000073A4, symSize: 0x2C }
  - { offsetInCU: 0x1A056, offset: 0x1A056, size: 0x8, addend: 0x0, symName: __ZNSt3__116__non_trivial_ifILb1ENS_9allocatorINS_4pairIP6VertexP4EdgeEEEEEC2B8ue170006Ev, symObjAddr: 0x3C40, symBinAddr: 0x1000073D0, symSize: 0x14 }
  - { offsetInCU: 0x1A080, offset: 0x1A080, size: 0x8, addend: 0x0, symName: __ZNSt3__16vectorINS_4pairIP6VertexP4EdgeEENS_9allocatorIS6_EEED2B8ue170006Ev, symObjAddr: 0x3C54, symBinAddr: 0x1000073E4, symSize: 0x3C }
  - { offsetInCU: 0x1A0AA, offset: 0x1A0AA, size: 0x8, addend: 0x0, symName: __ZNSt3__16vectorINS_4pairIP6VertexP4EdgeEENS_9allocatorIS6_EEE16__destroy_vectorC1B8ue170006ERS9_, symObjAddr: 0x3C90, symBinAddr: 0x100007420, symSize: 0x34 }
  - { offsetInCU: 0x1A0E3, offset: 0x1A0E3, size: 0x8, addend: 0x0, symName: __ZNSt3__16vectorINS_4pairIP6VertexP4EdgeEENS_9allocatorIS6_EEE16__destroy_vectorclB8ue170006Ev, symObjAddr: 0x3CC4, symBinAddr: 0x100007454, symSize: 0x90 }
  - { offsetInCU: 0x1A109, offset: 0x1A109, size: 0x8, addend: 0x0, symName: __ZNSt3__16vectorINS_4pairIP6VertexP4EdgeEENS_9allocatorIS6_EEE16__destroy_vectorC2B8ue170006ERS9_, symObjAddr: 0x3D54, symBinAddr: 0x1000074E4, symSize: 0x20 }
  - { offsetInCU: 0x1A142, offset: 0x1A142, size: 0x8, addend: 0x0, symName: __ZNSt3__16vectorINS_4pairIP6VertexP4EdgeEENS_9allocatorIS6_EEE7__clearB8ue170006Ev, symObjAddr: 0x3D74, symBinAddr: 0x100007504, symSize: 0x28 }
  - { offsetInCU: 0x1A168, offset: 0x1A168, size: 0x8, addend: 0x0, symName: __ZNKSt3__16vectorINS_4pairIP6VertexP4EdgeEENS_9allocatorIS6_EEE17__annotate_deleteB8ue170006Ev, symObjAddr: 0x3D9C, symBinAddr: 0x10000752C, symSize: 0xB8 }
  - { offsetInCU: 0x1A18E, offset: 0x1A18E, size: 0x8, addend: 0x0, symName: __ZNSt3__116allocator_traitsINS_9allocatorINS_4pairIP6VertexP4EdgeEEEEE10deallocateB8ue170006ERS8_PS7_m, symObjAddr: 0x3E54, symBinAddr: 0x1000075E4, symSize: 0x34 }
  - { offsetInCU: 0x1A1D0, offset: 0x1A1D0, size: 0x8, addend: 0x0, symName: __ZNSt3__16vectorINS_4pairIP6VertexP4EdgeEENS_9allocatorIS6_EEE7__allocB8ue170006Ev, symObjAddr: 0x3E88, symBinAddr: 0x100007618, symSize: 0x28 }
  - { offsetInCU: 0x1A1F6, offset: 0x1A1F6, size: 0x8, addend: 0x0, symName: __ZNKSt3__16vectorINS_4pairIP6VertexP4EdgeEENS_9allocatorIS6_EEE8capacityB8ue170006Ev, symObjAddr: 0x3EB0, symBinAddr: 0x100007640, symSize: 0x40 }
  - { offsetInCU: 0x1A21C, offset: 0x1A21C, size: 0x8, addend: 0x0, symName: __ZNSt3__16vectorINS_4pairIP6VertexP4EdgeEENS_9allocatorIS6_EEE22__base_destruct_at_endB8ue170006EPS6_, symObjAddr: 0x3EF0, symBinAddr: 0x100007680, symSize: 0xA0 }
  - { offsetInCU: 0x1A260, offset: 0x1A260, size: 0x8, addend: 0x0, symName: __ZNSt3__116allocator_traitsINS_9allocatorINS_4pairIP6VertexP4EdgeEEEEE7destroyB8ue170006IS7_vEEvRS8_PT_, symObjAddr: 0x3F90, symBinAddr: 0x100007720, symSize: 0x2C }
  - { offsetInCU: 0x1A29D, offset: 0x1A29D, size: 0x8, addend: 0x0, symName: __ZNSt3__19allocatorINS_4pairIP6VertexP4EdgeEEE7destroyB8ue170006EPS6_, symObjAddr: 0x3FD0, symBinAddr: 0x100007760, symSize: 0x14 }
  - { offsetInCU: 0x1A2D1, offset: 0x1A2D1, size: 0x8, addend: 0x0, symName: __ZNKSt3__16vectorINS_4pairIP6VertexP4EdgeEENS_9allocatorIS6_EEE31__annotate_contiguous_containerB8ue170006EPKvSB_SB_SB_, symObjAddr: 0x3FE4, symBinAddr: 0x100007774, symSize: 0x20 }
  - { offsetInCU: 0x1A323, offset: 0x1A323, size: 0x8, addend: 0x0, symName: __ZNKSt3__16vectorINS_4pairIP6VertexP4EdgeEENS_9allocatorIS6_EEE4dataB8ue170006Ev, symObjAddr: 0x4004, symBinAddr: 0x100007794, symSize: 0x28 }
  - { offsetInCU: 0x1A349, offset: 0x1A349, size: 0x8, addend: 0x0, symName: __ZNSt3__19allocatorINS_4pairIP6VertexP4EdgeEEE10deallocateB8ue170006EPS6_m, symObjAddr: 0x402C, symBinAddr: 0x1000077BC, symSize: 0x70 }
  - { offsetInCU: 0x1A38B, offset: 0x1A38B, size: 0x8, addend: 0x0, symName: __ZNSt3__117__compressed_pairIPNS_4pairIP6VertexP4EdgeEENS_9allocatorIS6_EEE6secondB8ue170006Ev, symObjAddr: 0x4124, symBinAddr: 0x1000078B4, symSize: 0x24 }
  - { offsetInCU: 0x1A3B1, offset: 0x1A3B1, size: 0x8, addend: 0x0, symName: __ZNSt3__122__compressed_pair_elemINS_9allocatorINS_4pairIP6VertexP4EdgeEEEELi1ELb1EE5__getB8ue170006Ev, symObjAddr: 0x4148, symBinAddr: 0x1000078D8, symSize: 0x14 }
  - { offsetInCU: 0x1A3D7, offset: 0x1A3D7, size: 0x8, addend: 0x0, symName: __ZNKSt3__16vectorINS_4pairIP6VertexP4EdgeEENS_9allocatorIS6_EEE9__end_capB8ue170006Ev, symObjAddr: 0x415C, symBinAddr: 0x1000078EC, symSize: 0x28 }
  - { offsetInCU: 0x1A3FD, offset: 0x1A3FD, size: 0x8, addend: 0x0, symName: __ZNKSt3__117__compressed_pairIPNS_4pairIP6VertexP4EdgeEENS_9allocatorIS6_EEE5firstB8ue170006Ev, symObjAddr: 0x4184, symBinAddr: 0x100007914, symSize: 0x24 }
  - { offsetInCU: 0x1A423, offset: 0x1A423, size: 0x8, addend: 0x0, symName: __ZNKSt3__122__compressed_pair_elemIPNS_4pairIP6VertexP4EdgeEELi0ELb0EE5__getB8ue170006Ev, symObjAddr: 0x41A8, symBinAddr: 0x100007938, symSize: 0x14 }
  - { offsetInCU: 0x1A449, offset: 0x1A449, size: 0x8, addend: 0x0, symName: __ZN4EdgeC2Eiiii, symObjAddr: 0x41BC, symBinAddr: 0x10000794C, symSize: 0x44 }
  - { offsetInCU: 0x1A4AB, offset: 0x1A4AB, size: 0x8, addend: 0x0, symName: __ZN8DeliveryC2Ei, symObjAddr: 0x4200, symBinAddr: 0x100007990, symSize: 0x2C }
  - { offsetInCU: 0x1A4E3, offset: 0x1A4E3, size: 0x8, addend: 0x0, symName: __ZNSt3__114priority_queueINS_4pairIiiEENS_6vectorIS2_NS_9allocatorIS2_EEEENS_7greaterIS2_EEED2Ev, symObjAddr: 0x422C, symBinAddr: 0x1000079BC, symSize: 0x2C }
  - { offsetInCU: 0x1A510, offset: 0x1A510, size: 0x8, addend: 0x0, symName: __ZN5OrderC2Eiii, symObjAddr: 0x4258, symBinAddr: 0x1000079E8, symSize: 0x58 }
  - { offsetInCU: 0x1A564, offset: 0x1A564, size: 0x8, addend: 0x0, symName: __ZNSt3__112basic_stringIcNS_11char_traitsIcEENS_9allocatorIcEEEC2B8ue170006ILi0EEEPKc, symObjAddr: 0x42B0, symBinAddr: 0x100007A40, symSize: 0x58 }
  - { offsetInCU: 0x1A5A3, offset: 0x1A5A3, size: 0x8, addend: 0x0, symName: __ZNSt3__117__compressed_pairINS_12basic_stringIcNS_11char_traitsIcEENS_9allocatorIcEEE5__repES5_EC1B8ue170006INS_18__default_init_tagESA_EEOT_OT0_, symObjAddr: 0x4308, symBinAddr: 0x100007A98, symSize: 0x3C }
  - { offsetInCU: 0x1A5FB, offset: 0x1A5FB, size: 0x8, addend: 0x0, symName: __ZNSt3__111char_traitsIcE6lengthB8ue170006EPKc, symObjAddr: 0x4344, symBinAddr: 0x100007AD4, symSize: 0x48 }
  - { offsetInCU: 0x1A61E, offset: 0x1A61E, size: 0x8, addend: 0x0, symName: __ZNSt3__117__compressed_pairINS_12basic_stringIcNS_11char_traitsIcEENS_9allocatorIcEEE5__repES5_EC2B8ue170006INS_18__default_init_tagESA_EEOT_OT0_, symObjAddr: 0x438C, symBinAddr: 0x100007B1C, symSize: 0x3C }
  - { offsetInCU: 0x1A676, offset: 0x1A676, size: 0x8, addend: 0x0, symName: __ZNSt3__122__compressed_pair_elemINS_12basic_stringIcNS_11char_traitsIcEENS_9allocatorIcEEE5__repELi0ELb0EEC2B8ue170006ENS_18__default_init_tagE, symObjAddr: 0x43C8, symBinAddr: 0x100007B58, symSize: 0x14 }
  - { offsetInCU: 0x1A6AB, offset: 0x1A6AB, size: 0x8, addend: 0x0, symName: __ZNSt3__122__compressed_pair_elemINS_9allocatorIcEELi1ELb1EEC2B8ue170006ENS_18__default_init_tagE, symObjAddr: 0x43DC, symBinAddr: 0x100007B6C, symSize: 0x2C }
  - { offsetInCU: 0x1A6E0, offset: 0x1A6E0, size: 0x8, addend: 0x0, symName: __ZNSt3__19allocatorIcEC2B8ue170006Ev, symObjAddr: 0x4408, symBinAddr: 0x100007B98, symSize: 0x2C }
  - { offsetInCU: 0x1A70A, offset: 0x1A70A, size: 0x8, addend: 0x0, symName: __ZNSt3__116__non_trivial_ifILb1ENS_9allocatorIcEEEC2B8ue170006Ev, symObjAddr: 0x4434, symBinAddr: 0x100007BC4, symSize: 0x14 }
  - { offsetInCU: 0x1A734, offset: 0x1A734, size: 0x8, addend: 0x0, symName: __ZNSt3__16vectorIP4EdgeNS_9allocatorIS2_EEEC2B8ue170006Ev, symObjAddr: 0x446C, symBinAddr: 0x100007BFC, symSize: 0x44 }
  - { offsetInCU: 0x1A75E, offset: 0x1A75E, size: 0x8, addend: 0x0, symName: __ZNSt3__117__compressed_pairIPP4EdgeNS_9allocatorIS2_EEEC1B8ue170006IDnNS_18__default_init_tagEEEOT_OT0_, symObjAddr: 0x44B0, symBinAddr: 0x100007C40, symSize: 0x3C }
  - { offsetInCU: 0x1A7B6, offset: 0x1A7B6, size: 0x8, addend: 0x0, symName: __ZNSt3__117__compressed_pairIPP4EdgeNS_9allocatorIS2_EEEC2B8ue170006IDnNS_18__default_init_tagEEEOT_OT0_, symObjAddr: 0x44EC, symBinAddr: 0x100007C7C, symSize: 0x40 }
  - { offsetInCU: 0x1A80E, offset: 0x1A80E, size: 0x8, addend: 0x0, symName: __ZNSt3__122__compressed_pair_elemIPP4EdgeLi0ELb0EEC2B8ue170006IDnvEEOT_, symObjAddr: 0x452C, symBinAddr: 0x100007CBC, symSize: 0x1C }
  - { offsetInCU: 0x1A850, offset: 0x1A850, size: 0x8, addend: 0x0, symName: __ZNSt3__122__compressed_pair_elemINS_9allocatorIP4EdgeEELi1ELb1EEC2B8ue170006ENS_18__default_init_tagE, symObjAddr: 0x4548, symBinAddr: 0x100007CD8, symSize: 0x2C }
  - { offsetInCU: 0x1A885, offset: 0x1A885, size: 0x8, addend: 0x0, symName: __ZNSt3__19allocatorIP4EdgeEC2B8ue170006Ev, symObjAddr: 0x4574, symBinAddr: 0x100007D04, symSize: 0x2C }
  - { offsetInCU: 0x1A8AF, offset: 0x1A8AF, size: 0x8, addend: 0x0, symName: __ZNSt3__116__non_trivial_ifILb1ENS_9allocatorIP4EdgeEEEC2B8ue170006Ev, symObjAddr: 0x45A0, symBinAddr: 0x100007D30, symSize: 0x14 }
  - { offsetInCU: 0x1A8D9, offset: 0x1A8D9, size: 0x8, addend: 0x0, symName: __ZNSt3__16vectorIP4EdgeNS_9allocatorIS2_EEED2B8ue170006Ev, symObjAddr: 0x45B4, symBinAddr: 0x100007D44, symSize: 0x3C }
  - { offsetInCU: 0x1A903, offset: 0x1A903, size: 0x8, addend: 0x0, symName: __ZNSt3__16vectorIP4EdgeNS_9allocatorIS2_EEE16__destroy_vectorC1B8ue170006ERS5_, symObjAddr: 0x45F0, symBinAddr: 0x100007D80, symSize: 0x34 }
  - { offsetInCU: 0x1A93C, offset: 0x1A93C, size: 0x8, addend: 0x0, symName: __ZNSt3__16vectorIP4EdgeNS_9allocatorIS2_EEE16__destroy_vectorclB8ue170006Ev, symObjAddr: 0x4624, symBinAddr: 0x100007DB4, symSize: 0x90 }
  - { offsetInCU: 0x1A962, offset: 0x1A962, size: 0x8, addend: 0x0, symName: __ZNSt3__16vectorIP4EdgeNS_9allocatorIS2_EEE16__destroy_vectorC2B8ue170006ERS5_, symObjAddr: 0x46B4, symBinAddr: 0x100007E44, symSize: 0x20 }
  - { offsetInCU: 0x1A99B, offset: 0x1A99B, size: 0x8, addend: 0x0, symName: __ZNSt3__16vectorIP4EdgeNS_9allocatorIS2_EEE7__clearB8ue170006Ev, symObjAddr: 0x46D4, symBinAddr: 0x100007E64, symSize: 0x28 }
  - { offsetInCU: 0x1A9C1, offset: 0x1A9C1, size: 0x8, addend: 0x0, symName: __ZNKSt3__16vectorIP4EdgeNS_9allocatorIS2_EEE17__annotate_deleteB8ue170006Ev, symObjAddr: 0x46FC, symBinAddr: 0x100007E8C, symSize: 0xB8 }
  - { offsetInCU: 0x1A9E7, offset: 0x1A9E7, size: 0x8, addend: 0x0, symName: __ZNSt3__116allocator_traitsINS_9allocatorIP4EdgeEEE10deallocateB8ue170006ERS4_PS3_m, symObjAddr: 0x47B4, symBinAddr: 0x100007F44, symSize: 0x34 }
  - { offsetInCU: 0x1AA29, offset: 0x1AA29, size: 0x8, addend: 0x0, symName: __ZNSt3__16vectorIP4EdgeNS_9allocatorIS2_EEE7__allocB8ue170006Ev, symObjAddr: 0x47E8, symBinAddr: 0x100007F78, symSize: 0x28 }
  - { offsetInCU: 0x1AA4F, offset: 0x1AA4F, size: 0x8, addend: 0x0, symName: __ZNKSt3__16vectorIP4EdgeNS_9allocatorIS2_EEE8capacityB8ue170006Ev, symObjAddr: 0x4810, symBinAddr: 0x100007FA0, symSize: 0x40 }
  - { offsetInCU: 0x1AA75, offset: 0x1AA75, size: 0x8, addend: 0x0, symName: __ZNSt3__16vectorIP4EdgeNS_9allocatorIS2_EEE22__base_destruct_at_endB8ue170006EPS2_, symObjAddr: 0x4850, symBinAddr: 0x100007FE0, symSize: 0xA0 }
  - { offsetInCU: 0x1AAB9, offset: 0x1AAB9, size: 0x8, addend: 0x0, symName: __ZNSt3__116allocator_traitsINS_9allocatorIP4EdgeEEE7destroyB8ue170006IS3_vEEvRS4_PT_, symObjAddr: 0x48F0, symBinAddr: 0x100008080, symSize: 0x2C }
  - { offsetInCU: 0x1AAF6, offset: 0x1AAF6, size: 0x8, addend: 0x0, symName: __ZNSt3__19allocatorIP4EdgeE7destroyB8ue170006EPS2_, symObjAddr: 0x4930, symBinAddr: 0x1000080C0, symSize: 0x14 }
  - { offsetInCU: 0x1AB2A, offset: 0x1AB2A, size: 0x8, addend: 0x0, symName: __ZNKSt3__16vectorIP4EdgeNS_9allocatorIS2_EEE31__annotate_contiguous_containerB8ue170006EPKvS7_S7_S7_, symObjAddr: 0x4944, symBinAddr: 0x1000080D4, symSize: 0x20 }
  - { offsetInCU: 0x1AB7C, offset: 0x1AB7C, size: 0x8, addend: 0x0, symName: __ZNKSt3__16vectorIP4EdgeNS_9allocatorIS2_EEE4dataB8ue170006Ev, symObjAddr: 0x4964, symBinAddr: 0x1000080F4, symSize: 0x28 }
  - { offsetInCU: 0x1ABA2, offset: 0x1ABA2, size: 0x8, addend: 0x0, symName: __ZNSt3__19allocatorIP4EdgeE10deallocateB8ue170006EPS2_m, symObjAddr: 0x498C, symBinAddr: 0x10000811C, symSize: 0x70 }
  - { offsetInCU: 0x1ABE4, offset: 0x1ABE4, size: 0x8, addend: 0x0, symName: __ZNSt3__117__compressed_pairIPP4EdgeNS_9allocatorIS2_EEE6secondB8ue170006Ev, symObjAddr: 0x49FC, symBinAddr: 0x10000818C, symSize: 0x24 }
  - { offsetInCU: 0x1AC0A, offset: 0x1AC0A, size: 0x8, addend: 0x0, symName: __ZNSt3__122__compressed_pair_elemINS_9allocatorIP4EdgeEELi1ELb1EE5__getB8ue170006Ev, symObjAddr: 0x4A20, symBinAddr: 0x1000081B0, symSize: 0x14 }
  - { offsetInCU: 0x1AC30, offset: 0x1AC30, size: 0x8, addend: 0x0, symName: __ZNKSt3__16vectorIP4EdgeNS_9allocatorIS2_EEE9__end_capB8ue170006Ev, symObjAddr: 0x4A34, symBinAddr: 0x1000081C4, symSize: 0x28 }
  - { offsetInCU: 0x1AC56, offset: 0x1AC56, size: 0x8, addend: 0x0, symName: __ZNKSt3__117__compressed_pairIPP4EdgeNS_9allocatorIS2_EEE5firstB8ue170006Ev, symObjAddr: 0x4A5C, symBinAddr: 0x1000081EC, symSize: 0x24 }
  - { offsetInCU: 0x1AC7C, offset: 0x1AC7C, size: 0x8, addend: 0x0, symName: __ZNKSt3__122__compressed_pair_elemIPP4EdgeLi0ELb0EE5__getB8ue170006Ev, symObjAddr: 0x4A80, symBinAddr: 0x100008210, symSize: 0x14 }
  - { offsetInCU: 0x1ACA2, offset: 0x1ACA2, size: 0x8, addend: 0x0, symName: __ZNSt3__16vectorIP8DeliveryNS_9allocatorIS2_EEEC2B8ue170006Ev, symObjAddr: 0x4A94, symBinAddr: 0x100008224, symSize: 0x44 }
  - { offsetInCU: 0x1ACCC, offset: 0x1ACCC, size: 0x8, addend: 0x0, symName: __ZNSt3__117__compressed_pairIPP8DeliveryNS_9allocatorIS2_EEEC1B8ue170006IDnNS_18__default_init_tagEEEOT_OT0_, symObjAddr: 0x4AD8, symBinAddr: 0x100008268, symSize: 0x3C }
  - { offsetInCU: 0x1AD24, offset: 0x1AD24, size: 0x8, addend: 0x0, symName: __ZNSt3__117__compressed_pairIPP8DeliveryNS_9allocatorIS2_EEEC2B8ue170006IDnNS_18__default_init_tagEEEOT_OT0_, symObjAddr: 0x4B14, symBinAddr: 0x1000082A4, symSize: 0x40 }
  - { offsetInCU: 0x1AD7C, offset: 0x1AD7C, size: 0x8, addend: 0x0, symName: __ZNSt3__122__compressed_pair_elemIPP8DeliveryLi0ELb0EEC2B8ue170006IDnvEEOT_, symObjAddr: 0x4B54, symBinAddr: 0x1000082E4, symSize: 0x1C }
  - { offsetInCU: 0x1ADBE, offset: 0x1ADBE, size: 0x8, addend: 0x0, symName: __ZNSt3__122__compressed_pair_elemINS_9allocatorIP8DeliveryEELi1ELb1EEC2B8ue170006ENS_18__default_init_tagE, symObjAddr: 0x4B70, symBinAddr: 0x100008300, symSize: 0x2C }
  - { offsetInCU: 0x1ADF3, offset: 0x1ADF3, size: 0x8, addend: 0x0, symName: __ZNSt3__19allocatorIP8DeliveryEC2B8ue170006Ev, symObjAddr: 0x4B9C, symBinAddr: 0x10000832C, symSize: 0x2C }
  - { offsetInCU: 0x1AE1D, offset: 0x1AE1D, size: 0x8, addend: 0x0, symName: __ZNSt3__116__non_trivial_ifILb1ENS_9allocatorIP8DeliveryEEEC2B8ue170006Ev, symObjAddr: 0x4BC8, symBinAddr: 0x100008358, symSize: 0x14 }
  - { offsetInCU: 0x1AE47, offset: 0x1AE47, size: 0x8, addend: 0x0, symName: __ZNSt3__16vectorIP8DeliveryNS_9allocatorIS2_EEED2B8ue170006Ev, symObjAddr: 0x4BDC, symBinAddr: 0x10000836C, symSize: 0x3C }
  - { offsetInCU: 0x1AE71, offset: 0x1AE71, size: 0x8, addend: 0x0, symName: __ZNSt3__16vectorIP8DeliveryNS_9allocatorIS2_EEE16__destroy_vectorC1B8ue170006ERS5_, symObjAddr: 0x4C18, symBinAddr: 0x1000083A8, symSize: 0x34 }
  - { offsetInCU: 0x1AEAA, offset: 0x1AEAA, size: 0x8, addend: 0x0, symName: __ZNSt3__16vectorIP8DeliveryNS_9allocatorIS2_EEE16__destroy_vectorclB8ue170006Ev, symObjAddr: 0x4C4C, symBinAddr: 0x1000083DC, symSize: 0x90 }
  - { offsetInCU: 0x1AED0, offset: 0x1AED0, size: 0x8, addend: 0x0, symName: __ZNSt3__16vectorIP8DeliveryNS_9allocatorIS2_EEE16__destroy_vectorC2B8ue170006ERS5_, symObjAddr: 0x4CDC, symBinAddr: 0x10000846C, symSize: 0x20 }
  - { offsetInCU: 0x1AF09, offset: 0x1AF09, size: 0x8, addend: 0x0, symName: __ZNSt3__16vectorIP8DeliveryNS_9allocatorIS2_EEE7__clearB8ue170006Ev, symObjAddr: 0x4CFC, symBinAddr: 0x10000848C, symSize: 0x28 }
  - { offsetInCU: 0x1AF2F, offset: 0x1AF2F, size: 0x8, addend: 0x0, symName: __ZNKSt3__16vectorIP8DeliveryNS_9allocatorIS2_EEE17__annotate_deleteB8ue170006Ev, symObjAddr: 0x4D24, symBinAddr: 0x1000084B4, symSize: 0xB8 }
  - { offsetInCU: 0x1AF55, offset: 0x1AF55, size: 0x8, addend: 0x0, symName: __ZNSt3__116allocator_traitsINS_9allocatorIP8DeliveryEEE10deallocateB8ue170006ERS4_PS3_m, symObjAddr: 0x4DDC, symBinAddr: 0x10000856C, symSize: 0x34 }
  - { offsetInCU: 0x1AF97, offset: 0x1AF97, size: 0x8, addend: 0x0, symName: __ZNSt3__16vectorIP8DeliveryNS_9allocatorIS2_EEE7__allocB8ue170006Ev, symObjAddr: 0x4E10, symBinAddr: 0x1000085A0, symSize: 0x28 }
  - { offsetInCU: 0x1AFBD, offset: 0x1AFBD, size: 0x8, addend: 0x0, symName: __ZNKSt3__16vectorIP8DeliveryNS_9allocatorIS2_EEE8capacityB8ue170006Ev, symObjAddr: 0x4E38, symBinAddr: 0x1000085C8, symSize: 0x40 }
  - { offsetInCU: 0x1AFE3, offset: 0x1AFE3, size: 0x8, addend: 0x0, symName: __ZNSt3__16vectorIP8DeliveryNS_9allocatorIS2_EEE22__base_destruct_at_endB8ue170006EPS2_, symObjAddr: 0x4E78, symBinAddr: 0x100008608, symSize: 0xA0 }
  - { offsetInCU: 0x1B027, offset: 0x1B027, size: 0x8, addend: 0x0, symName: __ZNSt3__116allocator_traitsINS_9allocatorIP8DeliveryEEE7destroyB8ue170006IS3_vEEvRS4_PT_, symObjAddr: 0x4F18, symBinAddr: 0x1000086A8, symSize: 0x2C }
  - { offsetInCU: 0x1B064, offset: 0x1B064, size: 0x8, addend: 0x0, symName: __ZNSt3__19allocatorIP8DeliveryE7destroyB8ue170006EPS2_, symObjAddr: 0x4F58, symBinAddr: 0x1000086E8, symSize: 0x14 }
  - { offsetInCU: 0x1B098, offset: 0x1B098, size: 0x8, addend: 0x0, symName: __ZNKSt3__16vectorIP8DeliveryNS_9allocatorIS2_EEE31__annotate_contiguous_containerB8ue170006EPKvS7_S7_S7_, symObjAddr: 0x4F6C, symBinAddr: 0x1000086FC, symSize: 0x20 }
  - { offsetInCU: 0x1B0EA, offset: 0x1B0EA, size: 0x8, addend: 0x0, symName: __ZNKSt3__16vectorIP8DeliveryNS_9allocatorIS2_EEE4dataB8ue170006Ev, symObjAddr: 0x4F8C, symBinAddr: 0x10000871C, symSize: 0x28 }
  - { offsetInCU: 0x1B110, offset: 0x1B110, size: 0x8, addend: 0x0, symName: __ZNKSt3__16vectorIP8DeliveryNS_9allocatorIS2_EEE4sizeB8ue170006Ev, symObjAddr: 0x4FB4, symBinAddr: 0x100008744, symSize: 0x28 }
  - { offsetInCU: 0x1B136, offset: 0x1B136, size: 0x8, addend: 0x0, symName: __ZNSt3__19allocatorIP8DeliveryE10deallocateB8ue170006EPS2_m, symObjAddr: 0x4FDC, symBinAddr: 0x10000876C, symSize: 0x70 }
  - { offsetInCU: 0x1B178, offset: 0x1B178, size: 0x8, addend: 0x0, symName: __ZNSt3__117__compressed_pairIPP8DeliveryNS_9allocatorIS2_EEE6secondB8ue170006Ev, symObjAddr: 0x504C, symBinAddr: 0x1000087DC, symSize: 0x24 }
  - { offsetInCU: 0x1B19E, offset: 0x1B19E, size: 0x8, addend: 0x0, symName: __ZNSt3__122__compressed_pair_elemINS_9allocatorIP8DeliveryEELi1ELb1EE5__getB8ue170006Ev, symObjAddr: 0x5070, symBinAddr: 0x100008800, symSize: 0x14 }
  - { offsetInCU: 0x1B1C4, offset: 0x1B1C4, size: 0x8, addend: 0x0, symName: __ZNKSt3__16vectorIP8DeliveryNS_9allocatorIS2_EEE9__end_capB8ue170006Ev, symObjAddr: 0x5084, symBinAddr: 0x100008814, symSize: 0x28 }
  - { offsetInCU: 0x1B1EA, offset: 0x1B1EA, size: 0x8, addend: 0x0, symName: __ZNKSt3__117__compressed_pairIPP8DeliveryNS_9allocatorIS2_EEE5firstB8ue170006Ev, symObjAddr: 0x50AC, symBinAddr: 0x10000883C, symSize: 0x24 }
  - { offsetInCU: 0x1B210, offset: 0x1B210, size: 0x8, addend: 0x0, symName: __ZNKSt3__122__compressed_pair_elemIPP8DeliveryLi0ELb0EE5__getB8ue170006Ev, symObjAddr: 0x50D0, symBinAddr: 0x100008860, symSize: 0x14 }
  - { offsetInCU: 0x1B236, offset: 0x1B236, size: 0x8, addend: 0x0, symName: __ZNSt3__16vectorIP8DeliveryNS_9allocatorIS2_EEE9__end_capB8ue170006Ev, symObjAddr: 0x50E4, symBinAddr: 0x100008874, symSize: 0x28 }
  - { offsetInCU: 0x1B262, offset: 0x1B262, size: 0x8, addend: 0x0, symName: __ZNSt3__16vectorIP8DeliveryNS_9allocatorIS2_EEE22__construct_one_at_endB8ue170006IJS2_EEEvDpOT_, symObjAddr: 0x510C, symBinAddr: 0x10000889C, symSize: 0x98 }
  - { offsetInCU: 0x1B2B1, offset: 0x1B2B1, size: 0x8, addend: 0x0, symName: __ZNSt3__16vectorIP8DeliveryNS_9allocatorIS2_EEE21__push_back_slow_pathIS2_EEvOT_, symObjAddr: 0x51A4, symBinAddr: 0x100008934, symSize: 0xE0 }
  - { offsetInCU: 0x1B30F, offset: 0x1B30F, size: 0x8, addend: 0x0, symName: __ZNSt3__117__compressed_pairIPP8DeliveryNS_9allocatorIS2_EEE5firstB8ue170006Ev, symObjAddr: 0x5284, symBinAddr: 0x100008A14, symSize: 0x24 }
  - { offsetInCU: 0x1B335, offset: 0x1B335, size: 0x8, addend: 0x0, symName: __ZNSt3__122__compressed_pair_elemIPP8DeliveryLi0ELb0EE5__getB8ue170006Ev, symObjAddr: 0x52A8, symBinAddr: 0x100008A38, symSize: 0x14 }
  - { offsetInCU: 0x1B374, offset: 0x1B374, size: 0x8, addend: 0x0, symName: __ZNSt3__16vectorIP8DeliveryNS_9allocatorIS2_EEE21_ConstructTransactionC1B8ue170006ERS5_m, symObjAddr: 0x52BC, symBinAddr: 0x100008A4C, symSize: 0x3C }
  - { offsetInCU: 0x1B3BC, offset: 0x1B3BC, size: 0x8, addend: 0x0, symName: __ZNSt3__116allocator_traitsINS_9allocatorIP8DeliveryEEE9constructB8ue170006IS3_JS3_EvEEvRS4_PT_DpOT0_, symObjAddr: 0x52F8, symBinAddr: 0x100008A88, symSize: 0x34 }
  - { offsetInCU: 0x1B413, offset: 0x1B413, size: 0x8, addend: 0x0, symName: __ZNSt3__16vectorIP8DeliveryNS_9allocatorIS2_EEE21_ConstructTransactionD1B8ue170006Ev, symObjAddr: 0x532C, symBinAddr: 0x100008ABC, symSize: 0x2C }
  - { offsetInCU: 0x1B43D, offset: 0x1B43D, size: 0x8, addend: 0x0, symName: __ZNSt3__16vectorIP8DeliveryNS_9allocatorIS2_EEE21_ConstructTransactionC2B8ue170006ERS5_m, symObjAddr: 0x5358, symBinAddr: 0x100008AE8, symSize: 0x44 }
  - { offsetInCU: 0x1B485, offset: 0x1B485, size: 0x8, addend: 0x0, symName: __ZNSt3__19allocatorIP8DeliveryE9constructB8ue170006IS2_JS2_EEEvPT_DpOT0_, symObjAddr: 0x539C, symBinAddr: 0x100008B2C, symSize: 0x28 }
  - { offsetInCU: 0x1B4DB, offset: 0x1B4DB, size: 0x8, addend: 0x0, symName: __ZNSt3__16vectorIP8DeliveryNS_9allocatorIS2_EEE21_ConstructTransactionD2B8ue170006Ev, symObjAddr: 0x53C4, symBinAddr: 0x100008B54, symSize: 0x20 }
  - { offsetInCU: 0x1B505, offset: 0x1B505, size: 0x8, addend: 0x0, symName: __ZNKSt3__16vectorIP8DeliveryNS_9allocatorIS2_EEE11__recommendB8ue170006Em, symObjAddr: 0x53E4, symBinAddr: 0x100008B74, symSize: 0xB4 }
  - { offsetInCU: 0x1B55A, offset: 0x1B55A, size: 0x8, addend: 0x0, symName: __ZNSt3__114__split_bufferIP8DeliveryRNS_9allocatorIS2_EEEC1EmmS5_, symObjAddr: 0x5498, symBinAddr: 0x100008C28, symSize: 0x44 }
  - { offsetInCU: 0x1B5B0, offset: 0x1B5B0, size: 0x8, addend: 0x0, symName: __ZNSt3__114__split_bufferIP8DeliveryRNS_9allocatorIS2_EEED1Ev, symObjAddr: 0x55EC, symBinAddr: 0x100008D7C, symSize: 0x2C }
  - { offsetInCU: 0x1B5DC, offset: 0x1B5DC, size: 0x8, addend: 0x0, symName: __ZNKSt3__16vectorIP8DeliveryNS_9allocatorIS2_EEE8max_sizeEv, symObjAddr: 0x5618, symBinAddr: 0x100008DA8, symSize: 0x74 }
  - { offsetInCU: 0x1B604, offset: 0x1B604, size: 0x8, addend: 0x0, symName: __ZNKSt3__16vectorIP8DeliveryNS_9allocatorIS2_EEE20__throw_length_errorB8ue170006Ev, symObjAddr: 0x568C, symBinAddr: 0x100008E1C, symSize: 0x1C }
  - { offsetInCU: 0x1B634, offset: 0x1B634, size: 0x8, addend: 0x0, symName: __ZNSt3__116allocator_traitsINS_9allocatorIP8DeliveryEEE8max_sizeB8ue170006IS4_vEEmRKS4_, symObjAddr: 0x5700, symBinAddr: 0x100008E90, symSize: 0x24 }
  - { offsetInCU: 0x1B662, offset: 0x1B662, size: 0x8, addend: 0x0, symName: __ZNKSt3__16vectorIP8DeliveryNS_9allocatorIS2_EEE7__allocB8ue170006Ev, symObjAddr: 0x5724, symBinAddr: 0x100008EB4, symSize: 0x28 }
  - { offsetInCU: 0x1B688, offset: 0x1B688, size: 0x8, addend: 0x0, symName: __ZNSt3__114numeric_limitsIlE3maxB8ue170006Ev, symObjAddr: 0x574C, symBinAddr: 0x100008EDC, symSize: 0x14 }
  - { offsetInCU: 0x1B6B0, offset: 0x1B6B0, size: 0x8, addend: 0x0, symName: __ZNKSt3__16__lessIvvEclB8ue170006ImmEEbRKT_RKT0_, symObjAddr: 0x57B4, symBinAddr: 0x100008F44, symSize: 0x34 }
  - { offsetInCU: 0x1B704, offset: 0x1B704, size: 0x8, addend: 0x0, symName: __ZNKSt3__19allocatorIP8DeliveryE8max_sizeB8ue170006Ev, symObjAddr: 0x57E8, symBinAddr: 0x100008F78, symSize: 0x14 }
  - { offsetInCU: 0x1B72A, offset: 0x1B72A, size: 0x8, addend: 0x0, symName: __ZNKSt3__117__compressed_pairIPP8DeliveryNS_9allocatorIS2_EEE6secondB8ue170006Ev, symObjAddr: 0x57FC, symBinAddr: 0x100008F8C, symSize: 0x24 }
  - { offsetInCU: 0x1B750, offset: 0x1B750, size: 0x8, addend: 0x0, symName: __ZNKSt3__122__compressed_pair_elemINS_9allocatorIP8DeliveryEELi1ELb1EE5__getB8ue170006Ev, symObjAddr: 0x5820, symBinAddr: 0x100008FB0, symSize: 0x14 }
  - { offsetInCU: 0x1B776, offset: 0x1B776, size: 0x8, addend: 0x0, symName: __ZNSt3__123__libcpp_numeric_limitsIlLb1EE3maxB8ue170006Ev, symObjAddr: 0x5834, symBinAddr: 0x100008FC4, symSize: 0x8 }
  - { offsetInCU: 0x1B78A, offset: 0x1B78A, size: 0x8, addend: 0x0, symName: __ZNSt12length_errorC1B8ue170006EPKc, symObjAddr: 0x58A0, symBinAddr: 0x100009030, symSize: 0x34 }
  - { offsetInCU: 0x1B7C2, offset: 0x1B7C2, size: 0x8, addend: 0x0, symName: __ZNSt12length_errorC2B8ue170006EPKc, symObjAddr: 0x58D4, symBinAddr: 0x100009064, symSize: 0x4C }
  - { offsetInCU: 0x1B7FA, offset: 0x1B7FA, size: 0x8, addend: 0x0, symName: __ZNSt3__114__split_bufferIP8DeliveryRNS_9allocatorIS2_EEEC2EmmS5_, symObjAddr: 0x5974, symBinAddr: 0x100009104, symSize: 0xD4 }
  - { offsetInCU: 0x1B86D, offset: 0x1B86D, size: 0x8, addend: 0x0, symName: __ZNSt3__117__compressed_pairIPP8DeliveryRNS_9allocatorIS2_EEEC1B8ue170006IDnS6_EEOT_OT0_, symObjAddr: 0x5A48, symBinAddr: 0x1000091D8, symSize: 0x3C }
  - { offsetInCU: 0x1B8C5, offset: 0x1B8C5, size: 0x8, addend: 0x0, symName: __ZNSt3__114__split_bufferIP8DeliveryRNS_9allocatorIS2_EEE7__allocB8ue170006Ev, symObjAddr: 0x5AC4, symBinAddr: 0x100009254, symSize: 0x28 }
  - { offsetInCU: 0x1B8EB, offset: 0x1B8EB, size: 0x8, addend: 0x0, symName: __ZNSt3__114__split_bufferIP8DeliveryRNS_9allocatorIS2_EEE9__end_capB8ue170006Ev, symObjAddr: 0x5AEC, symBinAddr: 0x10000927C, symSize: 0x28 }
  - { offsetInCU: 0x1B911, offset: 0x1B911, size: 0x8, addend: 0x0, symName: __ZNSt3__117__compressed_pairIPP8DeliveryRNS_9allocatorIS2_EEEC2B8ue170006IDnS6_EEOT_OT0_, symObjAddr: 0x5B14, symBinAddr: 0x1000092A4, symSize: 0x48 }
  - { offsetInCU: 0x1B969, offset: 0x1B969, size: 0x8, addend: 0x0, symName: __ZNSt3__122__compressed_pair_elemIRNS_9allocatorIP8DeliveryEELi1ELb0EEC2B8ue170006IS5_vEEOT_, symObjAddr: 0x5B5C, symBinAddr: 0x1000092EC, symSize: 0x20 }
  - { offsetInCU: 0x1B9AB, offset: 0x1B9AB, size: 0x8, addend: 0x0, symName: __ZNSt3__19allocatorIP8DeliveryE8allocateB8ue170006Em, symObjAddr: 0x5B7C, symBinAddr: 0x10000930C, symSize: 0x84 }
  - { offsetInCU: 0x1B9DF, offset: 0x1B9DF, size: 0x8, addend: 0x0, symName: __ZNSt3__117__compressed_pairIPP8DeliveryRNS_9allocatorIS2_EEE6secondB8ue170006Ev, symObjAddr: 0x5C80, symBinAddr: 0x100009410, symSize: 0x28 }
  - { offsetInCU: 0x1BA05, offset: 0x1BA05, size: 0x8, addend: 0x0, symName: __ZNSt3__122__compressed_pair_elemIRNS_9allocatorIP8DeliveryEELi1ELb0EE5__getB8ue170006Ev, symObjAddr: 0x5CA8, symBinAddr: 0x100009438, symSize: 0x18 }
  - { offsetInCU: 0x1BA2B, offset: 0x1BA2B, size: 0x8, addend: 0x0, symName: __ZNSt3__117__compressed_pairIPP8DeliveryRNS_9allocatorIS2_EEE5firstB8ue170006Ev, symObjAddr: 0x5CC0, symBinAddr: 0x100009450, symSize: 0x24 }
  - { offsetInCU: 0x1BA51, offset: 0x1BA51, size: 0x8, addend: 0x0, symName: __ZNSt3__116reverse_iteratorIPP8DeliveryEC1B8ue170006ES3_, symObjAddr: 0x5DCC, symBinAddr: 0x10000955C, symSize: 0x34 }
  - { offsetInCU: 0x1BA89, offset: 0x1BA89, size: 0x8, addend: 0x0, symName: __ZNKSt3__116reverse_iteratorIPP8DeliveryE4baseB8ue170006Ev, symObjAddr: 0x5E00, symBinAddr: 0x100009590, symSize: 0x18 }
  - { offsetInCU: 0x1BAAF, offset: 0x1BAAF, size: 0x8, addend: 0x0, symName: __ZNKSt3__16vectorIP8DeliveryNS_9allocatorIS2_EEE14__annotate_newB8ue170006Em, symObjAddr: 0x5E54, symBinAddr: 0x1000095E4, symSize: 0xAC }
  - { offsetInCU: 0x1BAE4, offset: 0x1BAE4, size: 0x8, addend: 0x0, symName: __ZNKSt3__116reverse_iteratorIPP8DeliveryEdeB8ue170006Ev, symObjAddr: 0x5F98, symBinAddr: 0x100009728, symSize: 0x28 }
  - { offsetInCU: 0x1BB18, offset: 0x1BB18, size: 0x8, addend: 0x0, symName: __ZNSt3__116reverse_iteratorIPP8DeliveryEppB8ue170006Ev, symObjAddr: 0x5FC0, symBinAddr: 0x100009750, symSize: 0x20 }
  - { offsetInCU: 0x1BB43, offset: 0x1BB43, size: 0x8, addend: 0x0, symName: __ZNSt3__119__to_address_helperINS_16reverse_iteratorIPP8DeliveryEEvE6__callB8ue170006ERKS5_, symObjAddr: 0x6058, symBinAddr: 0x1000097E8, symSize: 0x4C }
  - { offsetInCU: 0x1BB66, offset: 0x1BB66, size: 0x8, addend: 0x0, symName: __ZNKSt3__116reverse_iteratorIPP8DeliveryEptB8ue170006Ev, symObjAddr: 0x60A4, symBinAddr: 0x100009834, symSize: 0x24 }
  - { offsetInCU: 0x1BBB0, offset: 0x1BBB0, size: 0x8, addend: 0x0, symName: __ZNKSt3__111__move_loopINS_17_ClassicAlgPolicyEEclB8ue170006INS_16reverse_iteratorIPP8DeliveryEES8_S8_EENS_4pairIT_T1_EESA_T0_SB_, symObjAddr: 0x6340, symBinAddr: 0x100009AD0, symSize: 0xA0 }
  - { offsetInCU: 0x1BC1B, offset: 0x1BC1B, size: 0x8, addend: 0x0, symName: __ZNSt3__18_IterOpsINS_17_ClassicAlgPolicyEE11__iter_moveB8ue170006IRNS_16reverse_iteratorIPP8DeliveryEEEENS_9enable_ifIXsr12is_referenceIDTdeclsr3stdE7declvalIRT_EEEEE5valueEDTclsr3stdE4movedeclsr3stdE7declvalISC_EEEEE4typeEOSB_, symObjAddr: 0x6540, symBinAddr: 0x100009CD0, symSize: 0x28 }
  - { offsetInCU: 0x1BC47, offset: 0x1BC47, size: 0x8, addend: 0x0, symName: __ZNSt3__18_IterOpsINS_17_ClassicAlgPolicyEE25__validate_iter_referenceB8ue170006IRNS_16reverse_iteratorIPP8DeliveryEEEEvv, symObjAddr: 0x6568, symBinAddr: 0x100009CF8, symSize: 0x4 }
  - { offsetInCU: 0x1BC65, offset: 0x1BC65, size: 0x8, addend: 0x0, symName: __ZNSt3__118__unwrap_iter_implINS_16reverse_iteratorIPP8DeliveryEELb0EE8__unwrapB8ue170006ES5_, symObjAddr: 0x656C, symBinAddr: 0x100009CFC, symSize: 0x24 }
  - { offsetInCU: 0x1BC88, offset: 0x1BC88, size: 0x8, addend: 0x0, symName: __ZNSt3__14pairINS_16reverse_iteratorIPP8DeliveryEES5_EC1B8ue170006ERKS5_S8_, symObjAddr: 0x6590, symBinAddr: 0x100009D20, symSize: 0x3C }
  - { offsetInCU: 0x1BCCE, offset: 0x1BCCE, size: 0x8, addend: 0x0, symName: __ZNSt3__14pairINS_16reverse_iteratorIPP8DeliveryEES5_EC2B8ue170006ERKS5_S8_, symObjAddr: 0x65CC, symBinAddr: 0x100009D5C, symSize: 0x34 }
  - { offsetInCU: 0x1BD14, offset: 0x1BD14, size: 0x8, addend: 0x0, symName: __ZNSt3__118__unwrap_iter_implINS_16reverse_iteratorIPP8DeliveryEELb0EE8__rewrapB8ue170006ES5_S5_, symObjAddr: 0x6600, symBinAddr: 0x100009D90, symSize: 0x2C }
  - { offsetInCU: 0x1BD42, offset: 0x1BD42, size: 0x8, addend: 0x0, symName: __ZNSt3__116reverse_iteratorIPP8DeliveryEC2B8ue170006ES3_, symObjAddr: 0x662C, symBinAddr: 0x100009DBC, symSize: 0x28 }
  - { offsetInCU: 0x1BD7A, offset: 0x1BD7A, size: 0x8, addend: 0x0, symName: __ZNSt3__114__split_bufferIP8DeliveryRNS_9allocatorIS2_EEED2Ev, symObjAddr: 0x6654, symBinAddr: 0x100009DE4, symSize: 0x80 }
  - { offsetInCU: 0x1BDA6, offset: 0x1BDA6, size: 0x8, addend: 0x0, symName: __ZNSt3__114__split_bufferIP8DeliveryRNS_9allocatorIS2_EEE5clearB8ue170006Ev, symObjAddr: 0x66D4, symBinAddr: 0x100009E64, symSize: 0x28 }
  - { offsetInCU: 0x1BDCC, offset: 0x1BDCC, size: 0x8, addend: 0x0, symName: __ZNKSt3__114__split_bufferIP8DeliveryRNS_9allocatorIS2_EEE8capacityB8ue170006Ev, symObjAddr: 0x66FC, symBinAddr: 0x100009E8C, symSize: 0x40 }
  - { offsetInCU: 0x1BDF2, offset: 0x1BDF2, size: 0x8, addend: 0x0, symName: __ZNSt3__114__split_bufferIP8DeliveryRNS_9allocatorIS2_EEE17__destruct_at_endB8ue170006EPS2_, symObjAddr: 0x673C, symBinAddr: 0x100009ECC, symSize: 0x2C }
  - { offsetInCU: 0x1BE26, offset: 0x1BE26, size: 0x8, addend: 0x0, symName: __ZNSt3__114__split_bufferIP8DeliveryRNS_9allocatorIS2_EEE17__destruct_at_endB8ue170006EPS2_NS_17integral_constantIbLb0EEE, symObjAddr: 0x6768, symBinAddr: 0x100009EF8, symSize: 0x94 }
  - { offsetInCU: 0x1BE67, offset: 0x1BE67, size: 0x8, addend: 0x0, symName: __ZNKSt3__114__split_bufferIP8DeliveryRNS_9allocatorIS2_EEE9__end_capB8ue170006Ev, symObjAddr: 0x67FC, symBinAddr: 0x100009F8C, symSize: 0x28 }
  - { offsetInCU: 0x1BE8D, offset: 0x1BE8D, size: 0x8, addend: 0x0, symName: __ZNKSt3__117__compressed_pairIPP8DeliveryRNS_9allocatorIS2_EEE5firstB8ue170006Ev, symObjAddr: 0x6824, symBinAddr: 0x100009FB4, symSize: 0x24 }
  - { offsetInCU: 0x1BEB3, offset: 0x1BEB3, size: 0x8, addend: 0x0, symName: __ZNSt3__16vectorINS_4pairIP6VertexP4EdgeEENS_9allocatorIS6_EEE11__make_iterB8ue170006EPS6_, symObjAddr: 0x6848, symBinAddr: 0x100009FD8, symSize: 0x30 }
  - { offsetInCU: 0x1BEE8, offset: 0x1BEE8, size: 0x8, addend: 0x0, symName: __ZNSt3__111__wrap_iterIPNS_4pairIP6VertexP4EdgeEEEC1B8ue170006ES7_, symObjAddr: 0x6878, symBinAddr: 0x10000A008, symSize: 0x34 }
  - { offsetInCU: 0x1BF20, offset: 0x1BF20, size: 0x8, addend: 0x0, symName: __ZNSt3__111__wrap_iterIPNS_4pairIP6VertexP4EdgeEEEC2B8ue170006ES7_, symObjAddr: 0x68AC, symBinAddr: 0x10000A03C, symSize: 0x20 }
  - { offsetInCU: 0x1BF58, offset: 0x1BF58, size: 0x8, addend: 0x0, symName: __ZNKSt3__111__wrap_iterIPNS_4pairIP6VertexP4EdgeEEE4baseB8ue170006Ev, symObjAddr: 0x6914, symBinAddr: 0x10000A0A4, symSize: 0x18 }
  - { offsetInCU: 0x1BF7E, offset: 0x1BF7E, size: 0x8, addend: 0x0, symName: __ZNSt3__111__wrap_iterIPNS_4pairIP6VertexP4EdgeEEEppB8ue170006Ev, symObjAddr: 0x692C, symBinAddr: 0x10000A0BC, symSize: 0x20 }
  - { offsetInCU: 0x1BFA4, offset: 0x1BFA4, size: 0x8, addend: 0x0, symName: __ZNSt3__16vectorIP6VertexNS_9allocatorIS2_EEED2B8ue170006Ev, symObjAddr: 0x694C, symBinAddr: 0x10000A0DC, symSize: 0x3C }
  - { offsetInCU: 0x1BFCE, offset: 0x1BFCE, size: 0x8, addend: 0x0, symName: __ZNSt3__16vectorIP6VertexNS_9allocatorIS2_EEE16__destroy_vectorC1B8ue170006ERS5_, symObjAddr: 0x6988, symBinAddr: 0x10000A118, symSize: 0x34 }
  - { offsetInCU: 0x1C007, offset: 0x1C007, size: 0x8, addend: 0x0, symName: __ZNSt3__16vectorIP6VertexNS_9allocatorIS2_EEE16__destroy_vectorclB8ue170006Ev, symObjAddr: 0x69BC, symBinAddr: 0x10000A14C, symSize: 0x90 }
  - { offsetInCU: 0x1C02D, offset: 0x1C02D, size: 0x8, addend: 0x0, symName: __ZNSt3__16vectorIP6VertexNS_9allocatorIS2_EEE16__destroy_vectorC2B8ue170006ERS5_, symObjAddr: 0x6A4C, symBinAddr: 0x10000A1DC, symSize: 0x20 }
  - { offsetInCU: 0x1C066, offset: 0x1C066, size: 0x8, addend: 0x0, symName: __ZNSt3__16vectorIP6VertexNS_9allocatorIS2_EEE7__clearB8ue170006Ev, symObjAddr: 0x6A6C, symBinAddr: 0x10000A1FC, symSize: 0x28 }
  - { offsetInCU: 0x1C08C, offset: 0x1C08C, size: 0x8, addend: 0x0, symName: __ZNKSt3__16vectorIP6VertexNS_9allocatorIS2_EEE17__annotate_deleteB8ue170006Ev, symObjAddr: 0x6A94, symBinAddr: 0x10000A224, symSize: 0xB8 }
  - { offsetInCU: 0x1C0B2, offset: 0x1C0B2, size: 0x8, addend: 0x0, symName: __ZNSt3__116allocator_traitsINS_9allocatorIP6VertexEEE10deallocateB8ue170006ERS4_PS3_m, symObjAddr: 0x6B4C, symBinAddr: 0x10000A2DC, symSize: 0x34 }
  - { offsetInCU: 0x1C0F4, offset: 0x1C0F4, size: 0x8, addend: 0x0, symName: __ZNSt3__16vectorIP6VertexNS_9allocatorIS2_EEE7__allocB8ue170006Ev, symObjAddr: 0x6B80, symBinAddr: 0x10000A310, symSize: 0x28 }
  - { offsetInCU: 0x1C11A, offset: 0x1C11A, size: 0x8, addend: 0x0, symName: __ZNKSt3__16vectorIP6VertexNS_9allocatorIS2_EEE8capacityB8ue170006Ev, symObjAddr: 0x6BA8, symBinAddr: 0x10000A338, symSize: 0x40 }
  - { offsetInCU: 0x1C140, offset: 0x1C140, size: 0x8, addend: 0x0, symName: __ZNSt3__16vectorIP6VertexNS_9allocatorIS2_EEE22__base_destruct_at_endB8ue170006EPS2_, symObjAddr: 0x6BE8, symBinAddr: 0x10000A378, symSize: 0xA0 }
  - { offsetInCU: 0x1C184, offset: 0x1C184, size: 0x8, addend: 0x0, symName: __ZNSt3__116allocator_traitsINS_9allocatorIP6VertexEEE7destroyB8ue170006IS3_vEEvRS4_PT_, symObjAddr: 0x6C88, symBinAddr: 0x10000A418, symSize: 0x2C }
  - { offsetInCU: 0x1C1C1, offset: 0x1C1C1, size: 0x8, addend: 0x0, symName: __ZNSt3__19allocatorIP6VertexE7destroyB8ue170006EPS2_, symObjAddr: 0x6CC8, symBinAddr: 0x10000A458, symSize: 0x14 }
  - { offsetInCU: 0x1C1F5, offset: 0x1C1F5, size: 0x8, addend: 0x0, symName: __ZNKSt3__16vectorIP6VertexNS_9allocatorIS2_EEE31__annotate_contiguous_containerB8ue170006EPKvS7_S7_S7_, symObjAddr: 0x6CDC, symBinAddr: 0x10000A46C, symSize: 0x20 }
  - { offsetInCU: 0x1C247, offset: 0x1C247, size: 0x8, addend: 0x0, symName: __ZNKSt3__16vectorIP6VertexNS_9allocatorIS2_EEE4dataB8ue170006Ev, symObjAddr: 0x6CFC, symBinAddr: 0x10000A48C, symSize: 0x28 }
  - { offsetInCU: 0x1C26D, offset: 0x1C26D, size: 0x8, addend: 0x0, symName: __ZNKSt3__16vectorIP6VertexNS_9allocatorIS2_EEE4sizeB8ue170006Ev, symObjAddr: 0x6D24, symBinAddr: 0x10000A4B4, symSize: 0x28 }
  - { offsetInCU: 0x1C293, offset: 0x1C293, size: 0x8, addend: 0x0, symName: __ZNSt3__19allocatorIP6VertexE10deallocateB8ue170006EPS2_m, symObjAddr: 0x6D4C, symBinAddr: 0x10000A4DC, symSize: 0x70 }
  - { offsetInCU: 0x1C2D5, offset: 0x1C2D5, size: 0x8, addend: 0x0, symName: __ZNSt3__117__compressed_pairIPP6VertexNS_9allocatorIS2_EEE6secondB8ue170006Ev, symObjAddr: 0x6DBC, symBinAddr: 0x10000A54C, symSize: 0x24 }
  - { offsetInCU: 0x1C2FB, offset: 0x1C2FB, size: 0x8, addend: 0x0, symName: __ZNSt3__122__compressed_pair_elemINS_9allocatorIP6VertexEELi1ELb1EE5__getB8ue170006Ev, symObjAddr: 0x6DE0, symBinAddr: 0x10000A570, symSize: 0x14 }
  - { offsetInCU: 0x1C321, offset: 0x1C321, size: 0x8, addend: 0x0, symName: __ZNKSt3__16vectorIP6VertexNS_9allocatorIS2_EEE9__end_capB8ue170006Ev, symObjAddr: 0x6DF4, symBinAddr: 0x10000A584, symSize: 0x28 }
  - { offsetInCU: 0x1C347, offset: 0x1C347, size: 0x8, addend: 0x0, symName: __ZNKSt3__117__compressed_pairIPP6VertexNS_9allocatorIS2_EEE5firstB8ue170006Ev, symObjAddr: 0x6E1C, symBinAddr: 0x10000A5AC, symSize: 0x24 }
  - { offsetInCU: 0x1C36D, offset: 0x1C36D, size: 0x8, addend: 0x0, symName: __ZNKSt3__122__compressed_pair_elemIPP6VertexLi0ELb0EE5__getB8ue170006Ev, symObjAddr: 0x6E40, symBinAddr: 0x10000A5D0, symSize: 0x14 }
  - { offsetInCU: 0x1C393, offset: 0x1C393, size: 0x8, addend: 0x0, symName: __ZNSt3__16vectorIiNS_9allocatorIiEEED2B8ue170006Ev, symObjAddr: 0x6E54, symBinAddr: 0x10000A5E4, symSize: 0x3C }
  - { offsetInCU: 0x1C3BD, offset: 0x1C3BD, size: 0x8, addend: 0x0, symName: __ZNSt3__16vectorIiNS_9allocatorIiEEE16__destroy_vectorC1B8ue170006ERS3_, symObjAddr: 0x6E90, symBinAddr: 0x10000A620, symSize: 0x34 }
  - { offsetInCU: 0x1C3F6, offset: 0x1C3F6, size: 0x8, addend: 0x0, symName: __ZNSt3__16vectorIiNS_9allocatorIiEEE16__destroy_vectorclB8ue170006Ev, symObjAddr: 0x6EC4, symBinAddr: 0x10000A654, symSize: 0x90 }
  - { offsetInCU: 0x1C41C, offset: 0x1C41C, size: 0x8, addend: 0x0, symName: __ZNSt3__16vectorIiNS_9allocatorIiEEE16__destroy_vectorC2B8ue170006ERS3_, symObjAddr: 0x6F54, symBinAddr: 0x10000A6E4, symSize: 0x20 }
  - { offsetInCU: 0x1C455, offset: 0x1C455, size: 0x8, addend: 0x0, symName: __ZNSt3__16vectorIiNS_9allocatorIiEEE7__clearB8ue170006Ev, symObjAddr: 0x6F74, symBinAddr: 0x10000A704, symSize: 0x28 }
  - { offsetInCU: 0x1C47B, offset: 0x1C47B, size: 0x8, addend: 0x0, symName: __ZNKSt3__16vectorIiNS_9allocatorIiEEE17__annotate_deleteB8ue170006Ev, symObjAddr: 0x6F9C, symBinAddr: 0x10000A72C, symSize: 0xB8 }
  - { offsetInCU: 0x1C4A1, offset: 0x1C4A1, size: 0x8, addend: 0x0, symName: __ZNSt3__116allocator_traitsINS_9allocatorIiEEE10deallocateB8ue170006ERS2_Pim, symObjAddr: 0x7054, symBinAddr: 0x10000A7E4, symSize: 0x34 }
  - { offsetInCU: 0x1C4E3, offset: 0x1C4E3, size: 0x8, addend: 0x0, symName: __ZNSt3__16vectorIiNS_9allocatorIiEEE7__allocB8ue170006Ev, symObjAddr: 0x7088, symBinAddr: 0x10000A818, symSize: 0x28 }
  - { offsetInCU: 0x1C509, offset: 0x1C509, size: 0x8, addend: 0x0, symName: __ZNKSt3__16vectorIiNS_9allocatorIiEEE8capacityB8ue170006Ev, symObjAddr: 0x70B0, symBinAddr: 0x10000A840, symSize: 0x40 }
  - { offsetInCU: 0x1C52F, offset: 0x1C52F, size: 0x8, addend: 0x0, symName: __ZNSt3__16vectorIiNS_9allocatorIiEEE22__base_destruct_at_endB8ue170006EPi, symObjAddr: 0x70F0, symBinAddr: 0x10000A880, symSize: 0xA0 }
  - { offsetInCU: 0x1C573, offset: 0x1C573, size: 0x8, addend: 0x0, symName: __ZNSt3__116allocator_traitsINS_9allocatorIiEEE7destroyB8ue170006IivEEvRS2_PT_, symObjAddr: 0x7190, symBinAddr: 0x10000A920, symSize: 0x2C }
  - { offsetInCU: 0x1C5B0, offset: 0x1C5B0, size: 0x8, addend: 0x0, symName: __ZNSt3__19allocatorIiE7destroyB8ue170006EPi, symObjAddr: 0x71D0, symBinAddr: 0x10000A960, symSize: 0x14 }
  - { offsetInCU: 0x1C5E4, offset: 0x1C5E4, size: 0x8, addend: 0x0, symName: __ZNKSt3__16vectorIiNS_9allocatorIiEEE31__annotate_contiguous_containerB8ue170006EPKvS5_S5_S5_, symObjAddr: 0x71E4, symBinAddr: 0x10000A974, symSize: 0x20 }
  - { offsetInCU: 0x1C636, offset: 0x1C636, size: 0x8, addend: 0x0, symName: __ZNKSt3__16vectorIiNS_9allocatorIiEEE4dataB8ue170006Ev, symObjAddr: 0x7204, symBinAddr: 0x10000A994, symSize: 0x28 }
  - { offsetInCU: 0x1C65C, offset: 0x1C65C, size: 0x8, addend: 0x0, symName: __ZNKSt3__16vectorIiNS_9allocatorIiEEE4sizeB8ue170006Ev, symObjAddr: 0x722C, symBinAddr: 0x10000A9BC, symSize: 0x28 }
  - { offsetInCU: 0x1C682, offset: 0x1C682, size: 0x8, addend: 0x0, symName: __ZNSt3__19allocatorIiE10deallocateB8ue170006EPim, symObjAddr: 0x7254, symBinAddr: 0x10000A9E4, symSize: 0x70 }
  - { offsetInCU: 0x1C6C4, offset: 0x1C6C4, size: 0x8, addend: 0x0, symName: __ZNSt3__117__compressed_pairIPiNS_9allocatorIiEEE6secondB8ue170006Ev, symObjAddr: 0x72C4, symBinAddr: 0x10000AA54, symSize: 0x24 }
  - { offsetInCU: 0x1C6EA, offset: 0x1C6EA, size: 0x8, addend: 0x0, symName: __ZNSt3__122__compressed_pair_elemINS_9allocatorIiEELi1ELb1EE5__getB8ue170006Ev, symObjAddr: 0x72E8, symBinAddr: 0x10000AA78, symSize: 0x14 }
  - { offsetInCU: 0x1C710, offset: 0x1C710, size: 0x8, addend: 0x0, symName: __ZNKSt3__16vectorIiNS_9allocatorIiEEE9__end_capB8ue170006Ev, symObjAddr: 0x72FC, symBinAddr: 0x10000AA8C, symSize: 0x28 }
  - { offsetInCU: 0x1C736, offset: 0x1C736, size: 0x8, addend: 0x0, symName: __ZNKSt3__117__compressed_pairIPiNS_9allocatorIiEEE5firstB8ue170006Ev, symObjAddr: 0x7324, symBinAddr: 0x10000AAB4, symSize: 0x24 }
  - { offsetInCU: 0x1C75C, offset: 0x1C75C, size: 0x8, addend: 0x0, symName: __ZNKSt3__122__compressed_pair_elemIPiLi0ELb0EE5__getB8ue170006Ev, symObjAddr: 0x7348, symBinAddr: 0x10000AAD8, symSize: 0x14 }
  - { offsetInCU: 0x1C782, offset: 0x1C782, size: 0x8, addend: 0x0, symName: __ZNSt3__16vectorIP5OrderNS_9allocatorIS2_EEED2B8ue170006Ev, symObjAddr: 0x735C, symBinAddr: 0x10000AAEC, symSize: 0x3C }
  - { offsetInCU: 0x1C7AC, offset: 0x1C7AC, size: 0x8, addend: 0x0, symName: __ZNSt3__16vectorIP5OrderNS_9allocatorIS2_EEE16__destroy_vectorC1B8ue170006ERS5_, symObjAddr: 0x7398, symBinAddr: 0x10000AB28, symSize: 0x34 }
  - { offsetInCU: 0x1C7E5, offset: 0x1C7E5, size: 0x8, addend: 0x0, symName: __ZNSt3__16vectorIP5OrderNS_9allocatorIS2_EEE16__destroy_vectorclB8ue170006Ev, symObjAddr: 0x73CC, symBinAddr: 0x10000AB5C, symSize: 0x90 }
  - { offsetInCU: 0x1C80B, offset: 0x1C80B, size: 0x8, addend: 0x0, symName: __ZNSt3__16vectorIP5OrderNS_9allocatorIS2_EEE16__destroy_vectorC2B8ue170006ERS5_, symObjAddr: 0x745C, symBinAddr: 0x10000ABEC, symSize: 0x20 }
  - { offsetInCU: 0x1C844, offset: 0x1C844, size: 0x8, addend: 0x0, symName: __ZNSt3__16vectorIP5OrderNS_9allocatorIS2_EEE7__clearB8ue170006Ev, symObjAddr: 0x747C, symBinAddr: 0x10000AC0C, symSize: 0x28 }
  - { offsetInCU: 0x1C86A, offset: 0x1C86A, size: 0x8, addend: 0x0, symName: __ZNKSt3__16vectorIP5OrderNS_9allocatorIS2_EEE17__annotate_deleteB8ue170006Ev, symObjAddr: 0x74A4, symBinAddr: 0x10000AC34, symSize: 0xB8 }
  - { offsetInCU: 0x1C890, offset: 0x1C890, size: 0x8, addend: 0x0, symName: __ZNSt3__116allocator_traitsINS_9allocatorIP5OrderEEE10deallocateB8ue170006ERS4_PS3_m, symObjAddr: 0x755C, symBinAddr: 0x10000ACEC, symSize: 0x34 }
  - { offsetInCU: 0x1C8D2, offset: 0x1C8D2, size: 0x8, addend: 0x0, symName: __ZNSt3__16vectorIP5OrderNS_9allocatorIS2_EEE7__allocB8ue170006Ev, symObjAddr: 0x7590, symBinAddr: 0x10000AD20, symSize: 0x28 }
  - { offsetInCU: 0x1C8F8, offset: 0x1C8F8, size: 0x8, addend: 0x0, symName: __ZNKSt3__16vectorIP5OrderNS_9allocatorIS2_EEE8capacityB8ue170006Ev, symObjAddr: 0x75B8, symBinAddr: 0x10000AD48, symSize: 0x40 }
  - { offsetInCU: 0x1C91E, offset: 0x1C91E, size: 0x8, addend: 0x0, symName: __ZNSt3__16vectorIP5OrderNS_9allocatorIS2_EEE22__base_destruct_at_endB8ue170006EPS2_, symObjAddr: 0x75F8, symBinAddr: 0x10000AD88, symSize: 0xA0 }
  - { offsetInCU: 0x1C962, offset: 0x1C962, size: 0x8, addend: 0x0, symName: __ZNSt3__116allocator_traitsINS_9allocatorIP5OrderEEE7destroyB8ue170006IS3_vEEvRS4_PT_, symObjAddr: 0x7698, symBinAddr: 0x10000AE28, symSize: 0x2C }
  - { offsetInCU: 0x1C99F, offset: 0x1C99F, size: 0x8, addend: 0x0, symName: __ZNSt3__19allocatorIP5OrderE7destroyB8ue170006EPS2_, symObjAddr: 0x76D8, symBinAddr: 0x10000AE68, symSize: 0x14 }
  - { offsetInCU: 0x1C9D3, offset: 0x1C9D3, size: 0x8, addend: 0x0, symName: __ZNKSt3__16vectorIP5OrderNS_9allocatorIS2_EEE31__annotate_contiguous_containerB8ue170006EPKvS7_S7_S7_, symObjAddr: 0x76EC, symBinAddr: 0x10000AE7C, symSize: 0x20 }
  - { offsetInCU: 0x1CA25, offset: 0x1CA25, size: 0x8, addend: 0x0, symName: __ZNKSt3__16vectorIP5OrderNS_9allocatorIS2_EEE4dataB8ue170006Ev, symObjAddr: 0x770C, symBinAddr: 0x10000AE9C, symSize: 0x28 }
  - { offsetInCU: 0x1CA4B, offset: 0x1CA4B, size: 0x8, addend: 0x0, symName: __ZNSt3__19allocatorIP5OrderE10deallocateB8ue170006EPS2_m, symObjAddr: 0x7734, symBinAddr: 0x10000AEC4, symSize: 0x70 }
  - { offsetInCU: 0x1CA8D, offset: 0x1CA8D, size: 0x8, addend: 0x0, symName: __ZNSt3__117__compressed_pairIPP5OrderNS_9allocatorIS2_EEE6secondB8ue170006Ev, symObjAddr: 0x77A4, symBinAddr: 0x10000AF34, symSize: 0x24 }
  - { offsetInCU: 0x1CAB3, offset: 0x1CAB3, size: 0x8, addend: 0x0, symName: __ZNSt3__122__compressed_pair_elemINS_9allocatorIP5OrderEELi1ELb1EE5__getB8ue170006Ev, symObjAddr: 0x77C8, symBinAddr: 0x10000AF58, symSize: 0x14 }
  - { offsetInCU: 0x1CAD9, offset: 0x1CAD9, size: 0x8, addend: 0x0, symName: __ZNKSt3__16vectorIP5OrderNS_9allocatorIS2_EEE9__end_capB8ue170006Ev, symObjAddr: 0x77DC, symBinAddr: 0x10000AF6C, symSize: 0x28 }
  - { offsetInCU: 0x1CAFF, offset: 0x1CAFF, size: 0x8, addend: 0x0, symName: __ZNKSt3__117__compressed_pairIPP5OrderNS_9allocatorIS2_EEE5firstB8ue170006Ev, symObjAddr: 0x7804, symBinAddr: 0x10000AF94, symSize: 0x24 }
  - { offsetInCU: 0x1CB25, offset: 0x1CB25, size: 0x8, addend: 0x0, symName: __ZNKSt3__122__compressed_pair_elemIPP5OrderLi0ELb0EE5__getB8ue170006Ev, symObjAddr: 0x7828, symBinAddr: 0x10000AFB8, symSize: 0x14 }
  - { offsetInCU: 0x1CB4B, offset: 0x1CB4B, size: 0x8, addend: 0x0, symName: __ZNSt3__112basic_stringIcNS_11char_traitsIcEENS_9allocatorIcEEEC2B8ue170006Ev, symObjAddr: 0x783C, symBinAddr: 0x10000AFCC, symSize: 0x3C }
  - { offsetInCU: 0x1CB75, offset: 0x1CB75, size: 0x8, addend: 0x0, symName: __ZNSt3__112basic_stringIcNS_11char_traitsIcEENS_9allocatorIcEEE14__default_initB8ue170006Ev, symObjAddr: 0x7878, symBinAddr: 0x10000B008, symSize: 0xB0 }
  - { offsetInCU: 0x1CBC7, offset: 0x1CBC7, size: 0x8, addend: 0x0, symName: __ZNSt3__117__compressed_pairINS_12basic_stringIcNS_11char_traitsIcEENS_9allocatorIcEEE5__repES5_E5firstB8ue170006Ev, symObjAddr: 0x7928, symBinAddr: 0x10000B0B8, symSize: 0x24 }
  - { offsetInCU: 0x1CBED, offset: 0x1CBED, size: 0x8, addend: 0x0, symName: __ZNSt3__112basic_stringIcNS_11char_traitsIcEENS_9allocatorIcEEE11__recommendB8ue170006Em, symObjAddr: 0x794C, symBinAddr: 0x10000B0DC, symSize: 0x9C }
  - { offsetInCU: 0x1CC20, offset: 0x1CC20, size: 0x8, addend: 0x0, symName: __ZNSt3__116allocator_traitsINS_9allocatorIcEEE8allocateB8ue170006ERS2_m, symObjAddr: 0x79E8, symBinAddr: 0x10000B178, symSize: 0x2C }
  - { offsetInCU: 0x1CC53, offset: 0x1CC53, size: 0x8, addend: 0x0, symName: __ZNSt3__112basic_stringIcNS_11char_traitsIcEENS_9allocatorIcEEE7__allocB8ue170006Ev, symObjAddr: 0x7A14, symBinAddr: 0x10000B1A4, symSize: 0x24 }
  - { offsetInCU: 0x1CC79, offset: 0x1CC79, size: 0x8, addend: 0x0, symName: __ZNSt3__112basic_stringIcNS_11char_traitsIcEENS_9allocatorIcEEE16__begin_lifetimeB8ue170006EPcm, symObjAddr: 0x7A38, symBinAddr: 0x10000B1C8, symSize: 0x14 }
  - { offsetInCU: 0x1CCAC, offset: 0x1CCAC, size: 0x8, addend: 0x0, symName: __ZNSt3__112basic_stringIcNS_11char_traitsIcEENS_9allocatorIcEEE18__set_long_pointerB8ue170006EPc, symObjAddr: 0x7A4C, symBinAddr: 0x10000B1DC, symSize: 0x38 }
  - { offsetInCU: 0x1CCE1, offset: 0x1CCE1, size: 0x8, addend: 0x0, symName: __ZNSt3__112basic_stringIcNS_11char_traitsIcEENS_9allocatorIcEEE14__set_long_capB8ue170006Em, symObjAddr: 0x7A84, symBinAddr: 0x10000B214, symSize: 0x70 }
  - { offsetInCU: 0x1CD16, offset: 0x1CD16, size: 0x8, addend: 0x0, symName: __ZNSt3__112basic_stringIcNS_11char_traitsIcEENS_9allocatorIcEEE15__set_long_sizeB8ue170006Em, symObjAddr: 0x7AF4, symBinAddr: 0x10000B284, symSize: 0x38 }
  - { offsetInCU: 0x1CD4B, offset: 0x1CD4B, size: 0x8, addend: 0x0, symName: __ZNSt3__122__compressed_pair_elemINS_12basic_stringIcNS_11char_traitsIcEENS_9allocatorIcEEE5__repELi0ELb0EE5__getB8ue170006Ev, symObjAddr: 0x7B2C, symBinAddr: 0x10000B2BC, symSize: 0x14 }
  - { offsetInCU: 0x1CD71, offset: 0x1CD71, size: 0x8, addend: 0x0, symName: __ZNSt3__112basic_stringIcNS_11char_traitsIcEENS_9allocatorIcEEE10__align_itB8ue170006ILm16EEEmm, symObjAddr: 0x7B40, symBinAddr: 0x10000B2D0, symSize: 0x1C }
  - { offsetInCU: 0x1CD9F, offset: 0x1CD9F, size: 0x8, addend: 0x0, symName: __ZNSt3__19allocatorIcE8allocateB8ue170006Em, symObjAddr: 0x7B5C, symBinAddr: 0x10000B2EC, symSize: 0x84 }
  - { offsetInCU: 0x1CDDD, offset: 0x1CDDD, size: 0x8, addend: 0x0, symName: __ZNSt3__116allocator_traitsINS_9allocatorIcEEE8max_sizeB8ue170006IS2_vEEmRKS2_, symObjAddr: 0x7BE0, symBinAddr: 0x10000B370, symSize: 0x24 }
  - { offsetInCU: 0x1CE0B, offset: 0x1CE0B, size: 0x8, addend: 0x0, symName: __ZNKSt3__19allocatorIcE8max_sizeB8ue170006Ev, symObjAddr: 0x7C04, symBinAddr: 0x10000B394, symSize: 0x14 }
  - { offsetInCU: 0x1CE31, offset: 0x1CE31, size: 0x8, addend: 0x0, symName: __ZNSt3__117__compressed_pairINS_12basic_stringIcNS_11char_traitsIcEENS_9allocatorIcEEE5__repES5_E6secondB8ue170006Ev, symObjAddr: 0x7C18, symBinAddr: 0x10000B3A8, symSize: 0x24 }
  - { offsetInCU: 0x1CE57, offset: 0x1CE57, size: 0x8, addend: 0x0, symName: __ZNSt3__122__compressed_pair_elemINS_9allocatorIcEELi1ELb1EE5__getB8ue170006Ev, symObjAddr: 0x7C3C, symBinAddr: 0x10000B3CC, symSize: 0x14 }
  - { offsetInCU: 0x1CF22, offset: 0x1CF22, size: 0x8, addend: 0x0, symName: __ZNKSt3__113basic_istreamIcNS_11char_traitsIcEEE6sentrycvbB8ue170006Ev, symObjAddr: 0x7C50, symBinAddr: 0x10000B3E0, symSize: 0x1C }
  - { offsetInCU: 0x1CF48, offset: 0x1CF48, size: 0x8, addend: 0x0, symName: __ZNSt3__112basic_stringIcNS_11char_traitsIcEENS_9allocatorIcEEE5clearB8ue170006Ev, symObjAddr: 0x7C6C, symBinAddr: 0x10000B3FC, symSize: 0x78 }
  - { offsetInCU: 0x1CF70, offset: 0x1CF70, size: 0x8, addend: 0x0, symName: __ZNKSt3__18ios_base5widthB8ue170006Ev, symObjAddr: 0x7CE4, symBinAddr: 0x10000B474, symSize: 0x18 }
  - { offsetInCU: 0x1CF98, offset: 0x1CF98, size: 0x8, addend: 0x0, symName: __ZNKSt3__112basic_stringIcNS_11char_traitsIcEENS_9allocatorIcEEE8max_sizeB8ue170006Ev, symObjAddr: 0x7CFC, symBinAddr: 0x10000B48C, symSize: 0xAC }
  - { offsetInCU: 0x1CFEA, offset: 0x1CFEA, size: 0x8, addend: 0x0, symName: __ZNKSt3__19basic_iosIcNS_11char_traitsIcEEE5rdbufB8ue170006Ev, symObjAddr: 0x7DD4, symBinAddr: 0x10000B564, symSize: 0x24 }
  - { offsetInCU: 0x1D012, offset: 0x1D012, size: 0x8, addend: 0x0, symName: __ZNSt3__115basic_streambufIcNS_11char_traitsIcEEE5sgetcB8ue170006Ev, symObjAddr: 0x7DF8, symBinAddr: 0x10000B588, symSize: 0x70 }
  - { offsetInCU: 0x1D038, offset: 0x1D038, size: 0x8, addend: 0x0, symName: __ZNSt3__111char_traitsIcE11eq_int_typeB8ue170006Eii, symObjAddr: 0x7E68, symBinAddr: 0x10000B5F8, symSize: 0x28 }
  - { offsetInCU: 0x1D06B, offset: 0x1D06B, size: 0x8, addend: 0x0, symName: __ZNSt3__111char_traitsIcE3eofB8ue170006Ev, symObjAddr: 0x7E90, symBinAddr: 0x10000B620, symSize: 0x8 }
  - { offsetInCU: 0x1D07F, offset: 0x1D07F, size: 0x8, addend: 0x0, symName: __ZNSt3__111char_traitsIcE12to_char_typeB8ue170006Ei, symObjAddr: 0x7E98, symBinAddr: 0x10000B628, symSize: 0x18 }
  - { offsetInCU: 0x1D0CF, offset: 0x1D0CF, size: 0x8, addend: 0x0, symName: __ZNKSt3__15ctypeIcE2isB8ue170006Ejc, symObjAddr: 0x7EB0, symBinAddr: 0x10000B640, symSize: 0x7C }
  - { offsetInCU: 0x1D113, offset: 0x1D113, size: 0x8, addend: 0x0, symName: __ZNSt3__115basic_streambufIcNS_11char_traitsIcEEE6sbumpcB8ue170006Ev, symObjAddr: 0x7F2C, symBinAddr: 0x10000B6BC, symSize: 0x78 }
  - { offsetInCU: 0x1D139, offset: 0x1D139, size: 0x8, addend: 0x0, symName: __ZNSt3__18ios_base5widthB8ue170006El, symObjAddr: 0x7FA4, symBinAddr: 0x10000B734, symSize: 0x2C }
  - { offsetInCU: 0x1D17F, offset: 0x1D17F, size: 0x8, addend: 0x0, symName: __ZNSt3__18ios_base18__setstate_nothrowB8ue170006Ej, symObjAddr: 0x7FD0, symBinAddr: 0x10000B760, symSize: 0x64 }
  - { offsetInCU: 0x1D1B4, offset: 0x1D1B4, size: 0x8, addend: 0x0, symName: __ZNKSt3__19basic_iosIcNS_11char_traitsIcEEE10exceptionsB8ue170006Ev, symObjAddr: 0x8034, symBinAddr: 0x10000B7C4, symSize: 0x24 }
  - { offsetInCU: 0x1D1DA, offset: 0x1D1DA, size: 0x8, addend: 0x0, symName: __ZNSt3__19basic_iosIcNS_11char_traitsIcEEE8setstateB8ue170006Ej, symObjAddr: 0x8058, symBinAddr: 0x10000B7E8, symSize: 0x2C }
  - { offsetInCU: 0x1D20F, offset: 0x1D20F, size: 0x8, addend: 0x0, symName: __ZNKSt3__112basic_stringIcNS_11char_traitsIcEENS_9allocatorIcEEE9__is_longB8ue170006Ev, symObjAddr: 0x8084, symBinAddr: 0x10000B814, symSize: 0x74 }
  - { offsetInCU: 0x1D235, offset: 0x1D235, size: 0x8, addend: 0x0, symName: __ZNSt3__111char_traitsIcE6assignB8ue170006ERcRKc, symObjAddr: 0x80F8, symBinAddr: 0x10000B888, symSize: 0x24 }
  - { offsetInCU: 0x1D266, offset: 0x1D266, size: 0x8, addend: 0x0, symName: __ZNSt3__112basic_stringIcNS_11char_traitsIcEENS_9allocatorIcEEE18__get_long_pointerB8ue170006Ev, symObjAddr: 0x811C, symBinAddr: 0x10000B8AC, symSize: 0x28 }
  - { offsetInCU: 0x1D28C, offset: 0x1D28C, size: 0x8, addend: 0x0, symName: __ZNSt3__112basic_stringIcNS_11char_traitsIcEENS_9allocatorIcEEE19__get_short_pointerB8ue170006Ev, symObjAddr: 0x8144, symBinAddr: 0x10000B8D4, symSize: 0x28 }
  - { offsetInCU: 0x1D2B2, offset: 0x1D2B2, size: 0x8, addend: 0x0, symName: __ZNSt3__112basic_stringIcNS_11char_traitsIcEENS_9allocatorIcEEE16__set_short_sizeB8ue170006Em, symObjAddr: 0x816C, symBinAddr: 0x10000B8FC, symSize: 0x78 }
  - { offsetInCU: 0x1D2E7, offset: 0x1D2E7, size: 0x8, addend: 0x0, symName: __ZNKSt3__117__compressed_pairINS_12basic_stringIcNS_11char_traitsIcEENS_9allocatorIcEEE5__repES5_E5firstB8ue170006Ev, symObjAddr: 0x81E4, symBinAddr: 0x10000B974, symSize: 0x24 }
  - { offsetInCU: 0x1D30D, offset: 0x1D30D, size: 0x8, addend: 0x0, symName: __ZNKSt3__122__compressed_pair_elemINS_12basic_stringIcNS_11char_traitsIcEENS_9allocatorIcEEE5__repELi0ELb0EE5__getB8ue170006Ev, symObjAddr: 0x8208, symBinAddr: 0x10000B998, symSize: 0x14 }
  - { offsetInCU: 0x1D333, offset: 0x1D333, size: 0x8, addend: 0x0, symName: __ZNSt3__114pointer_traitsIPcE10pointer_toB8ue170006ERc, symObjAddr: 0x821C, symBinAddr: 0x10000B9AC, symSize: 0x14 }
  - { offsetInCU: 0x1D356, offset: 0x1D356, size: 0x8, addend: 0x0, symName: __ZNKSt3__112basic_stringIcNS_11char_traitsIcEENS_9allocatorIcEEE7__allocB8ue170006Ev, symObjAddr: 0x8230, symBinAddr: 0x10000B9C0, symSize: 0x24 }
  - { offsetInCU: 0x1D37C, offset: 0x1D37C, size: 0x8, addend: 0x0, symName: __ZNSt3__114numeric_limitsImE3maxB8ue170006Ev, symObjAddr: 0x8254, symBinAddr: 0x10000B9E4, symSize: 0x14 }
  - { offsetInCU: 0x1D390, offset: 0x1D390, size: 0x8, addend: 0x0, symName: __ZNKSt3__117__compressed_pairINS_12basic_stringIcNS_11char_traitsIcEENS_9allocatorIcEEE5__repES5_E6secondB8ue170006Ev, symObjAddr: 0x8268, symBinAddr: 0x10000B9F8, symSize: 0x24 }
  - { offsetInCU: 0x1D3B6, offset: 0x1D3B6, size: 0x8, addend: 0x0, symName: __ZNKSt3__122__compressed_pair_elemINS_9allocatorIcEELi1ELb1EE5__getB8ue170006Ev, symObjAddr: 0x828C, symBinAddr: 0x10000BA1C, symSize: 0x14 }
  - { offsetInCU: 0x1D3DC, offset: 0x1D3DC, size: 0x8, addend: 0x0, symName: __ZNSt3__123__libcpp_numeric_limitsImLb1EE3maxB8ue170006Ev, symObjAddr: 0x82A0, symBinAddr: 0x10000BA30, symSize: 0x8 }
  - { offsetInCU: 0x1D3F0, offset: 0x1D3F0, size: 0x8, addend: 0x0, symName: __ZNKSt3__18ios_base5rdbufB8ue170006Ev, symObjAddr: 0x82A8, symBinAddr: 0x10000BA38, symSize: 0x18 }
  - { offsetInCU: 0x1D416, offset: 0x1D416, size: 0x8, addend: 0x0, symName: __ZNSt3__111char_traitsIcE11to_int_typeB8ue170006Ec, symObjAddr: 0x82C0, symBinAddr: 0x10000BA50, symSize: 0x14 }
  - { offsetInCU: 0x1D439, offset: 0x1D439, size: 0x8, addend: 0x0, symName: __Z7isasciii, symObjAddr: 0x82D4, symBinAddr: 0x10000BA64, symSize: 0x24 }
  - { offsetInCU: 0x1D466, offset: 0x1D466, size: 0x8, addend: 0x0, symName: __ZNKSt3__18ios_base10exceptionsB8ue170006Ev, symObjAddr: 0x82F8, symBinAddr: 0x10000BA88, symSize: 0x18 }
  - { offsetInCU: 0x1D48E, offset: 0x1D48E, size: 0x8, addend: 0x0, symName: __ZNSt3__18ios_base8setstateB8ue170006Ej, symObjAddr: 0x8310, symBinAddr: 0x10000BAA0, symSize: 0x34 }
  - { offsetInCU: 0x1D4C5, offset: 0x1D4C5, size: 0x8, addend: 0x0, symName: __ZNKSt3__112basic_stringIcNS_11char_traitsIcEENS_9allocatorIcEEE4sizeB8ue170006Ev, symObjAddr: 0x8344, symBinAddr: 0x10000BAD4, symSize: 0x54 }
  - { offsetInCU: 0x1D4EB, offset: 0x1D4EB, size: 0x8, addend: 0x0, symName: __ZNKSt3__112basic_stringIcNS_11char_traitsIcEENS_9allocatorIcEEE4dataB8ue170006Ev, symObjAddr: 0x8398, symBinAddr: 0x10000BB28, symSize: 0x28 }
  - { offsetInCU: 0x1D511, offset: 0x1D511, size: 0x8, addend: 0x0, symName: __ZNSt3__111char_traitsIcE7compareB8ue170006EPKcS3_m, symObjAddr: 0x83C0, symBinAddr: 0x10000BB50, symSize: 0x64 }
  - { offsetInCU: 0x1D550, offset: 0x1D550, size: 0x8, addend: 0x0, symName: __ZNKSt3__112basic_stringIcNS_11char_traitsIcEENS_9allocatorIcEEE15__get_long_sizeB8ue170006Ev, symObjAddr: 0x8424, symBinAddr: 0x10000BBB4, symSize: 0x28 }
  - { offsetInCU: 0x1D576, offset: 0x1D576, size: 0x8, addend: 0x0, symName: __ZNKSt3__112basic_stringIcNS_11char_traitsIcEENS_9allocatorIcEEE16__get_short_sizeB8ue170006Ev, symObjAddr: 0x844C, symBinAddr: 0x10000BBDC, symSize: 0x34 }
  - { offsetInCU: 0x1D59C, offset: 0x1D59C, size: 0x8, addend: 0x0, symName: __ZNKSt3__112basic_stringIcNS_11char_traitsIcEENS_9allocatorIcEEE13__get_pointerB8ue170006Ev, symObjAddr: 0x8494, symBinAddr: 0x10000BC24, symSize: 0x54 }
  - { offsetInCU: 0x1D5C2, offset: 0x1D5C2, size: 0x8, addend: 0x0, symName: __ZNKSt3__112basic_stringIcNS_11char_traitsIcEENS_9allocatorIcEEE18__get_long_pointerB8ue170006Ev, symObjAddr: 0x84E8, symBinAddr: 0x10000BC78, symSize: 0x28 }
  - { offsetInCU: 0x1D5E8, offset: 0x1D5E8, size: 0x8, addend: 0x0, symName: __ZNKSt3__112basic_stringIcNS_11char_traitsIcEENS_9allocatorIcEEE19__get_short_pointerB8ue170006Ev, symObjAddr: 0x8510, symBinAddr: 0x10000BCA0, symSize: 0x28 }
  - { offsetInCU: 0x1D60E, offset: 0x1D60E, size: 0x8, addend: 0x0, symName: __ZNSt3__114pointer_traitsIPKcE10pointer_toB8ue170006ERS1_, symObjAddr: 0x8538, symBinAddr: 0x10000BCC8, symSize: 0x14 }
  - { offsetInCU: 0x1D631, offset: 0x1D631, size: 0x8, addend: 0x0, symName: __ZNSt3__16vectorIP6VertexNS_9allocatorIS2_EEEC2B8ue170006Ev, symObjAddr: 0x854C, symBinAddr: 0x10000BCDC, symSize: 0x44 }
  - { offsetInCU: 0x1D65B, offset: 0x1D65B, size: 0x8, addend: 0x0, symName: __ZNSt3__117__compressed_pairIPP6VertexNS_9allocatorIS2_EEEC1B8ue170006IDnNS_18__default_init_tagEEEOT_OT0_, symObjAddr: 0x8590, symBinAddr: 0x10000BD20, symSize: 0x3C }
  - { offsetInCU: 0x1D6B3, offset: 0x1D6B3, size: 0x8, addend: 0x0, symName: __ZNSt3__117__compressed_pairIPP6VertexNS_9allocatorIS2_EEEC2B8ue170006IDnNS_18__default_init_tagEEEOT_OT0_, symObjAddr: 0x85CC, symBinAddr: 0x10000BD5C, symSize: 0x40 }
  - { offsetInCU: 0x1D70B, offset: 0x1D70B, size: 0x8, addend: 0x0, symName: __ZNSt3__122__compressed_pair_elemIPP6VertexLi0ELb0EEC2B8ue170006IDnvEEOT_, symObjAddr: 0x860C, symBinAddr: 0x10000BD9C, symSize: 0x1C }
  - { offsetInCU: 0x1D74D, offset: 0x1D74D, size: 0x8, addend: 0x0, symName: __ZNSt3__122__compressed_pair_elemINS_9allocatorIP6VertexEELi1ELb1EEC2B8ue170006ENS_18__default_init_tagE, symObjAddr: 0x8628, symBinAddr: 0x10000BDB8, symSize: 0x2C }
  - { offsetInCU: 0x1D782, offset: 0x1D782, size: 0x8, addend: 0x0, symName: __ZNSt3__19allocatorIP6VertexEC2B8ue170006Ev, symObjAddr: 0x8654, symBinAddr: 0x10000BDE4, symSize: 0x2C }
  - { offsetInCU: 0x1D7AC, offset: 0x1D7AC, size: 0x8, addend: 0x0, symName: __ZNSt3__116__non_trivial_ifILb1ENS_9allocatorIP6VertexEEEC2B8ue170006Ev, symObjAddr: 0x8680, symBinAddr: 0x10000BE10, symSize: 0x14 }
  - { offsetInCU: 0x1D7D6, offset: 0x1D7D6, size: 0x8, addend: 0x0, symName: __ZNSt3__16vectorIiNS_9allocatorIiEEEC2B8ue170006Ev, symObjAddr: 0x8694, symBinAddr: 0x10000BE24, symSize: 0x44 }
  - { offsetInCU: 0x1D800, offset: 0x1D800, size: 0x8, addend: 0x0, symName: __ZNSt3__117__compressed_pairIPiNS_9allocatorIiEEEC1B8ue170006IDnNS_18__default_init_tagEEEOT_OT0_, symObjAddr: 0x86D8, symBinAddr: 0x10000BE68, symSize: 0x3C }
  - { offsetInCU: 0x1D858, offset: 0x1D858, size: 0x8, addend: 0x0, symName: __ZNSt3__117__compressed_pairIPiNS_9allocatorIiEEEC2B8ue170006IDnNS_18__default_init_tagEEEOT_OT0_, symObjAddr: 0x8714, symBinAddr: 0x10000BEA4, symSize: 0x40 }
  - { offsetInCU: 0x1D8B0, offset: 0x1D8B0, size: 0x8, addend: 0x0, symName: __ZNSt3__122__compressed_pair_elemIPiLi0ELb0EEC2B8ue170006IDnvEEOT_, symObjAddr: 0x8754, symBinAddr: 0x10000BEE4, symSize: 0x1C }
  - { offsetInCU: 0x1D8F2, offset: 0x1D8F2, size: 0x8, addend: 0x0, symName: __ZNSt3__122__compressed_pair_elemINS_9allocatorIiEELi1ELb1EEC2B8ue170006ENS_18__default_init_tagE, symObjAddr: 0x8770, symBinAddr: 0x10000BF00, symSize: 0x2C }
  - { offsetInCU: 0x1D927, offset: 0x1D927, size: 0x8, addend: 0x0, symName: __ZNSt3__19allocatorIiEC2B8ue170006Ev, symObjAddr: 0x879C, symBinAddr: 0x10000BF2C, symSize: 0x2C }
  - { offsetInCU: 0x1D951, offset: 0x1D951, size: 0x8, addend: 0x0, symName: __ZNSt3__116__non_trivial_ifILb1ENS_9allocatorIiEEEC2B8ue170006Ev, symObjAddr: 0x87C8, symBinAddr: 0x10000BF58, symSize: 0x14 }
  - { offsetInCU: 0x1D97B, offset: 0x1D97B, size: 0x8, addend: 0x0, symName: __ZNSt3__16vectorIP5OrderNS_9allocatorIS2_EEEC2B8ue170006Ev, symObjAddr: 0x87DC, symBinAddr: 0x10000BF6C, symSize: 0x44 }
  - { offsetInCU: 0x1D9A5, offset: 0x1D9A5, size: 0x8, addend: 0x0, symName: __ZNSt3__117__compressed_pairIPP5OrderNS_9allocatorIS2_EEEC1B8ue170006IDnNS_18__default_init_tagEEEOT_OT0_, symObjAddr: 0x8820, symBinAddr: 0x10000BFB0, symSize: 0x3C }
  - { offsetInCU: 0x1D9FD, offset: 0x1D9FD, size: 0x8, addend: 0x0, symName: __ZNSt3__117__compressed_pairIPP5OrderNS_9allocatorIS2_EEEC2B8ue170006IDnNS_18__default_init_tagEEEOT_OT0_, symObjAddr: 0x885C, symBinAddr: 0x10000BFEC, symSize: 0x40 }
  - { offsetInCU: 0x1DA55, offset: 0x1DA55, size: 0x8, addend: 0x0, symName: __ZNSt3__122__compressed_pair_elemIPP5OrderLi0ELb0EEC2B8ue170006IDnvEEOT_, symObjAddr: 0x889C, symBinAddr: 0x10000C02C, symSize: 0x1C }
  - { offsetInCU: 0x1DA97, offset: 0x1DA97, size: 0x8, addend: 0x0, symName: __ZNSt3__122__compressed_pair_elemINS_9allocatorIP5OrderEELi1ELb1EEC2B8ue170006ENS_18__default_init_tagE, symObjAddr: 0x88B8, symBinAddr: 0x10000C048, symSize: 0x2C }
  - { offsetInCU: 0x1DACC, offset: 0x1DACC, size: 0x8, addend: 0x0, symName: __ZNSt3__19allocatorIP5OrderEC2B8ue170006Ev, symObjAddr: 0x88E4, symBinAddr: 0x10000C074, symSize: 0x2C }
  - { offsetInCU: 0x1DAF6, offset: 0x1DAF6, size: 0x8, addend: 0x0, symName: __ZNSt3__116__non_trivial_ifILb1ENS_9allocatorIP5OrderEEEC2B8ue170006Ev, symObjAddr: 0x8910, symBinAddr: 0x10000C0A0, symSize: 0x14 }
  - { offsetInCU: 0x1DB20, offset: 0x1DB20, size: 0x8, addend: 0x0, symName: __ZNSt3__16vectorIP6VertexNS_9allocatorIS2_EEE8__appendEmRKS2_, symObjAddr: 0x8924, symBinAddr: 0x10000C0B4, symSize: 0x11C }
  - { offsetInCU: 0x1DB8A, offset: 0x1DB8A, size: 0x8, addend: 0x0, symName: __ZNSt3__16vectorIP6VertexNS_9allocatorIS2_EEE17__destruct_at_endB8ue170006EPS2_, symObjAddr: 0x8A40, symBinAddr: 0x10000C1D0, symSize: 0x4C }
  - { offsetInCU: 0x1DBCE, offset: 0x1DBCE, size: 0x8, addend: 0x0, symName: __ZNSt3__16vectorIP6VertexNS_9allocatorIS2_EEE9__end_capB8ue170006Ev, symObjAddr: 0x8A8C, symBinAddr: 0x10000C21C, symSize: 0x28 }
  - { offsetInCU: 0x1DBF4, offset: 0x1DBF4, size: 0x8, addend: 0x0, symName: __ZNSt3__16vectorIP6VertexNS_9allocatorIS2_EEE18__construct_at_endEmRKS2_, symObjAddr: 0x8AB4, symBinAddr: 0x10000C244, symSize: 0xD8 }
  - { offsetInCU: 0x1DC75, offset: 0x1DC75, size: 0x8, addend: 0x0, symName: __ZNKSt3__16vectorIP6VertexNS_9allocatorIS2_EEE11__recommendB8ue170006Em, symObjAddr: 0x8B8C, symBinAddr: 0x10000C31C, symSize: 0xB4 }
  - { offsetInCU: 0x1DCCA, offset: 0x1DCCA, size: 0x8, addend: 0x0, symName: __ZNSt3__114__split_bufferIP6VertexRNS_9allocatorIS2_EEEC1EmmS5_, symObjAddr: 0x8C40, symBinAddr: 0x10000C3D0, symSize: 0x44 }
  - { offsetInCU: 0x1DD20, offset: 0x1DD20, size: 0x8, addend: 0x0, symName: __ZNSt3__114__split_bufferIP6VertexRNS_9allocatorIS2_EEE18__construct_at_endEmRKS2_, symObjAddr: 0x8C84, symBinAddr: 0x10000C414, symSize: 0xC4 }
  - { offsetInCU: 0x1DD73, offset: 0x1DD73, size: 0x8, addend: 0x0, symName: __ZNSt3__114__split_bufferIP6VertexRNS_9allocatorIS2_EEED1Ev, symObjAddr: 0x8E58, symBinAddr: 0x10000C5E8, symSize: 0x2C }
  - { offsetInCU: 0x1DD9F, offset: 0x1DD9F, size: 0x8, addend: 0x0, symName: __ZNSt3__117__compressed_pairIPP6VertexNS_9allocatorIS2_EEE5firstB8ue170006Ev, symObjAddr: 0x8E84, symBinAddr: 0x10000C614, symSize: 0x24 }
  - { offsetInCU: 0x1DDC5, offset: 0x1DDC5, size: 0x8, addend: 0x0, symName: __ZNSt3__122__compressed_pair_elemIPP6VertexLi0ELb0EE5__getB8ue170006Ev, symObjAddr: 0x8EA8, symBinAddr: 0x10000C638, symSize: 0x14 }
  - { offsetInCU: 0x1DE04, offset: 0x1DE04, size: 0x8, addend: 0x0, symName: __ZNSt3__16vectorIP6VertexNS_9allocatorIS2_EEE21_ConstructTransactionC1B8ue170006ERS5_m, symObjAddr: 0x8EBC, symBinAddr: 0x10000C64C, symSize: 0x3C }
  - { offsetInCU: 0x1DE4C, offset: 0x1DE4C, size: 0x8, addend: 0x0, symName: __ZNSt3__116allocator_traitsINS_9allocatorIP6VertexEEE9constructB8ue170006IS3_JRKS3_EvEEvRS4_PT_DpOT0_, symObjAddr: 0x8EF8, symBinAddr: 0x10000C688, symSize: 0x34 }
  - { offsetInCU: 0x1DEA3, offset: 0x1DEA3, size: 0x8, addend: 0x0, symName: __ZNSt3__16vectorIP6VertexNS_9allocatorIS2_EEE21_ConstructTransactionD1B8ue170006Ev, symObjAddr: 0x8F2C, symBinAddr: 0x10000C6BC, symSize: 0x2C }
  - { offsetInCU: 0x1DECD, offset: 0x1DECD, size: 0x8, addend: 0x0, symName: __ZNSt3__16vectorIP6VertexNS_9allocatorIS2_EEE21_ConstructTransactionC2B8ue170006ERS5_m, symObjAddr: 0x8F58, symBinAddr: 0x10000C6E8, symSize: 0x44 }
  - { offsetInCU: 0x1DF15, offset: 0x1DF15, size: 0x8, addend: 0x0, symName: __ZNSt3__19allocatorIP6VertexE9constructB8ue170006IS2_JRKS2_EEEvPT_DpOT0_, symObjAddr: 0x8F9C, symBinAddr: 0x10000C72C, symSize: 0x28 }
  - { offsetInCU: 0x1DF6B, offset: 0x1DF6B, size: 0x8, addend: 0x0, symName: __ZNSt3__16vectorIP6VertexNS_9allocatorIS2_EEE21_ConstructTransactionD2B8ue170006Ev, symObjAddr: 0x8FC4, symBinAddr: 0x10000C754, symSize: 0x20 }
  - { offsetInCU: 0x1DF95, offset: 0x1DF95, size: 0x8, addend: 0x0, symName: __ZNKSt3__16vectorIP6VertexNS_9allocatorIS2_EEE8max_sizeEv, symObjAddr: 0x8FE4, symBinAddr: 0x10000C774, symSize: 0x74 }
  - { offsetInCU: 0x1DFBD, offset: 0x1DFBD, size: 0x8, addend: 0x0, symName: __ZNKSt3__16vectorIP6VertexNS_9allocatorIS2_EEE20__throw_length_errorB8ue170006Ev, symObjAddr: 0x9058, symBinAddr: 0x10000C7E8, symSize: 0x1C }
  - { offsetInCU: 0x1DFED, offset: 0x1DFED, size: 0x8, addend: 0x0, symName: __ZNSt3__116allocator_traitsINS_9allocatorIP6VertexEEE8max_sizeB8ue170006IS4_vEEmRKS4_, symObjAddr: 0x9074, symBinAddr: 0x10000C804, symSize: 0x24 }
  - { offsetInCU: 0x1E01B, offset: 0x1E01B, size: 0x8, addend: 0x0, symName: __ZNKSt3__16vectorIP6VertexNS_9allocatorIS2_EEE7__allocB8ue170006Ev, symObjAddr: 0x9098, symBinAddr: 0x10000C828, symSize: 0x28 }
  - { offsetInCU: 0x1E041, offset: 0x1E041, size: 0x8, addend: 0x0, symName: __ZNKSt3__19allocatorIP6VertexE8max_sizeB8ue170006Ev, symObjAddr: 0x90C0, symBinAddr: 0x10000C850, symSize: 0x14 }
  - { offsetInCU: 0x1E067, offset: 0x1E067, size: 0x8, addend: 0x0, symName: __ZNKSt3__117__compressed_pairIPP6VertexNS_9allocatorIS2_EEE6secondB8ue170006Ev, symObjAddr: 0x90D4, symBinAddr: 0x10000C864, symSize: 0x24 }
  - { offsetInCU: 0x1E08D, offset: 0x1E08D, size: 0x8, addend: 0x0, symName: __ZNKSt3__122__compressed_pair_elemINS_9allocatorIP6VertexEELi1ELb1EE5__getB8ue170006Ev, symObjAddr: 0x90F8, symBinAddr: 0x10000C888, symSize: 0x14 }
  - { offsetInCU: 0x1E0B3, offset: 0x1E0B3, size: 0x8, addend: 0x0, symName: __ZNSt3__114__split_bufferIP6VertexRNS_9allocatorIS2_EEEC2EmmS5_, symObjAddr: 0x910C, symBinAddr: 0x10000C89C, symSize: 0xD4 }
  - { offsetInCU: 0x1E126, offset: 0x1E126, size: 0x8, addend: 0x0, symName: __ZNSt3__117__compressed_pairIPP6VertexRNS_9allocatorIS2_EEEC1B8ue170006IDnS6_EEOT_OT0_, symObjAddr: 0x91E0, symBinAddr: 0x10000C970, symSize: 0x3C }
  - { offsetInCU: 0x1E17E, offset: 0x1E17E, size: 0x8, addend: 0x0, symName: __ZNSt3__114__split_bufferIP6VertexRNS_9allocatorIS2_EEE7__allocB8ue170006Ev, symObjAddr: 0x925C, symBinAddr: 0x10000C9EC, symSize: 0x28 }
  - { offsetInCU: 0x1E1A4, offset: 0x1E1A4, size: 0x8, addend: 0x0, symName: __ZNSt3__114__split_bufferIP6VertexRNS_9allocatorIS2_EEE9__end_capB8ue170006Ev, symObjAddr: 0x9284, symBinAddr: 0x10000CA14, symSize: 0x28 }
  - { offsetInCU: 0x1E1CA, offset: 0x1E1CA, size: 0x8, addend: 0x0, symName: __ZNSt3__117__compressed_pairIPP6VertexRNS_9allocatorIS2_EEEC2B8ue170006IDnS6_EEOT_OT0_, symObjAddr: 0x92AC, symBinAddr: 0x10000CA3C, symSize: 0x48 }
  - { offsetInCU: 0x1E222, offset: 0x1E222, size: 0x8, addend: 0x0, symName: __ZNSt3__122__compressed_pair_elemIRNS_9allocatorIP6VertexEELi1ELb0EEC2B8ue170006IS5_vEEOT_, symObjAddr: 0x92F4, symBinAddr: 0x10000CA84, symSize: 0x20 }
  - { offsetInCU: 0x1E264, offset: 0x1E264, size: 0x8, addend: 0x0, symName: __ZNSt3__19allocatorIP6VertexE8allocateB8ue170006Em, symObjAddr: 0x9314, symBinAddr: 0x10000CAA4, symSize: 0x84 }
  - { offsetInCU: 0x1E298, offset: 0x1E298, size: 0x8, addend: 0x0, symName: __ZNSt3__117__compressed_pairIPP6VertexRNS_9allocatorIS2_EEE6secondB8ue170006Ev, symObjAddr: 0x9398, symBinAddr: 0x10000CB28, symSize: 0x28 }
  - { offsetInCU: 0x1E2BE, offset: 0x1E2BE, size: 0x8, addend: 0x0, symName: __ZNSt3__122__compressed_pair_elemIRNS_9allocatorIP6VertexEELi1ELb0EE5__getB8ue170006Ev, symObjAddr: 0x93C0, symBinAddr: 0x10000CB50, symSize: 0x18 }
  - { offsetInCU: 0x1E2E4, offset: 0x1E2E4, size: 0x8, addend: 0x0, symName: __ZNSt3__117__compressed_pairIPP6VertexRNS_9allocatorIS2_EEE5firstB8ue170006Ev, symObjAddr: 0x93D8, symBinAddr: 0x10000CB68, symSize: 0x24 }
  - { offsetInCU: 0x1E314, offset: 0x1E314, size: 0x8, addend: 0x0, symName: __ZNSt3__114__split_bufferIP6VertexRNS_9allocatorIS2_EEE21_ConstructTransactionC1B8ue170006EPPS2_m, symObjAddr: 0x93FC, symBinAddr: 0x10000CB8C, symSize: 0x3C }
  - { offsetInCU: 0x1E35A, offset: 0x1E35A, size: 0x8, addend: 0x0, symName: __ZNSt3__114__split_bufferIP6VertexRNS_9allocatorIS2_EEE21_ConstructTransactionD1B8ue170006Ev, symObjAddr: 0x9438, symBinAddr: 0x10000CBC8, symSize: 0x2C }
  - { offsetInCU: 0x1E384, offset: 0x1E384, size: 0x8, addend: 0x0, symName: __ZNSt3__114__split_bufferIP6VertexRNS_9allocatorIS2_EEE21_ConstructTransactionC2B8ue170006EPPS2_m, symObjAddr: 0x9464, symBinAddr: 0x10000CBF4, symSize: 0x44 }
  - { offsetInCU: 0x1E3CA, offset: 0x1E3CA, size: 0x8, addend: 0x0, symName: __ZNSt3__114__split_bufferIP6VertexRNS_9allocatorIS2_EEE21_ConstructTransactionD2B8ue170006Ev, symObjAddr: 0x94A8, symBinAddr: 0x10000CC38, symSize: 0x20 }
  - { offsetInCU: 0x1E3F4, offset: 0x1E3F4, size: 0x8, addend: 0x0, symName: __ZNSt3__116reverse_iteratorIPP6VertexEC1B8ue170006ES3_, symObjAddr: 0x95B0, symBinAddr: 0x10000CD40, symSize: 0x34 }
  - { offsetInCU: 0x1E42C, offset: 0x1E42C, size: 0x8, addend: 0x0, symName: __ZNKSt3__116reverse_iteratorIPP6VertexE4baseB8ue170006Ev, symObjAddr: 0x95E4, symBinAddr: 0x10000CD74, symSize: 0x18 }
  - { offsetInCU: 0x1E452, offset: 0x1E452, size: 0x8, addend: 0x0, symName: __ZNKSt3__16vectorIP6VertexNS_9allocatorIS2_EEE14__annotate_newB8ue170006Em, symObjAddr: 0x9638, symBinAddr: 0x10000CDC8, symSize: 0xAC }
  - { offsetInCU: 0x1E487, offset: 0x1E487, size: 0x8, addend: 0x0, symName: __ZNKSt3__116reverse_iteratorIPP6VertexEdeB8ue170006Ev, symObjAddr: 0x977C, symBinAddr: 0x10000CF0C, symSize: 0x28 }
  - { offsetInCU: 0x1E4BB, offset: 0x1E4BB, size: 0x8, addend: 0x0, symName: __ZNSt3__116reverse_iteratorIPP6VertexEppB8ue170006Ev, symObjAddr: 0x97A4, symBinAddr: 0x10000CF34, symSize: 0x20 }
  - { offsetInCU: 0x1E4E6, offset: 0x1E4E6, size: 0x8, addend: 0x0, symName: __ZNSt3__119__to_address_helperINS_16reverse_iteratorIPP6VertexEEvE6__callB8ue170006ERKS5_, symObjAddr: 0x983C, symBinAddr: 0x10000CFCC, symSize: 0x4C }
  - { offsetInCU: 0x1E509, offset: 0x1E509, size: 0x8, addend: 0x0, symName: __ZNKSt3__116reverse_iteratorIPP6VertexEptB8ue170006Ev, symObjAddr: 0x9888, symBinAddr: 0x10000D018, symSize: 0x24 }
  - { offsetInCU: 0x1E549, offset: 0x1E549, size: 0x8, addend: 0x0, symName: __ZNKSt3__111__move_loopINS_17_ClassicAlgPolicyEEclB8ue170006INS_16reverse_iteratorIPP6VertexEES8_S8_EENS_4pairIT_T1_EESA_T0_SB_, symObjAddr: 0x9B24, symBinAddr: 0x10000D2B4, symSize: 0xA0 }
  - { offsetInCU: 0x1E5BA, offset: 0x1E5BA, size: 0x8, addend: 0x0, symName: __ZNSt3__18_IterOpsINS_17_ClassicAlgPolicyEE11__iter_moveB8ue170006IRNS_16reverse_iteratorIPP6VertexEEEENS_9enable_ifIXsr12is_referenceIDTdeclsr3stdE7declvalIRT_EEEEE5valueEDTclsr3stdE4movedeclsr3stdE7declvalISC_EEEEE4typeEOSB_, symObjAddr: 0x9D24, symBinAddr: 0x10000D4B4, symSize: 0x28 }
  - { offsetInCU: 0x1E5E6, offset: 0x1E5E6, size: 0x8, addend: 0x0, symName: __ZNSt3__18_IterOpsINS_17_ClassicAlgPolicyEE25__validate_iter_referenceB8ue170006IRNS_16reverse_iteratorIPP6VertexEEEEvv, symObjAddr: 0x9D4C, symBinAddr: 0x10000D4DC, symSize: 0x4 }
  - { offsetInCU: 0x1E604, offset: 0x1E604, size: 0x8, addend: 0x0, symName: __ZNSt3__118__unwrap_iter_implINS_16reverse_iteratorIPP6VertexEELb0EE8__unwrapB8ue170006ES5_, symObjAddr: 0x9D50, symBinAddr: 0x10000D4E0, symSize: 0x24 }
  - { offsetInCU: 0x1E627, offset: 0x1E627, size: 0x8, addend: 0x0, symName: __ZNSt3__14pairINS_16reverse_iteratorIPP6VertexEES5_EC1B8ue170006ERKS5_S8_, symObjAddr: 0x9D74, symBinAddr: 0x10000D504, symSize: 0x3C }
  - { offsetInCU: 0x1E66D, offset: 0x1E66D, size: 0x8, addend: 0x0, symName: __ZNSt3__14pairINS_16reverse_iteratorIPP6VertexEES5_EC2B8ue170006ERKS5_S8_, symObjAddr: 0x9DB0, symBinAddr: 0x10000D540, symSize: 0x34 }
  - { offsetInCU: 0x1E6B3, offset: 0x1E6B3, size: 0x8, addend: 0x0, symName: __ZNSt3__118__unwrap_iter_implINS_16reverse_iteratorIPP6VertexEELb0EE8__rewrapB8ue170006ES5_S5_, symObjAddr: 0x9DE4, symBinAddr: 0x10000D574, symSize: 0x2C }
  - { offsetInCU: 0x1E6E1, offset: 0x1E6E1, size: 0x8, addend: 0x0, symName: __ZNSt3__116reverse_iteratorIPP6VertexEC2B8ue170006ES3_, symObjAddr: 0x9E10, symBinAddr: 0x10000D5A0, symSize: 0x28 }
  - { offsetInCU: 0x1E719, offset: 0x1E719, size: 0x8, addend: 0x0, symName: __ZNSt3__114__split_bufferIP6VertexRNS_9allocatorIS2_EEED2Ev, symObjAddr: 0x9E38, symBinAddr: 0x10000D5C8, symSize: 0x80 }
  - { offsetInCU: 0x1E745, offset: 0x1E745, size: 0x8, addend: 0x0, symName: __ZNSt3__114__split_bufferIP6VertexRNS_9allocatorIS2_EEE5clearB8ue170006Ev, symObjAddr: 0x9EB8, symBinAddr: 0x10000D648, symSize: 0x28 }
  - { offsetInCU: 0x1E76B, offset: 0x1E76B, size: 0x8, addend: 0x0, symName: __ZNKSt3__114__split_bufferIP6VertexRNS_9allocatorIS2_EEE8capacityB8ue170006Ev, symObjAddr: 0x9EE0, symBinAddr: 0x10000D670, symSize: 0x40 }
  - { offsetInCU: 0x1E791, offset: 0x1E791, size: 0x8, addend: 0x0, symName: __ZNSt3__114__split_bufferIP6VertexRNS_9allocatorIS2_EEE17__destruct_at_endB8ue170006EPS2_, symObjAddr: 0x9F20, symBinAddr: 0x10000D6B0, symSize: 0x2C }
  - { offsetInCU: 0x1E7C5, offset: 0x1E7C5, size: 0x8, addend: 0x0, symName: __ZNSt3__114__split_bufferIP6VertexRNS_9allocatorIS2_EEE17__destruct_at_endB8ue170006EPS2_NS_17integral_constantIbLb0EEE, symObjAddr: 0x9F4C, symBinAddr: 0x10000D6DC, symSize: 0x94 }
  - { offsetInCU: 0x1E806, offset: 0x1E806, size: 0x8, addend: 0x0, symName: __ZNKSt3__114__split_bufferIP6VertexRNS_9allocatorIS2_EEE9__end_capB8ue170006Ev, symObjAddr: 0x9FE0, symBinAddr: 0x10000D770, symSize: 0x28 }
  - { offsetInCU: 0x1E82C, offset: 0x1E82C, size: 0x8, addend: 0x0, symName: __ZNKSt3__117__compressed_pairIPP6VertexRNS_9allocatorIS2_EEE5firstB8ue170006Ev, symObjAddr: 0xA008, symBinAddr: 0x10000D798, symSize: 0x24 }
  - { offsetInCU: 0x1E852, offset: 0x1E852, size: 0x8, addend: 0x0, symName: __ZNKSt3__16vectorIP6VertexNS_9allocatorIS2_EEE17__annotate_shrinkB8ue170006Em, symObjAddr: 0xA02C, symBinAddr: 0x10000D7BC, symSize: 0xB4 }
  - { offsetInCU: 0x1E887, offset: 0x1E887, size: 0x8, addend: 0x0, symName: __ZNSt3__16vectorIP5OrderNS_9allocatorIS2_EEE8__appendEmRKS2_, symObjAddr: 0xA0E0, symBinAddr: 0x10000D870, symSize: 0x11C }
  - { offsetInCU: 0x1E8F1, offset: 0x1E8F1, size: 0x8, addend: 0x0, symName: __ZNSt3__16vectorIP5OrderNS_9allocatorIS2_EEE17__destruct_at_endB8ue170006EPS2_, symObjAddr: 0xA1FC, symBinAddr: 0x10000D98C, symSize: 0x4C }
  - { offsetInCU: 0x1E935, offset: 0x1E935, size: 0x8, addend: 0x0, symName: __ZNSt3__16vectorIP5OrderNS_9allocatorIS2_EEE9__end_capB8ue170006Ev, symObjAddr: 0xA248, symBinAddr: 0x10000D9D8, symSize: 0x28 }
  - { offsetInCU: 0x1E95B, offset: 0x1E95B, size: 0x8, addend: 0x0, symName: __ZNSt3__16vectorIP5OrderNS_9allocatorIS2_EEE18__construct_at_endEmRKS2_, symObjAddr: 0xA270, symBinAddr: 0x10000DA00, symSize: 0xD8 }
  - { offsetInCU: 0x1E9DC, offset: 0x1E9DC, size: 0x8, addend: 0x0, symName: __ZNKSt3__16vectorIP5OrderNS_9allocatorIS2_EEE11__recommendB8ue170006Em, symObjAddr: 0xA348, symBinAddr: 0x10000DAD8, symSize: 0xB4 }
  - { offsetInCU: 0x1EA31, offset: 0x1EA31, size: 0x8, addend: 0x0, symName: __ZNSt3__114__split_bufferIP5OrderRNS_9allocatorIS2_EEEC1EmmS5_, symObjAddr: 0xA3FC, symBinAddr: 0x10000DB8C, symSize: 0x44 }
  - { offsetInCU: 0x1EA87, offset: 0x1EA87, size: 0x8, addend: 0x0, symName: __ZNSt3__114__split_bufferIP5OrderRNS_9allocatorIS2_EEE18__construct_at_endEmRKS2_, symObjAddr: 0xA440, symBinAddr: 0x10000DBD0, symSize: 0xC4 }
  - { offsetInCU: 0x1EADA, offset: 0x1EADA, size: 0x8, addend: 0x0, symName: __ZNSt3__114__split_bufferIP5OrderRNS_9allocatorIS2_EEED1Ev, symObjAddr: 0xA614, symBinAddr: 0x10000DDA4, symSize: 0x2C }
  - { offsetInCU: 0x1EB06, offset: 0x1EB06, size: 0x8, addend: 0x0, symName: __ZNSt3__117__compressed_pairIPP5OrderNS_9allocatorIS2_EEE5firstB8ue170006Ev, symObjAddr: 0xA640, symBinAddr: 0x10000DDD0, symSize: 0x24 }
  - { offsetInCU: 0x1EB2C, offset: 0x1EB2C, size: 0x8, addend: 0x0, symName: __ZNSt3__122__compressed_pair_elemIPP5OrderLi0ELb0EE5__getB8ue170006Ev, symObjAddr: 0xA664, symBinAddr: 0x10000DDF4, symSize: 0x14 }
  - { offsetInCU: 0x1EB6B, offset: 0x1EB6B, size: 0x8, addend: 0x0, symName: __ZNSt3__16vectorIP5OrderNS_9allocatorIS2_EEE21_ConstructTransactionC1B8ue170006ERS5_m, symObjAddr: 0xA678, symBinAddr: 0x10000DE08, symSize: 0x3C }
  - { offsetInCU: 0x1EBB3, offset: 0x1EBB3, size: 0x8, addend: 0x0, symName: __ZNSt3__116allocator_traitsINS_9allocatorIP5OrderEEE9constructB8ue170006IS3_JRKS3_EvEEvRS4_PT_DpOT0_, symObjAddr: 0xA6B4, symBinAddr: 0x10000DE44, symSize: 0x34 }
  - { offsetInCU: 0x1EC0A, offset: 0x1EC0A, size: 0x8, addend: 0x0, symName: __ZNSt3__16vectorIP5OrderNS_9allocatorIS2_EEE21_ConstructTransactionD1B8ue170006Ev, symObjAddr: 0xA6E8, symBinAddr: 0x10000DE78, symSize: 0x2C }
  - { offsetInCU: 0x1EC34, offset: 0x1EC34, size: 0x8, addend: 0x0, symName: __ZNSt3__16vectorIP5OrderNS_9allocatorIS2_EEE21_ConstructTransactionC2B8ue170006ERS5_m, symObjAddr: 0xA714, symBinAddr: 0x10000DEA4, symSize: 0x44 }
  - { offsetInCU: 0x1EC7C, offset: 0x1EC7C, size: 0x8, addend: 0x0, symName: __ZNSt3__19allocatorIP5OrderE9constructB8ue170006IS2_JRKS2_EEEvPT_DpOT0_, symObjAddr: 0xA758, symBinAddr: 0x10000DEE8, symSize: 0x28 }
  - { offsetInCU: 0x1ECD2, offset: 0x1ECD2, size: 0x8, addend: 0x0, symName: __ZNSt3__16vectorIP5OrderNS_9allocatorIS2_EEE21_ConstructTransactionD2B8ue170006Ev, symObjAddr: 0xA780, symBinAddr: 0x10000DF10, symSize: 0x20 }
  - { offsetInCU: 0x1ECFC, offset: 0x1ECFC, size: 0x8, addend: 0x0, symName: __ZNKSt3__16vectorIP5OrderNS_9allocatorIS2_EEE8max_sizeEv, symObjAddr: 0xA7A0, symBinAddr: 0x10000DF30, symSize: 0x74 }
  - { offsetInCU: 0x1ED24, offset: 0x1ED24, size: 0x8, addend: 0x0, symName: __ZNKSt3__16vectorIP5OrderNS_9allocatorIS2_EEE20__throw_length_errorB8ue170006Ev, symObjAddr: 0xA814, symBinAddr: 0x10000DFA4, symSize: 0x1C }
  - { offsetInCU: 0x1ED54, offset: 0x1ED54, size: 0x8, addend: 0x0, symName: __ZNSt3__116allocator_traitsINS_9allocatorIP5OrderEEE8max_sizeB8ue170006IS4_vEEmRKS4_, symObjAddr: 0xA830, symBinAddr: 0x10000DFC0, symSize: 0x24 }
  - { offsetInCU: 0x1ED82, offset: 0x1ED82, size: 0x8, addend: 0x0, symName: __ZNKSt3__16vectorIP5OrderNS_9allocatorIS2_EEE7__allocB8ue170006Ev, symObjAddr: 0xA854, symBinAddr: 0x10000DFE4, symSize: 0x28 }
  - { offsetInCU: 0x1EDA8, offset: 0x1EDA8, size: 0x8, addend: 0x0, symName: __ZNKSt3__19allocatorIP5OrderE8max_sizeB8ue170006Ev, symObjAddr: 0xA87C, symBinAddr: 0x10000E00C, symSize: 0x14 }
  - { offsetInCU: 0x1EDCE, offset: 0x1EDCE, size: 0x8, addend: 0x0, symName: __ZNKSt3__117__compressed_pairIPP5OrderNS_9allocatorIS2_EEE6secondB8ue170006Ev, symObjAddr: 0xA890, symBinAddr: 0x10000E020, symSize: 0x24 }
  - { offsetInCU: 0x1EDF4, offset: 0x1EDF4, size: 0x8, addend: 0x0, symName: __ZNKSt3__122__compressed_pair_elemINS_9allocatorIP5OrderEELi1ELb1EE5__getB8ue170006Ev, symObjAddr: 0xA8B4, symBinAddr: 0x10000E044, symSize: 0x14 }
  - { offsetInCU: 0x1EE1A, offset: 0x1EE1A, size: 0x8, addend: 0x0, symName: __ZNSt3__114__split_bufferIP5OrderRNS_9allocatorIS2_EEEC2EmmS5_, symObjAddr: 0xA8C8, symBinAddr: 0x10000E058, symSize: 0xD4 }
  - { offsetInCU: 0x1EE8D, offset: 0x1EE8D, size: 0x8, addend: 0x0, symName: __ZNSt3__117__compressed_pairIPP5OrderRNS_9allocatorIS2_EEEC1B8ue170006IDnS6_EEOT_OT0_, symObjAddr: 0xA99C, symBinAddr: 0x10000E12C, symSize: 0x3C }
  - { offsetInCU: 0x1EEE5, offset: 0x1EEE5, size: 0x8, addend: 0x0, symName: __ZNSt3__114__split_bufferIP5OrderRNS_9allocatorIS2_EEE7__allocB8ue170006Ev, symObjAddr: 0xAA18, symBinAddr: 0x10000E1A8, symSize: 0x28 }
  - { offsetInCU: 0x1EF0B, offset: 0x1EF0B, size: 0x8, addend: 0x0, symName: __ZNSt3__114__split_bufferIP5OrderRNS_9allocatorIS2_EEE9__end_capB8ue170006Ev, symObjAddr: 0xAA40, symBinAddr: 0x10000E1D0, symSize: 0x28 }
  - { offsetInCU: 0x1EF31, offset: 0x1EF31, size: 0x8, addend: 0x0, symName: __ZNSt3__117__compressed_pairIPP5OrderRNS_9allocatorIS2_EEEC2B8ue170006IDnS6_EEOT_OT0_, symObjAddr: 0xAA68, symBinAddr: 0x10000E1F8, symSize: 0x48 }
  - { offsetInCU: 0x1EF89, offset: 0x1EF89, size: 0x8, addend: 0x0, symName: __ZNSt3__122__compressed_pair_elemIRNS_9allocatorIP5OrderEELi1ELb0EEC2B8ue170006IS5_vEEOT_, symObjAddr: 0xAAB0, symBinAddr: 0x10000E240, symSize: 0x20 }
  - { offsetInCU: 0x1EFCB, offset: 0x1EFCB, size: 0x8, addend: 0x0, symName: __ZNSt3__19allocatorIP5OrderE8allocateB8ue170006Em, symObjAddr: 0xAAD0, symBinAddr: 0x10000E260, symSize: 0x84 }
  - { offsetInCU: 0x1EFFF, offset: 0x1EFFF, size: 0x8, addend: 0x0, symName: __ZNSt3__117__compressed_pairIPP5OrderRNS_9allocatorIS2_EEE6secondB8ue170006Ev, symObjAddr: 0xAB54, symBinAddr: 0x10000E2E4, symSize: 0x28 }
  - { offsetInCU: 0x1F025, offset: 0x1F025, size: 0x8, addend: 0x0, symName: __ZNSt3__122__compressed_pair_elemIRNS_9allocatorIP5OrderEELi1ELb0EE5__getB8ue170006Ev, symObjAddr: 0xAB7C, symBinAddr: 0x10000E30C, symSize: 0x18 }
  - { offsetInCU: 0x1F04B, offset: 0x1F04B, size: 0x8, addend: 0x0, symName: __ZNSt3__117__compressed_pairIPP5OrderRNS_9allocatorIS2_EEE5firstB8ue170006Ev, symObjAddr: 0xAB94, symBinAddr: 0x10000E324, symSize: 0x24 }
  - { offsetInCU: 0x1F07B, offset: 0x1F07B, size: 0x8, addend: 0x0, symName: __ZNSt3__114__split_bufferIP5OrderRNS_9allocatorIS2_EEE21_ConstructTransactionC1B8ue170006EPPS2_m, symObjAddr: 0xABB8, symBinAddr: 0x10000E348, symSize: 0x3C }
  - { offsetInCU: 0x1F0C1, offset: 0x1F0C1, size: 0x8, addend: 0x0, symName: __ZNSt3__114__split_bufferIP5OrderRNS_9allocatorIS2_EEE21_ConstructTransactionD1B8ue170006Ev, symObjAddr: 0xABF4, symBinAddr: 0x10000E384, symSize: 0x2C }
  - { offsetInCU: 0x1F0EB, offset: 0x1F0EB, size: 0x8, addend: 0x0, symName: __ZNSt3__114__split_bufferIP5OrderRNS_9allocatorIS2_EEE21_ConstructTransactionC2B8ue170006EPPS2_m, symObjAddr: 0xAC20, symBinAddr: 0x10000E3B0, symSize: 0x44 }
  - { offsetInCU: 0x1F131, offset: 0x1F131, size: 0x8, addend: 0x0, symName: __ZNSt3__114__split_bufferIP5OrderRNS_9allocatorIS2_EEE21_ConstructTransactionD2B8ue170006Ev, symObjAddr: 0xAC64, symBinAddr: 0x10000E3F4, symSize: 0x20 }
  - { offsetInCU: 0x1F15B, offset: 0x1F15B, size: 0x8, addend: 0x0, symName: __ZNSt3__116reverse_iteratorIPP5OrderEC1B8ue170006ES3_, symObjAddr: 0xAD6C, symBinAddr: 0x10000E4FC, symSize: 0x34 }
  - { offsetInCU: 0x1F193, offset: 0x1F193, size: 0x8, addend: 0x0, symName: __ZNKSt3__116reverse_iteratorIPP5OrderE4baseB8ue170006Ev, symObjAddr: 0xADA0, symBinAddr: 0x10000E530, symSize: 0x18 }
  - { offsetInCU: 0x1F1B9, offset: 0x1F1B9, size: 0x8, addend: 0x0, symName: __ZNKSt3__16vectorIP5OrderNS_9allocatorIS2_EEE14__annotate_newB8ue170006Em, symObjAddr: 0xADF4, symBinAddr: 0x10000E584, symSize: 0xAC }
  - { offsetInCU: 0x1F1EE, offset: 0x1F1EE, size: 0x8, addend: 0x0, symName: __ZNKSt3__116reverse_iteratorIPP5OrderEdeB8ue170006Ev, symObjAddr: 0xAF38, symBinAddr: 0x10000E6C8, symSize: 0x28 }
  - { offsetInCU: 0x1F222, offset: 0x1F222, size: 0x8, addend: 0x0, symName: __ZNSt3__116reverse_iteratorIPP5OrderEppB8ue170006Ev, symObjAddr: 0xAF60, symBinAddr: 0x10000E6F0, symSize: 0x20 }
  - { offsetInCU: 0x1F24D, offset: 0x1F24D, size: 0x8, addend: 0x0, symName: __ZNSt3__119__to_address_helperINS_16reverse_iteratorIPP5OrderEEvE6__callB8ue170006ERKS5_, symObjAddr: 0xAFF8, symBinAddr: 0x10000E788, symSize: 0x4C }
  - { offsetInCU: 0x1F270, offset: 0x1F270, size: 0x8, addend: 0x0, symName: __ZNKSt3__116reverse_iteratorIPP5OrderEptB8ue170006Ev, symObjAddr: 0xB044, symBinAddr: 0x10000E7D4, symSize: 0x24 }
  - { offsetInCU: 0x1F2B0, offset: 0x1F2B0, size: 0x8, addend: 0x0, symName: __ZNKSt3__111__move_loopINS_17_ClassicAlgPolicyEEclB8ue170006INS_16reverse_iteratorIPP5OrderEES8_S8_EENS_4pairIT_T1_EESA_T0_SB_, symObjAddr: 0xB2E0, symBinAddr: 0x10000EA70, symSize: 0xA0 }
  - { offsetInCU: 0x1F321, offset: 0x1F321, size: 0x8, addend: 0x0, symName: __ZNSt3__18_IterOpsINS_17_ClassicAlgPolicyEE11__iter_moveB8ue170006IRNS_16reverse_iteratorIPP5OrderEEEENS_9enable_ifIXsr12is_referenceIDTdeclsr3stdE7declvalIRT_EEEEE5valueEDTclsr3stdE4movedeclsr3stdE7declvalISC_EEEEE4typeEOSB_, symObjAddr: 0xB4E0, symBinAddr: 0x10000EC70, symSize: 0x28 }
  - { offsetInCU: 0x1F34D, offset: 0x1F34D, size: 0x8, addend: 0x0, symName: __ZNSt3__18_IterOpsINS_17_ClassicAlgPolicyEE25__validate_iter_referenceB8ue170006IRNS_16reverse_iteratorIPP5OrderEEEEvv, symObjAddr: 0xB508, symBinAddr: 0x10000EC98, symSize: 0x4 }
  - { offsetInCU: 0x1F36B, offset: 0x1F36B, size: 0x8, addend: 0x0, symName: __ZNSt3__118__unwrap_iter_implINS_16reverse_iteratorIPP5OrderEELb0EE8__unwrapB8ue170006ES5_, symObjAddr: 0xB50C, symBinAddr: 0x10000EC9C, symSize: 0x24 }
  - { offsetInCU: 0x1F38E, offset: 0x1F38E, size: 0x8, addend: 0x0, symName: __ZNSt3__14pairINS_16reverse_iteratorIPP5OrderEES5_EC1B8ue170006ERKS5_S8_, symObjAddr: 0xB530, symBinAddr: 0x10000ECC0, symSize: 0x3C }
  - { offsetInCU: 0x1F3D4, offset: 0x1F3D4, size: 0x8, addend: 0x0, symName: __ZNSt3__14pairINS_16reverse_iteratorIPP5OrderEES5_EC2B8ue170006ERKS5_S8_, symObjAddr: 0xB56C, symBinAddr: 0x10000ECFC, symSize: 0x34 }
  - { offsetInCU: 0x1F41A, offset: 0x1F41A, size: 0x8, addend: 0x0, symName: __ZNSt3__118__unwrap_iter_implINS_16reverse_iteratorIPP5OrderEELb0EE8__rewrapB8ue170006ES5_S5_, symObjAddr: 0xB5A0, symBinAddr: 0x10000ED30, symSize: 0x2C }
  - { offsetInCU: 0x1F448, offset: 0x1F448, size: 0x8, addend: 0x0, symName: __ZNSt3__116reverse_iteratorIPP5OrderEC2B8ue170006ES3_, symObjAddr: 0xB5CC, symBinAddr: 0x10000ED5C, symSize: 0x28 }
  - { offsetInCU: 0x1F480, offset: 0x1F480, size: 0x8, addend: 0x0, symName: __ZNSt3__114__split_bufferIP5OrderRNS_9allocatorIS2_EEED2Ev, symObjAddr: 0xB5F4, symBinAddr: 0x10000ED84, symSize: 0x80 }
  - { offsetInCU: 0x1F4AC, offset: 0x1F4AC, size: 0x8, addend: 0x0, symName: __ZNSt3__114__split_bufferIP5OrderRNS_9allocatorIS2_EEE5clearB8ue170006Ev, symObjAddr: 0xB674, symBinAddr: 0x10000EE04, symSize: 0x28 }
  - { offsetInCU: 0x1F4D2, offset: 0x1F4D2, size: 0x8, addend: 0x0, symName: __ZNKSt3__114__split_bufferIP5OrderRNS_9allocatorIS2_EEE8capacityB8ue170006Ev, symObjAddr: 0xB69C, symBinAddr: 0x10000EE2C, symSize: 0x40 }
  - { offsetInCU: 0x1F4F8, offset: 0x1F4F8, size: 0x8, addend: 0x0, symName: __ZNSt3__114__split_bufferIP5OrderRNS_9allocatorIS2_EEE17__destruct_at_endB8ue170006EPS2_, symObjAddr: 0xB6DC, symBinAddr: 0x10000EE6C, symSize: 0x2C }
  - { offsetInCU: 0x1F52C, offset: 0x1F52C, size: 0x8, addend: 0x0, symName: __ZNSt3__114__split_bufferIP5OrderRNS_9allocatorIS2_EEE17__destruct_at_endB8ue170006EPS2_NS_17integral_constantIbLb0EEE, symObjAddr: 0xB708, symBinAddr: 0x10000EE98, symSize: 0x94 }
  - { offsetInCU: 0x1F56D, offset: 0x1F56D, size: 0x8, addend: 0x0, symName: __ZNKSt3__114__split_bufferIP5OrderRNS_9allocatorIS2_EEE9__end_capB8ue170006Ev, symObjAddr: 0xB79C, symBinAddr: 0x10000EF2C, symSize: 0x28 }
  - { offsetInCU: 0x1F593, offset: 0x1F593, size: 0x8, addend: 0x0, symName: __ZNKSt3__117__compressed_pairIPP5OrderRNS_9allocatorIS2_EEE5firstB8ue170006Ev, symObjAddr: 0xB7C4, symBinAddr: 0x10000EF54, symSize: 0x24 }
  - { offsetInCU: 0x1F5B9, offset: 0x1F5B9, size: 0x8, addend: 0x0, symName: __ZNKSt3__16vectorIP5OrderNS_9allocatorIS2_EEE17__annotate_shrinkB8ue170006Em, symObjAddr: 0xB7E8, symBinAddr: 0x10000EF78, symSize: 0xB4 }
  - { offsetInCU: 0x1F5EE, offset: 0x1F5EE, size: 0x8, addend: 0x0, symName: __ZNSt3__16vectorIiNS_9allocatorIiEEE9__end_capB8ue170006Ev, symObjAddr: 0xB89C, symBinAddr: 0x10000F02C, symSize: 0x28 }
  - { offsetInCU: 0x1F614, offset: 0x1F614, size: 0x8, addend: 0x0, symName: __ZNSt3__16vectorIiNS_9allocatorIiEEE22__construct_one_at_endB8ue170006IJRKiEEEvDpOT_, symObjAddr: 0xB8C4, symBinAddr: 0x10000F054, symSize: 0x98 }
  - { offsetInCU: 0x1F663, offset: 0x1F663, size: 0x8, addend: 0x0, symName: __ZNSt3__16vectorIiNS_9allocatorIiEEE21__push_back_slow_pathIRKiEEvOT_, symObjAddr: 0xB95C, symBinAddr: 0x10000F0EC, symSize: 0xE0 }
  - { offsetInCU: 0x1F6C1, offset: 0x1F6C1, size: 0x8, addend: 0x0, symName: __ZNSt3__117__compressed_pairIPiNS_9allocatorIiEEE5firstB8ue170006Ev, symObjAddr: 0xBA3C, symBinAddr: 0x10000F1CC, symSize: 0x24 }
  - { offsetInCU: 0x1F6E7, offset: 0x1F6E7, size: 0x8, addend: 0x0, symName: __ZNSt3__122__compressed_pair_elemIPiLi0ELb0EE5__getB8ue170006Ev, symObjAddr: 0xBA60, symBinAddr: 0x10000F1F0, symSize: 0x14 }
  - { offsetInCU: 0x1F726, offset: 0x1F726, size: 0x8, addend: 0x0, symName: __ZNSt3__16vectorIiNS_9allocatorIiEEE21_ConstructTransactionC1B8ue170006ERS3_m, symObjAddr: 0xBA74, symBinAddr: 0x10000F204, symSize: 0x3C }
  - { offsetInCU: 0x1F76E, offset: 0x1F76E, size: 0x8, addend: 0x0, symName: __ZNSt3__116allocator_traitsINS_9allocatorIiEEE9constructB8ue170006IiJRKiEvEEvRS2_PT_DpOT0_, symObjAddr: 0xBAB0, symBinAddr: 0x10000F240, symSize: 0x34 }
  - { offsetInCU: 0x1F7C5, offset: 0x1F7C5, size: 0x8, addend: 0x0, symName: __ZNSt3__16vectorIiNS_9allocatorIiEEE21_ConstructTransactionD1B8ue170006Ev, symObjAddr: 0xBAE4, symBinAddr: 0x10000F274, symSize: 0x2C }
  - { offsetInCU: 0x1F7EF, offset: 0x1F7EF, size: 0x8, addend: 0x0, symName: __ZNSt3__16vectorIiNS_9allocatorIiEEE21_ConstructTransactionC2B8ue170006ERS3_m, symObjAddr: 0xBB10, symBinAddr: 0x10000F2A0, symSize: 0x44 }
  - { offsetInCU: 0x1F837, offset: 0x1F837, size: 0x8, addend: 0x0, symName: __ZNSt3__19allocatorIiE9constructB8ue170006IiJRKiEEEvPT_DpOT0_, symObjAddr: 0xBB54, symBinAddr: 0x10000F2E4, symSize: 0x28 }
  - { offsetInCU: 0x1F88D, offset: 0x1F88D, size: 0x8, addend: 0x0, symName: __ZNSt3__16vectorIiNS_9allocatorIiEEE21_ConstructTransactionD2B8ue170006Ev, symObjAddr: 0xBB7C, symBinAddr: 0x10000F30C, symSize: 0x20 }
  - { offsetInCU: 0x1F8B7, offset: 0x1F8B7, size: 0x8, addend: 0x0, symName: __ZNKSt3__16vectorIiNS_9allocatorIiEEE11__recommendB8ue170006Em, symObjAddr: 0xBB9C, symBinAddr: 0x10000F32C, symSize: 0xB4 }
  - { offsetInCU: 0x1F90C, offset: 0x1F90C, size: 0x8, addend: 0x0, symName: __ZNSt3__114__split_bufferIiRNS_9allocatorIiEEEC1EmmS3_, symObjAddr: 0xBC50, symBinAddr: 0x10000F3E0, symSize: 0x44 }
  - { offsetInCU: 0x1F962, offset: 0x1F962, size: 0x8, addend: 0x0, symName: __ZNSt3__114__split_bufferIiRNS_9allocatorIiEEED1Ev, symObjAddr: 0xBDA4, symBinAddr: 0x10000F534, symSize: 0x2C }
  - { offsetInCU: 0x1F98E, offset: 0x1F98E, size: 0x8, addend: 0x0, symName: __ZNKSt3__16vectorIiNS_9allocatorIiEEE8max_sizeEv, symObjAddr: 0xBDD0, symBinAddr: 0x10000F560, symSize: 0x74 }
  - { offsetInCU: 0x1F9B6, offset: 0x1F9B6, size: 0x8, addend: 0x0, symName: __ZNKSt3__16vectorIiNS_9allocatorIiEEE20__throw_length_errorB8ue170006Ev, symObjAddr: 0xBE44, symBinAddr: 0x10000F5D4, symSize: 0x1C }
  - { offsetInCU: 0x1F9E6, offset: 0x1F9E6, size: 0x8, addend: 0x0, symName: __ZNSt3__116allocator_traitsINS_9allocatorIiEEE8max_sizeB8ue170006IS2_vEEmRKS2_, symObjAddr: 0xBE60, symBinAddr: 0x10000F5F0, symSize: 0x24 }
  - { offsetInCU: 0x1FA14, offset: 0x1FA14, size: 0x8, addend: 0x0, symName: __ZNKSt3__16vectorIiNS_9allocatorIiEEE7__allocB8ue170006Ev, symObjAddr: 0xBE84, symBinAddr: 0x10000F614, symSize: 0x28 }
  - { offsetInCU: 0x1FA3A, offset: 0x1FA3A, size: 0x8, addend: 0x0, symName: __ZNKSt3__19allocatorIiE8max_sizeB8ue170006Ev, symObjAddr: 0xBEAC, symBinAddr: 0x10000F63C, symSize: 0x14 }
  - { offsetInCU: 0x1FA60, offset: 0x1FA60, size: 0x8, addend: 0x0, symName: __ZNKSt3__117__compressed_pairIPiNS_9allocatorIiEEE6secondB8ue170006Ev, symObjAddr: 0xBEC0, symBinAddr: 0x10000F650, symSize: 0x24 }
  - { offsetInCU: 0x1FA86, offset: 0x1FA86, size: 0x8, addend: 0x0, symName: __ZNKSt3__122__compressed_pair_elemINS_9allocatorIiEELi1ELb1EE5__getB8ue170006Ev, symObjAddr: 0xBEE4, symBinAddr: 0x10000F674, symSize: 0x14 }
  - { offsetInCU: 0x1FAAC, offset: 0x1FAAC, size: 0x8, addend: 0x0, symName: __ZNSt3__114__split_bufferIiRNS_9allocatorIiEEEC2EmmS3_, symObjAddr: 0xBEF8, symBinAddr: 0x10000F688, symSize: 0xD4 }
  - { offsetInCU: 0x1FB1F, offset: 0x1FB1F, size: 0x8, addend: 0x0, symName: __ZNSt3__117__compressed_pairIPiRNS_9allocatorIiEEEC1B8ue170006IDnS4_EEOT_OT0_, symObjAddr: 0xBFCC, symBinAddr: 0x10000F75C, symSize: 0x3C }
  - { offsetInCU: 0x1FB77, offset: 0x1FB77, size: 0x8, addend: 0x0, symName: __ZNSt3__114__split_bufferIiRNS_9allocatorIiEEE7__allocB8ue170006Ev, symObjAddr: 0xC048, symBinAddr: 0x10000F7D8, symSize: 0x28 }
  - { offsetInCU: 0x1FB9D, offset: 0x1FB9D, size: 0x8, addend: 0x0, symName: __ZNSt3__114__split_bufferIiRNS_9allocatorIiEEE9__end_capB8ue170006Ev, symObjAddr: 0xC070, symBinAddr: 0x10000F800, symSize: 0x28 }
  - { offsetInCU: 0x1FBC3, offset: 0x1FBC3, size: 0x8, addend: 0x0, symName: __ZNSt3__117__compressed_pairIPiRNS_9allocatorIiEEEC2B8ue170006IDnS4_EEOT_OT0_, symObjAddr: 0xC098, symBinAddr: 0x10000F828, symSize: 0x48 }
  - { offsetInCU: 0x1FC1B, offset: 0x1FC1B, size: 0x8, addend: 0x0, symName: __ZNSt3__122__compressed_pair_elemIRNS_9allocatorIiEELi1ELb0EEC2B8ue170006IS3_vEEOT_, symObjAddr: 0xC0E0, symBinAddr: 0x10000F870, symSize: 0x20 }
  - { offsetInCU: 0x1FC5D, offset: 0x1FC5D, size: 0x8, addend: 0x0, symName: __ZNSt3__19allocatorIiE8allocateB8ue170006Em, symObjAddr: 0xC100, symBinAddr: 0x10000F890, symSize: 0x84 }
  - { offsetInCU: 0x1FC91, offset: 0x1FC91, size: 0x8, addend: 0x0, symName: __ZNSt3__117__compressed_pairIPiRNS_9allocatorIiEEE6secondB8ue170006Ev, symObjAddr: 0xC184, symBinAddr: 0x10000F914, symSize: 0x28 }
  - { offsetInCU: 0x1FCB7, offset: 0x1FCB7, size: 0x8, addend: 0x0, symName: __ZNSt3__122__compressed_pair_elemIRNS_9allocatorIiEELi1ELb0EE5__getB8ue170006Ev, symObjAddr: 0xC1AC, symBinAddr: 0x10000F93C, symSize: 0x18 }
  - { offsetInCU: 0x1FCDD, offset: 0x1FCDD, size: 0x8, addend: 0x0, symName: __ZNSt3__117__compressed_pairIPiRNS_9allocatorIiEEE5firstB8ue170006Ev, symObjAddr: 0xC1C4, symBinAddr: 0x10000F954, symSize: 0x24 }
  - { offsetInCU: 0x1FD03, offset: 0x1FD03, size: 0x8, addend: 0x0, symName: __ZNSt3__116reverse_iteratorIPiEC1B8ue170006ES1_, symObjAddr: 0xC2D0, symBinAddr: 0x10000FA60, symSize: 0x34 }
  - { offsetInCU: 0x1FD3B, offset: 0x1FD3B, size: 0x8, addend: 0x0, symName: __ZNKSt3__116reverse_iteratorIPiE4baseB8ue170006Ev, symObjAddr: 0xC304, symBinAddr: 0x10000FA94, symSize: 0x18 }
  - { offsetInCU: 0x1FD61, offset: 0x1FD61, size: 0x8, addend: 0x0, symName: __ZNKSt3__16vectorIiNS_9allocatorIiEEE14__annotate_newB8ue170006Em, symObjAddr: 0xC358, symBinAddr: 0x10000FAE8, symSize: 0xAC }
  - { offsetInCU: 0x1FD96, offset: 0x1FD96, size: 0x8, addend: 0x0, symName: __ZNKSt3__116reverse_iteratorIPiEdeB8ue170006Ev, symObjAddr: 0xC49C, symBinAddr: 0x10000FC2C, symSize: 0x28 }
  - { offsetInCU: 0x1FDCA, offset: 0x1FDCA, size: 0x8, addend: 0x0, symName: __ZNSt3__116reverse_iteratorIPiEppB8ue170006Ev, symObjAddr: 0xC4C4, symBinAddr: 0x10000FC54, symSize: 0x20 }
  - { offsetInCU: 0x1FDF5, offset: 0x1FDF5, size: 0x8, addend: 0x0, symName: __ZNSt3__119__to_address_helperINS_16reverse_iteratorIPiEEvE6__callB8ue170006ERKS3_, symObjAddr: 0xC55C, symBinAddr: 0x10000FCEC, symSize: 0x4C }
  - { offsetInCU: 0x1FE18, offset: 0x1FE18, size: 0x8, addend: 0x0, symName: __ZNKSt3__116reverse_iteratorIPiEptB8ue170006Ev, symObjAddr: 0xC5A8, symBinAddr: 0x10000FD38, symSize: 0x24 }
  - { offsetInCU: 0x1FE58, offset: 0x1FE58, size: 0x8, addend: 0x0, symName: __ZNKSt3__111__move_loopINS_17_ClassicAlgPolicyEEclB8ue170006INS_16reverse_iteratorIPiEES6_S6_EENS_4pairIT_T1_EES8_T0_S9_, symObjAddr: 0xC844, symBinAddr: 0x10000FFD4, symSize: 0xA0 }
  - { offsetInCU: 0x1FEC9, offset: 0x1FEC9, size: 0x8, addend: 0x0, symName: __ZNSt3__18_IterOpsINS_17_ClassicAlgPolicyEE11__iter_moveB8ue170006IRNS_16reverse_iteratorIPiEEEENS_9enable_ifIXsr12is_referenceIDTdeclsr3stdE7declvalIRT_EEEEE5valueEDTclsr3stdE4movedeclsr3stdE7declvalISA_EEEEE4typeEOS9_, symObjAddr: 0xCA44, symBinAddr: 0x1000101D4, symSize: 0x28 }
  - { offsetInCU: 0x1FEF5, offset: 0x1FEF5, size: 0x8, addend: 0x0, symName: __ZNSt3__18_IterOpsINS_17_ClassicAlgPolicyEE25__validate_iter_referenceB8ue170006IRNS_16reverse_iteratorIPiEEEEvv, symObjAddr: 0xCA6C, symBinAddr: 0x1000101FC, symSize: 0x4 }
  - { offsetInCU: 0x1FF13, offset: 0x1FF13, size: 0x8, addend: 0x0, symName: __ZNSt3__118__unwrap_iter_implINS_16reverse_iteratorIPiEELb0EE8__unwrapB8ue170006ES3_, symObjAddr: 0xCA70, symBinAddr: 0x100010200, symSize: 0x24 }
  - { offsetInCU: 0x1FF36, offset: 0x1FF36, size: 0x8, addend: 0x0, symName: __ZNSt3__14pairINS_16reverse_iteratorIPiEES3_EC1B8ue170006ERKS3_S6_, symObjAddr: 0xCA94, symBinAddr: 0x100010224, symSize: 0x3C }
  - { offsetInCU: 0x1FF7C, offset: 0x1FF7C, size: 0x8, addend: 0x0, symName: __ZNSt3__14pairINS_16reverse_iteratorIPiEES3_EC2B8ue170006ERKS3_S6_, symObjAddr: 0xCAD0, symBinAddr: 0x100010260, symSize: 0x34 }
  - { offsetInCU: 0x1FFC2, offset: 0x1FFC2, size: 0x8, addend: 0x0, symName: __ZNSt3__118__unwrap_iter_implINS_16reverse_iteratorIPiEELb0EE8__rewrapB8ue170006ES3_S3_, symObjAddr: 0xCB04, symBinAddr: 0x100010294, symSize: 0x2C }
  - { offsetInCU: 0x1FFF0, offset: 0x1FFF0, size: 0x8, addend: 0x0, symName: __ZNSt3__116reverse_iteratorIPiEC2B8ue170006ES1_, symObjAddr: 0xCB30, symBinAddr: 0x1000102C0, symSize: 0x28 }
  - { offsetInCU: 0x20028, offset: 0x20028, size: 0x8, addend: 0x0, symName: __ZNSt3__114__split_bufferIiRNS_9allocatorIiEEED2Ev, symObjAddr: 0xCB58, symBinAddr: 0x1000102E8, symSize: 0x80 }
  - { offsetInCU: 0x20054, offset: 0x20054, size: 0x8, addend: 0x0, symName: __ZNSt3__114__split_bufferIiRNS_9allocatorIiEEE5clearB8ue170006Ev, symObjAddr: 0xCBD8, symBinAddr: 0x100010368, symSize: 0x28 }
  - { offsetInCU: 0x2007A, offset: 0x2007A, size: 0x8, addend: 0x0, symName: __ZNKSt3__114__split_bufferIiRNS_9allocatorIiEEE8capacityB8ue170006Ev, symObjAddr: 0xCC00, symBinAddr: 0x100010390, symSize: 0x40 }
  - { offsetInCU: 0x200A0, offset: 0x200A0, size: 0x8, addend: 0x0, symName: __ZNSt3__114__split_bufferIiRNS_9allocatorIiEEE17__destruct_at_endB8ue170006EPi, symObjAddr: 0xCC40, symBinAddr: 0x1000103D0, symSize: 0x2C }
  - { offsetInCU: 0x200D4, offset: 0x200D4, size: 0x8, addend: 0x0, symName: __ZNSt3__114__split_bufferIiRNS_9allocatorIiEEE17__destruct_at_endB8ue170006EPiNS_17integral_constantIbLb0EEE, symObjAddr: 0xCC6C, symBinAddr: 0x1000103FC, symSize: 0x94 }
  - { offsetInCU: 0x20115, offset: 0x20115, size: 0x8, addend: 0x0, symName: __ZNKSt3__114__split_bufferIiRNS_9allocatorIiEEE9__end_capB8ue170006Ev, symObjAddr: 0xCD00, symBinAddr: 0x100010490, symSize: 0x28 }
  - { offsetInCU: 0x2013B, offset: 0x2013B, size: 0x8, addend: 0x0, symName: __ZNKSt3__117__compressed_pairIPiRNS_9allocatorIiEEE5firstB8ue170006Ev, symObjAddr: 0xCD28, symBinAddr: 0x1000104B8, symSize: 0x24 }
  - { offsetInCU: 0x20161, offset: 0x20161, size: 0x8, addend: 0x0, symName: __ZNSt3__16vectorIP4EdgeNS_9allocatorIS2_EEE9__end_capB8ue170006Ev, symObjAddr: 0xCD4C, symBinAddr: 0x1000104DC, symSize: 0x28 }
  - { offsetInCU: 0x20187, offset: 0x20187, size: 0x8, addend: 0x0, symName: __ZNSt3__16vectorIP4EdgeNS_9allocatorIS2_EEE22__construct_one_at_endB8ue170006IJRKS2_EEEvDpOT_, symObjAddr: 0xCD74, symBinAddr: 0x100010504, symSize: 0x98 }
  - { offsetInCU: 0x201D6, offset: 0x201D6, size: 0x8, addend: 0x0, symName: __ZNSt3__16vectorIP4EdgeNS_9allocatorIS2_EEE21__push_back_slow_pathIRKS2_EEvOT_, symObjAddr: 0xCE0C, symBinAddr: 0x10001059C, symSize: 0xE0 }
  - { offsetInCU: 0x20234, offset: 0x20234, size: 0x8, addend: 0x0, symName: __ZNSt3__117__compressed_pairIPP4EdgeNS_9allocatorIS2_EEE5firstB8ue170006Ev, symObjAddr: 0xCEEC, symBinAddr: 0x10001067C, symSize: 0x24 }
  - { offsetInCU: 0x2025A, offset: 0x2025A, size: 0x8, addend: 0x0, symName: __ZNSt3__122__compressed_pair_elemIPP4EdgeLi0ELb0EE5__getB8ue170006Ev, symObjAddr: 0xCF10, symBinAddr: 0x1000106A0, symSize: 0x14 }
  - { offsetInCU: 0x20299, offset: 0x20299, size: 0x8, addend: 0x0, symName: __ZNSt3__16vectorIP4EdgeNS_9allocatorIS2_EEE21_ConstructTransactionC1B8ue170006ERS5_m, symObjAddr: 0xCF24, symBinAddr: 0x1000106B4, symSize: 0x3C }
  - { offsetInCU: 0x202E1, offset: 0x202E1, size: 0x8, addend: 0x0, symName: __ZNSt3__116allocator_traitsINS_9allocatorIP4EdgeEEE9constructB8ue170006IS3_JRKS3_EvEEvRS4_PT_DpOT0_, symObjAddr: 0xCF60, symBinAddr: 0x1000106F0, symSize: 0x34 }
  - { offsetInCU: 0x20338, offset: 0x20338, size: 0x8, addend: 0x0, symName: __ZNSt3__16vectorIP4EdgeNS_9allocatorIS2_EEE21_ConstructTransactionD1B8ue170006Ev, symObjAddr: 0xCF94, symBinAddr: 0x100010724, symSize: 0x2C }
  - { offsetInCU: 0x20362, offset: 0x20362, size: 0x8, addend: 0x0, symName: __ZNSt3__16vectorIP4EdgeNS_9allocatorIS2_EEE21_ConstructTransactionC2B8ue170006ERS5_m, symObjAddr: 0xCFC0, symBinAddr: 0x100010750, symSize: 0x44 }
  - { offsetInCU: 0x203AA, offset: 0x203AA, size: 0x8, addend: 0x0, symName: __ZNSt3__19allocatorIP4EdgeE9constructB8ue170006IS2_JRKS2_EEEvPT_DpOT0_, symObjAddr: 0xD004, symBinAddr: 0x100010794, symSize: 0x28 }
  - { offsetInCU: 0x20400, offset: 0x20400, size: 0x8, addend: 0x0, symName: __ZNSt3__16vectorIP4EdgeNS_9allocatorIS2_EEE21_ConstructTransactionD2B8ue170006Ev, symObjAddr: 0xD02C, symBinAddr: 0x1000107BC, symSize: 0x20 }
  - { offsetInCU: 0x2042A, offset: 0x2042A, size: 0x8, addend: 0x0, symName: __ZNKSt3__16vectorIP4EdgeNS_9allocatorIS2_EEE11__recommendB8ue170006Em, symObjAddr: 0xD04C, symBinAddr: 0x1000107DC, symSize: 0xB4 }
  - { offsetInCU: 0x2047F, offset: 0x2047F, size: 0x8, addend: 0x0, symName: __ZNSt3__114__split_bufferIP4EdgeRNS_9allocatorIS2_EEEC1EmmS5_, symObjAddr: 0xD100, symBinAddr: 0x100010890, symSize: 0x44 }
  - { offsetInCU: 0x204D5, offset: 0x204D5, size: 0x8, addend: 0x0, symName: __ZNSt3__114__split_bufferIP4EdgeRNS_9allocatorIS2_EEED1Ev, symObjAddr: 0xD254, symBinAddr: 0x1000109E4, symSize: 0x2C }
  - { offsetInCU: 0x20501, offset: 0x20501, size: 0x8, addend: 0x0, symName: __ZNKSt3__16vectorIP4EdgeNS_9allocatorIS2_EEE8max_sizeEv, symObjAddr: 0xD280, symBinAddr: 0x100010A10, symSize: 0x74 }
  - { offsetInCU: 0x20529, offset: 0x20529, size: 0x8, addend: 0x0, symName: __ZNKSt3__16vectorIP4EdgeNS_9allocatorIS2_EEE20__throw_length_errorB8ue170006Ev, symObjAddr: 0xD2F4, symBinAddr: 0x100010A84, symSize: 0x1C }
  - { offsetInCU: 0x20559, offset: 0x20559, size: 0x8, addend: 0x0, symName: __ZNSt3__116allocator_traitsINS_9allocatorIP4EdgeEEE8max_sizeB8ue170006IS4_vEEmRKS4_, symObjAddr: 0xD310, symBinAddr: 0x100010AA0, symSize: 0x24 }
  - { offsetInCU: 0x20587, offset: 0x20587, size: 0x8, addend: 0x0, symName: __ZNKSt3__16vectorIP4EdgeNS_9allocatorIS2_EEE7__allocB8ue170006Ev, symObjAddr: 0xD334, symBinAddr: 0x100010AC4, symSize: 0x28 }
  - { offsetInCU: 0x205AD, offset: 0x205AD, size: 0x8, addend: 0x0, symName: __ZNKSt3__19allocatorIP4EdgeE8max_sizeB8ue170006Ev, symObjAddr: 0xD35C, symBinAddr: 0x100010AEC, symSize: 0x14 }
  - { offsetInCU: 0x205D3, offset: 0x205D3, size: 0x8, addend: 0x0, symName: __ZNKSt3__117__compressed_pairIPP4EdgeNS_9allocatorIS2_EEE6secondB8ue170006Ev, symObjAddr: 0xD370, symBinAddr: 0x100010B00, symSize: 0x24 }
  - { offsetInCU: 0x205F9, offset: 0x205F9, size: 0x8, addend: 0x0, symName: __ZNKSt3__122__compressed_pair_elemINS_9allocatorIP4EdgeEELi1ELb1EE5__getB8ue170006Ev, symObjAddr: 0xD394, symBinAddr: 0x100010B24, symSize: 0x14 }
  - { offsetInCU: 0x2061F, offset: 0x2061F, size: 0x8, addend: 0x0, symName: __ZNSt3__114__split_bufferIP4EdgeRNS_9allocatorIS2_EEEC2EmmS5_, symObjAddr: 0xD3A8, symBinAddr: 0x100010B38, symSize: 0xD4 }
  - { offsetInCU: 0x20692, offset: 0x20692, size: 0x8, addend: 0x0, symName: __ZNSt3__117__compressed_pairIPP4EdgeRNS_9allocatorIS2_EEEC1B8ue170006IDnS6_EEOT_OT0_, symObjAddr: 0xD47C, symBinAddr: 0x100010C0C, symSize: 0x3C }
  - { offsetInCU: 0x206EA, offset: 0x206EA, size: 0x8, addend: 0x0, symName: __ZNSt3__114__split_bufferIP4EdgeRNS_9allocatorIS2_EEE7__allocB8ue170006Ev, symObjAddr: 0xD4F8, symBinAddr: 0x100010C88, symSize: 0x28 }
  - { offsetInCU: 0x20710, offset: 0x20710, size: 0x8, addend: 0x0, symName: __ZNSt3__114__split_bufferIP4EdgeRNS_9allocatorIS2_EEE9__end_capB8ue170006Ev, symObjAddr: 0xD520, symBinAddr: 0x100010CB0, symSize: 0x28 }
  - { offsetInCU: 0x20736, offset: 0x20736, size: 0x8, addend: 0x0, symName: __ZNSt3__117__compressed_pairIPP4EdgeRNS_9allocatorIS2_EEEC2B8ue170006IDnS6_EEOT_OT0_, symObjAddr: 0xD548, symBinAddr: 0x100010CD8, symSize: 0x48 }
  - { offsetInCU: 0x2078E, offset: 0x2078E, size: 0x8, addend: 0x0, symName: __ZNSt3__122__compressed_pair_elemIRNS_9allocatorIP4EdgeEELi1ELb0EEC2B8ue170006IS5_vEEOT_, symObjAddr: 0xD590, symBinAddr: 0x100010D20, symSize: 0x20 }
  - { offsetInCU: 0x207D0, offset: 0x207D0, size: 0x8, addend: 0x0, symName: __ZNSt3__19allocatorIP4EdgeE8allocateB8ue170006Em, symObjAddr: 0xD5B0, symBinAddr: 0x100010D40, symSize: 0x84 }
  - { offsetInCU: 0x20804, offset: 0x20804, size: 0x8, addend: 0x0, symName: __ZNSt3__117__compressed_pairIPP4EdgeRNS_9allocatorIS2_EEE6secondB8ue170006Ev, symObjAddr: 0xD634, symBinAddr: 0x100010DC4, symSize: 0x28 }
  - { offsetInCU: 0x2082A, offset: 0x2082A, size: 0x8, addend: 0x0, symName: __ZNSt3__122__compressed_pair_elemIRNS_9allocatorIP4EdgeEELi1ELb0EE5__getB8ue170006Ev, symObjAddr: 0xD65C, symBinAddr: 0x100010DEC, symSize: 0x18 }
  - { offsetInCU: 0x20850, offset: 0x20850, size: 0x8, addend: 0x0, symName: __ZNSt3__117__compressed_pairIPP4EdgeRNS_9allocatorIS2_EEE5firstB8ue170006Ev, symObjAddr: 0xD674, symBinAddr: 0x100010E04, symSize: 0x24 }
  - { offsetInCU: 0x20876, offset: 0x20876, size: 0x8, addend: 0x0, symName: __ZNSt3__116reverse_iteratorIPP4EdgeEC1B8ue170006ES3_, symObjAddr: 0xD780, symBinAddr: 0x100010F10, symSize: 0x34 }
  - { offsetInCU: 0x208AE, offset: 0x208AE, size: 0x8, addend: 0x0, symName: __ZNKSt3__116reverse_iteratorIPP4EdgeE4baseB8ue170006Ev, symObjAddr: 0xD7B4, symBinAddr: 0x100010F44, symSize: 0x18 }
  - { offsetInCU: 0x208D4, offset: 0x208D4, size: 0x8, addend: 0x0, symName: __ZNKSt3__16vectorIP4EdgeNS_9allocatorIS2_EEE14__annotate_newB8ue170006Em, symObjAddr: 0xD808, symBinAddr: 0x100010F98, symSize: 0xAC }
  - { offsetInCU: 0x20909, offset: 0x20909, size: 0x8, addend: 0x0, symName: __ZNKSt3__116reverse_iteratorIPP4EdgeEdeB8ue170006Ev, symObjAddr: 0xD94C, symBinAddr: 0x1000110DC, symSize: 0x28 }
  - { offsetInCU: 0x2093D, offset: 0x2093D, size: 0x8, addend: 0x0, symName: __ZNSt3__116reverse_iteratorIPP4EdgeEppB8ue170006Ev, symObjAddr: 0xD974, symBinAddr: 0x100011104, symSize: 0x20 }
  - { offsetInCU: 0x20968, offset: 0x20968, size: 0x8, addend: 0x0, symName: __ZNSt3__119__to_address_helperINS_16reverse_iteratorIPP4EdgeEEvE6__callB8ue170006ERKS5_, symObjAddr: 0xDA0C, symBinAddr: 0x10001119C, symSize: 0x4C }
  - { offsetInCU: 0x2098B, offset: 0x2098B, size: 0x8, addend: 0x0, symName: __ZNKSt3__116reverse_iteratorIPP4EdgeEptB8ue170006Ev, symObjAddr: 0xDA58, symBinAddr: 0x1000111E8, symSize: 0x24 }
  - { offsetInCU: 0x209CB, offset: 0x209CB, size: 0x8, addend: 0x0, symName: __ZNKSt3__111__move_loopINS_17_ClassicAlgPolicyEEclB8ue170006INS_16reverse_iteratorIPP4EdgeEES8_S8_EENS_4pairIT_T1_EESA_T0_SB_, symObjAddr: 0xDCF4, symBinAddr: 0x100011484, symSize: 0xA0 }
  - { offsetInCU: 0x20A3C, offset: 0x20A3C, size: 0x8, addend: 0x0, symName: __ZNSt3__18_IterOpsINS_17_ClassicAlgPolicyEE11__iter_moveB8ue170006IRNS_16reverse_iteratorIPP4EdgeEEEENS_9enable_ifIXsr12is_referenceIDTdeclsr3stdE7declvalIRT_EEEEE5valueEDTclsr3stdE4movedeclsr3stdE7declvalISC_EEEEE4typeEOSB_, symObjAddr: 0xDEF4, symBinAddr: 0x100011684, symSize: 0x28 }
  - { offsetInCU: 0x20A68, offset: 0x20A68, size: 0x8, addend: 0x0, symName: __ZNSt3__18_IterOpsINS_17_ClassicAlgPolicyEE25__validate_iter_referenceB8ue170006IRNS_16reverse_iteratorIPP4EdgeEEEEvv, symObjAddr: 0xDF1C, symBinAddr: 0x1000116AC, symSize: 0x4 }
  - { offsetInCU: 0x20A86, offset: 0x20A86, size: 0x8, addend: 0x0, symName: __ZNSt3__118__unwrap_iter_implINS_16reverse_iteratorIPP4EdgeEELb0EE8__unwrapB8ue170006ES5_, symObjAddr: 0xDF20, symBinAddr: 0x1000116B0, symSize: 0x24 }
  - { offsetInCU: 0x20AA9, offset: 0x20AA9, size: 0x8, addend: 0x0, symName: __ZNSt3__14pairINS_16reverse_iteratorIPP4EdgeEES5_EC1B8ue170006ERKS5_S8_, symObjAddr: 0xDF44, symBinAddr: 0x1000116D4, symSize: 0x3C }
  - { offsetInCU: 0x20AEF, offset: 0x20AEF, size: 0x8, addend: 0x0, symName: __ZNSt3__14pairINS_16reverse_iteratorIPP4EdgeEES5_EC2B8ue170006ERKS5_S8_, symObjAddr: 0xDF80, symBinAddr: 0x100011710, symSize: 0x34 }
  - { offsetInCU: 0x20B35, offset: 0x20B35, size: 0x8, addend: 0x0, symName: __ZNSt3__118__unwrap_iter_implINS_16reverse_iteratorIPP4EdgeEELb0EE8__rewrapB8ue170006ES5_S5_, symObjAddr: 0xDFB4, symBinAddr: 0x100011744, symSize: 0x2C }
  - { offsetInCU: 0x20B63, offset: 0x20B63, size: 0x8, addend: 0x0, symName: __ZNSt3__116reverse_iteratorIPP4EdgeEC2B8ue170006ES3_, symObjAddr: 0xDFE0, symBinAddr: 0x100011770, symSize: 0x28 }
  - { offsetInCU: 0x20B9B, offset: 0x20B9B, size: 0x8, addend: 0x0, symName: __ZNSt3__114__split_bufferIP4EdgeRNS_9allocatorIS2_EEED2Ev, symObjAddr: 0xE008, symBinAddr: 0x100011798, symSize: 0x80 }
  - { offsetInCU: 0x20BC7, offset: 0x20BC7, size: 0x8, addend: 0x0, symName: __ZNSt3__114__split_bufferIP4EdgeRNS_9allocatorIS2_EEE5clearB8ue170006Ev, symObjAddr: 0xE088, symBinAddr: 0x100011818, symSize: 0x28 }
  - { offsetInCU: 0x20BED, offset: 0x20BED, size: 0x8, addend: 0x0, symName: __ZNKSt3__114__split_bufferIP4EdgeRNS_9allocatorIS2_EEE8capacityB8ue170006Ev, symObjAddr: 0xE0B0, symBinAddr: 0x100011840, symSize: 0x40 }
  - { offsetInCU: 0x20C13, offset: 0x20C13, size: 0x8, addend: 0x0, symName: __ZNSt3__114__split_bufferIP4EdgeRNS_9allocatorIS2_EEE17__destruct_at_endB8ue170006EPS2_, symObjAddr: 0xE0F0, symBinAddr: 0x100011880, symSize: 0x2C }
  - { offsetInCU: 0x20C47, offset: 0x20C47, size: 0x8, addend: 0x0, symName: __ZNSt3__114__split_bufferIP4EdgeRNS_9allocatorIS2_EEE17__destruct_at_endB8ue170006EPS2_NS_17integral_constantIbLb0EEE, symObjAddr: 0xE11C, symBinAddr: 0x1000118AC, symSize: 0x94 }
  - { offsetInCU: 0x20C88, offset: 0x20C88, size: 0x8, addend: 0x0, symName: __ZNKSt3__114__split_bufferIP4EdgeRNS_9allocatorIS2_EEE9__end_capB8ue170006Ev, symObjAddr: 0xE1B0, symBinAddr: 0x100011940, symSize: 0x28 }
  - { offsetInCU: 0x20CAE, offset: 0x20CAE, size: 0x8, addend: 0x0, symName: __ZNKSt3__117__compressed_pairIPP4EdgeRNS_9allocatorIS2_EEE5firstB8ue170006Ev, symObjAddr: 0xE1D8, symBinAddr: 0x100011968, symSize: 0x24 }
  - { offsetInCU: 0x20CD4, offset: 0x20CD4, size: 0x8, addend: 0x0, symName: __ZNSt3__14pairIP6VertexP4EdgeEC2B8ue170006ERKS2_RKS4_, symObjAddr: 0xE1FC, symBinAddr: 0x10001198C, symSize: 0x34 }
  - { offsetInCU: 0x20D1A, offset: 0x20D1A, size: 0x8, addend: 0x0, symName: __ZNSt3__16vectorINS_4pairIP6VertexP4EdgeEENS_9allocatorIS6_EEE9__end_capB8ue170006Ev, symObjAddr: 0xE230, symBinAddr: 0x1000119C0, symSize: 0x28 }
  - { offsetInCU: 0x20D40, offset: 0x20D40, size: 0x8, addend: 0x0, symName: __ZNSt3__16vectorINS_4pairIP6VertexP4EdgeEENS_9allocatorIS6_EEE22__construct_one_at_endB8ue170006IJS6_EEEvDpOT_, symObjAddr: 0xE258, symBinAddr: 0x1000119E8, symSize: 0x98 }
  - { offsetInCU: 0x20D8F, offset: 0x20D8F, size: 0x8, addend: 0x0, symName: __ZNSt3__16vectorINS_4pairIP6VertexP4EdgeEENS_9allocatorIS6_EEE21__push_back_slow_pathIS6_EEvOT_, symObjAddr: 0xE2F0, symBinAddr: 0x100011A80, symSize: 0xE0 }
  - { offsetInCU: 0x20DED, offset: 0x20DED, size: 0x8, addend: 0x0, symName: __ZNSt3__117__compressed_pairIPNS_4pairIP6VertexP4EdgeEENS_9allocatorIS6_EEE5firstB8ue170006Ev, symObjAddr: 0xE3D0, symBinAddr: 0x100011B60, symSize: 0x24 }
  - { offsetInCU: 0x20E13, offset: 0x20E13, size: 0x8, addend: 0x0, symName: __ZNSt3__122__compressed_pair_elemIPNS_4pairIP6VertexP4EdgeEELi0ELb0EE5__getB8ue170006Ev, symObjAddr: 0xE3F4, symBinAddr: 0x100011B84, symSize: 0x14 }
  - { offsetInCU: 0x20E52, offset: 0x20E52, size: 0x8, addend: 0x0, symName: __ZNSt3__16vectorINS_4pairIP6VertexP4EdgeEENS_9allocatorIS6_EEE21_ConstructTransactionC1B8ue170006ERS9_m, symObjAddr: 0xE408, symBinAddr: 0x100011B98, symSize: 0x3C }
  - { offsetInCU: 0x20E9A, offset: 0x20E9A, size: 0x8, addend: 0x0, symName: __ZNSt3__116allocator_traitsINS_9allocatorINS_4pairIP6VertexP4EdgeEEEEE9constructB8ue170006IS7_JS7_EvEEvRS8_PT_DpOT0_, symObjAddr: 0xE444, symBinAddr: 0x100011BD4, symSize: 0x34 }
  - { offsetInCU: 0x20EF1, offset: 0x20EF1, size: 0x8, addend: 0x0, symName: __ZNSt3__16vectorINS_4pairIP6VertexP4EdgeEENS_9allocatorIS6_EEE21_ConstructTransactionD1B8ue170006Ev, symObjAddr: 0xE478, symBinAddr: 0x100011C08, symSize: 0x2C }
  - { offsetInCU: 0x20F1B, offset: 0x20F1B, size: 0x8, addend: 0x0, symName: __ZNSt3__16vectorINS_4pairIP6VertexP4EdgeEENS_9allocatorIS6_EEE21_ConstructTransactionC2B8ue170006ERS9_m, symObjAddr: 0xE4A4, symBinAddr: 0x100011C34, symSize: 0x44 }
  - { offsetInCU: 0x20F63, offset: 0x20F63, size: 0x8, addend: 0x0, symName: __ZNSt3__19allocatorINS_4pairIP6VertexP4EdgeEEE9constructB8ue170006IS6_JS6_EEEvPT_DpOT0_, symObjAddr: 0xE4E8, symBinAddr: 0x100011C78, symSize: 0x28 }
  - { offsetInCU: 0x20FB9, offset: 0x20FB9, size: 0x8, addend: 0x0, symName: __ZNSt3__16vectorINS_4pairIP6VertexP4EdgeEENS_9allocatorIS6_EEE21_ConstructTransactionD2B8ue170006Ev, symObjAddr: 0xE510, symBinAddr: 0x100011CA0, symSize: 0x20 }
  - { offsetInCU: 0x20FE3, offset: 0x20FE3, size: 0x8, addend: 0x0, symName: __ZNKSt3__16vectorINS_4pairIP6VertexP4EdgeEENS_9allocatorIS6_EEE11__recommendB8ue170006Em, symObjAddr: 0xE530, symBinAddr: 0x100011CC0, symSize: 0xB4 }
  - { offsetInCU: 0x21038, offset: 0x21038, size: 0x8, addend: 0x0, symName: __ZNSt3__114__split_bufferINS_4pairIP6VertexP4EdgeEERNS_9allocatorIS6_EEEC1EmmS9_, symObjAddr: 0xE5E4, symBinAddr: 0x100011D74, symSize: 0x44 }
  - { offsetInCU: 0x2108E, offset: 0x2108E, size: 0x8, addend: 0x0, symName: __ZNSt3__114__split_bufferINS_4pairIP6VertexP4EdgeEERNS_9allocatorIS6_EEED1Ev, symObjAddr: 0xE738, symBinAddr: 0x100011EC8, symSize: 0x2C }
  - { offsetInCU: 0x210BA, offset: 0x210BA, size: 0x8, addend: 0x0, symName: __ZNKSt3__16vectorINS_4pairIP6VertexP4EdgeEENS_9allocatorIS6_EEE8max_sizeEv, symObjAddr: 0xE764, symBinAddr: 0x100011EF4, symSize: 0x74 }
  - { offsetInCU: 0x210E2, offset: 0x210E2, size: 0x8, addend: 0x0, symName: __ZNKSt3__16vectorINS_4pairIP6VertexP4EdgeEENS_9allocatorIS6_EEE20__throw_length_errorB8ue170006Ev, symObjAddr: 0xE7D8, symBinAddr: 0x100011F68, symSize: 0x1C }
  - { offsetInCU: 0x21112, offset: 0x21112, size: 0x8, addend: 0x0, symName: __ZNSt3__116allocator_traitsINS_9allocatorINS_4pairIP6VertexP4EdgeEEEEE8max_sizeB8ue170006IS8_vEEmRKS8_, symObjAddr: 0xE7F4, symBinAddr: 0x100011F84, symSize: 0x24 }
  - { offsetInCU: 0x21140, offset: 0x21140, size: 0x8, addend: 0x0, symName: __ZNKSt3__16vectorINS_4pairIP6VertexP4EdgeEENS_9allocatorIS6_EEE7__allocB8ue170006Ev, symObjAddr: 0xE818, symBinAddr: 0x100011FA8, symSize: 0x28 }
  - { offsetInCU: 0x21166, offset: 0x21166, size: 0x8, addend: 0x0, symName: __ZNKSt3__19allocatorINS_4pairIP6VertexP4EdgeEEE8max_sizeB8ue170006Ev, symObjAddr: 0xE840, symBinAddr: 0x100011FD0, symSize: 0x14 }
  - { offsetInCU: 0x2118C, offset: 0x2118C, size: 0x8, addend: 0x0, symName: __ZNKSt3__117__compressed_pairIPNS_4pairIP6VertexP4EdgeEENS_9allocatorIS6_EEE6secondB8ue170006Ev, symObjAddr: 0xE854, symBinAddr: 0x100011FE4, symSize: 0x24 }
  - { offsetInCU: 0x211B2, offset: 0x211B2, size: 0x8, addend: 0x0, symName: __ZNKSt3__122__compressed_pair_elemINS_9allocatorINS_4pairIP6VertexP4EdgeEEEELi1ELb1EE5__getB8ue170006Ev, symObjAddr: 0xE878, symBinAddr: 0x100012008, symSize: 0x14 }
  - { offsetInCU: 0x211D8, offset: 0x211D8, size: 0x8, addend: 0x0, symName: __ZNSt3__114__split_bufferINS_4pairIP6VertexP4EdgeEERNS_9allocatorIS6_EEEC2EmmS9_, symObjAddr: 0xE88C, symBinAddr: 0x10001201C, symSize: 0xD4 }
  - { offsetInCU: 0x2124B, offset: 0x2124B, size: 0x8, addend: 0x0, symName: __ZNSt3__117__compressed_pairIPNS_4pairIP6VertexP4EdgeEERNS_9allocatorIS6_EEEC1B8ue170006IDnSA_EEOT_OT0_, symObjAddr: 0xE960, symBinAddr: 0x1000120F0, symSize: 0x3C }
  - { offsetInCU: 0x212A3, offset: 0x212A3, size: 0x8, addend: 0x0, symName: __ZNSt3__114__split_bufferINS_4pairIP6VertexP4EdgeEERNS_9allocatorIS6_EEE7__allocB8ue170006Ev, symObjAddr: 0xE9DC, symBinAddr: 0x10001216C, symSize: 0x28 }
  - { offsetInCU: 0x212C9, offset: 0x212C9, size: 0x8, addend: 0x0, symName: __ZNSt3__114__split_bufferINS_4pairIP6VertexP4EdgeEERNS_9allocatorIS6_EEE9__end_capB8ue170006Ev, symObjAddr: 0xEA04, symBinAddr: 0x100012194, symSize: 0x28 }
  - { offsetInCU: 0x212EF, offset: 0x212EF, size: 0x8, addend: 0x0, symName: __ZNSt3__117__compressed_pairIPNS_4pairIP6VertexP4EdgeEERNS_9allocatorIS6_EEEC2B8ue170006IDnSA_EEOT_OT0_, symObjAddr: 0xEA2C, symBinAddr: 0x1000121BC, symSize: 0x48 }
  - { offsetInCU: 0x21347, offset: 0x21347, size: 0x8, addend: 0x0, symName: __ZNSt3__122__compressed_pair_elemIRNS_9allocatorINS_4pairIP6VertexP4EdgeEEEELi1ELb0EEC2B8ue170006IS9_vEEOT_, symObjAddr: 0xEA74, symBinAddr: 0x100012204, symSize: 0x20 }
  - { offsetInCU: 0x21389, offset: 0x21389, size: 0x8, addend: 0x0, symName: __ZNSt3__19allocatorINS_4pairIP6VertexP4EdgeEEE8allocateB8ue170006Em, symObjAddr: 0xEA94, symBinAddr: 0x100012224, symSize: 0x84 }
  - { offsetInCU: 0x213BD, offset: 0x213BD, size: 0x8, addend: 0x0, symName: __ZNSt3__117__compressed_pairIPNS_4pairIP6VertexP4EdgeEERNS_9allocatorIS6_EEE6secondB8ue170006Ev, symObjAddr: 0xEB18, symBinAddr: 0x1000122A8, symSize: 0x28 }
  - { offsetInCU: 0x213E3, offset: 0x213E3, size: 0x8, addend: 0x0, symName: __ZNSt3__122__compressed_pair_elemIRNS_9allocatorINS_4pairIP6VertexP4EdgeEEEELi1ELb0EE5__getB8ue170006Ev, symObjAddr: 0xEB40, symBinAddr: 0x1000122D0, symSize: 0x18 }
  - { offsetInCU: 0x21409, offset: 0x21409, size: 0x8, addend: 0x0, symName: __ZNSt3__117__compressed_pairIPNS_4pairIP6VertexP4EdgeEERNS_9allocatorIS6_EEE5firstB8ue170006Ev, symObjAddr: 0xEB58, symBinAddr: 0x1000122E8, symSize: 0x24 }
  - { offsetInCU: 0x2142F, offset: 0x2142F, size: 0x8, addend: 0x0, symName: __ZNSt3__116reverse_iteratorIPNS_4pairIP6VertexP4EdgeEEEC1B8ue170006ES7_, symObjAddr: 0xECB0, symBinAddr: 0x100012440, symSize: 0x34 }
  - { offsetInCU: 0x21467, offset: 0x21467, size: 0x8, addend: 0x0, symName: __ZNKSt3__116reverse_iteratorIPNS_4pairIP6VertexP4EdgeEEE4baseB8ue170006Ev, symObjAddr: 0xECE4, symBinAddr: 0x100012474, symSize: 0x18 }
  - { offsetInCU: 0x2148D, offset: 0x2148D, size: 0x8, addend: 0x0, symName: __ZNKSt3__16vectorINS_4pairIP6VertexP4EdgeEENS_9allocatorIS6_EEE14__annotate_newB8ue170006Em, symObjAddr: 0xED38, symBinAddr: 0x1000124C8, symSize: 0xAC }
  - { offsetInCU: 0x214C2, offset: 0x214C2, size: 0x8, addend: 0x0, symName: __ZNSt3__129_AllocatorDestroyRangeReverseINS_9allocatorINS_4pairIP6VertexP4EdgeEEEENS_16reverse_iteratorIPS7_EEEC1B8ue170006ERS8_RSB_SE_, symObjAddr: 0xEE30, symBinAddr: 0x1000125C0, symSize: 0x44 }
  - { offsetInCU: 0x21519, offset: 0x21519, size: 0x8, addend: 0x0, symName: __ZNKSt3__116reverse_iteratorIPNS_4pairIP6VertexP4EdgeEEEdeB8ue170006Ev, symObjAddr: 0xEEE0, symBinAddr: 0x100012670, symSize: 0x28 }
  - { offsetInCU: 0x2154D, offset: 0x2154D, size: 0x8, addend: 0x0, symName: __ZNSt3__116reverse_iteratorIPNS_4pairIP6VertexP4EdgeEEEppB8ue170006Ev, symObjAddr: 0xEF08, symBinAddr: 0x100012698, symSize: 0x20 }
  - { offsetInCU: 0x21573, offset: 0x21573, size: 0x8, addend: 0x0, symName: __ZNSt3__128__exception_guard_exceptionsINS_29_AllocatorDestroyRangeReverseINS_9allocatorINS_4pairIP6VertexP4EdgeEEEENS_16reverse_iteratorIPS8_EEEEE10__completeB8ue170006Ev, symObjAddr: 0xEF28, symBinAddr: 0x1000126B8, symSize: 0x1C }
  - { offsetInCU: 0x21599, offset: 0x21599, size: 0x8, addend: 0x0, symName: __ZNSt3__128__exception_guard_exceptionsINS_29_AllocatorDestroyRangeReverseINS_9allocatorINS_4pairIP6VertexP4EdgeEEEENS_16reverse_iteratorIPS8_EEEEED1B8ue170006Ev, symObjAddr: 0xEF44, symBinAddr: 0x1000126D4, symSize: 0x2C }
  - { offsetInCU: 0x215C3, offset: 0x215C3, size: 0x8, addend: 0x0, symName: __ZNSt3__128__exception_guard_exceptionsINS_29_AllocatorDestroyRangeReverseINS_9allocatorINS_4pairIP6VertexP4EdgeEEEENS_16reverse_iteratorIPS8_EEEEEC1B8ue170006ESD_, symObjAddr: 0xEF70, symBinAddr: 0x100012700, symSize: 0x34 }
  - { offsetInCU: 0x215FC, offset: 0x215FC, size: 0x8, addend: 0x0, symName: __ZNSt3__128__exception_guard_exceptionsINS_29_AllocatorDestroyRangeReverseINS_9allocatorINS_4pairIP6VertexP4EdgeEEEENS_16reverse_iteratorIPS8_EEEEEC2B8ue170006ESD_, symObjAddr: 0xEFA4, symBinAddr: 0x100012734, symSize: 0x30 }
  - { offsetInCU: 0x21635, offset: 0x21635, size: 0x8, addend: 0x0, symName: __ZNSt3__129_AllocatorDestroyRangeReverseINS_9allocatorINS_4pairIP6VertexP4EdgeEEEENS_16reverse_iteratorIPS7_EEEC2B8ue170006ERS8_RSB_SE_, symObjAddr: 0xEFD4, symBinAddr: 0x100012764, symSize: 0x38 }
  - { offsetInCU: 0x21691, offset: 0x21691, size: 0x8, addend: 0x0, symName: __ZNSt3__119__to_address_helperINS_16reverse_iteratorIPNS_4pairIP6VertexP4EdgeEEEEvE6__callB8ue170006ERKS9_, symObjAddr: 0xF00C, symBinAddr: 0x10001279C, symSize: 0x4C }
  - { offsetInCU: 0x216B4, offset: 0x216B4, size: 0x8, addend: 0x0, symName: __ZNKSt3__116reverse_iteratorIPNS_4pairIP6VertexP4EdgeEEEptB8ue170006Ev, symObjAddr: 0xF058, symBinAddr: 0x1000127E8, symSize: 0x24 }
  - { offsetInCU: 0x216DA, offset: 0x216DA, size: 0x8, addend: 0x0, symName: __ZNSt3__128__exception_guard_exceptionsINS_29_AllocatorDestroyRangeReverseINS_9allocatorINS_4pairIP6VertexP4EdgeEEEENS_16reverse_iteratorIPS8_EEEEED2B8ue170006Ev, symObjAddr: 0xF07C, symBinAddr: 0x10001280C, symSize: 0x48 }
  - { offsetInCU: 0x21704, offset: 0x21704, size: 0x8, addend: 0x0, symName: __ZNKSt3__129_AllocatorDestroyRangeReverseINS_9allocatorINS_4pairIP6VertexP4EdgeEEEENS_16reverse_iteratorIPS7_EEEclB8ue170006Ev, symObjAddr: 0xF0C4, symBinAddr: 0x100012854, symSize: 0xB4 }
  - { offsetInCU: 0x2172B, offset: 0x2172B, size: 0x8, addend: 0x0, symName: __ZNSt3__116reverse_iteratorINS0_IPNS_4pairIP6VertexP4EdgeEEEEEC1B8ue170006ES8_, symObjAddr: 0xF1E8, symBinAddr: 0x100012978, symSize: 0x3C }
  - { offsetInCU: 0x21763, offset: 0x21763, size: 0x8, addend: 0x0, symName: __ZNSt3__116reverse_iteratorINS0_IPNS_4pairIP6VertexP4EdgeEEEEEppB8ue170006Ev, symObjAddr: 0xF2A8, symBinAddr: 0x100012A38, symSize: 0x30 }
  - { offsetInCU: 0x21789, offset: 0x21789, size: 0x8, addend: 0x0, symName: __ZNKSt3__116reverse_iteratorINS0_IPNS_4pairIP6VertexP4EdgeEEEEE4baseB8ue170006Ev, symObjAddr: 0xF2D8, symBinAddr: 0x100012A68, symSize: 0x24 }
  - { offsetInCU: 0x217B4, offset: 0x217B4, size: 0x8, addend: 0x0, symName: __ZNSt3__119__to_address_helperINS_16reverse_iteratorINS1_IPNS_4pairIP6VertexP4EdgeEEEEEEvE6__callB8ue170006ERKSA_, symObjAddr: 0xF2FC, symBinAddr: 0x100012A8C, symSize: 0x4C }
  - { offsetInCU: 0x217D7, offset: 0x217D7, size: 0x8, addend: 0x0, symName: __ZNKSt3__116reverse_iteratorINS0_IPNS_4pairIP6VertexP4EdgeEEEEEptB8ue170006Ev, symObjAddr: 0xF348, symBinAddr: 0x100012AD8, symSize: 0x24 }
  - { offsetInCU: 0x217FD, offset: 0x217FD, size: 0x8, addend: 0x0, symName: __ZNKSt3__116reverse_iteratorINS0_IPNS_4pairIP6VertexP4EdgeEEEEEdeB8ue170006Ev, symObjAddr: 0xF36C, symBinAddr: 0x100012AFC, symSize: 0x34 }
  - { offsetInCU: 0x21831, offset: 0x21831, size: 0x8, addend: 0x0, symName: __ZNSt3__116reverse_iteratorIPNS_4pairIP6VertexP4EdgeEEEmmB8ue170006Ev, symObjAddr: 0xF3A0, symBinAddr: 0x100012B30, symSize: 0x20 }
  - { offsetInCU: 0x21857, offset: 0x21857, size: 0x8, addend: 0x0, symName: __ZNSt3__116reverse_iteratorINS0_IPNS_4pairIP6VertexP4EdgeEEEEEC2B8ue170006ES8_, symObjAddr: 0xF3C0, symBinAddr: 0x100012B50, symSize: 0x2C }
  - { offsetInCU: 0x2188F, offset: 0x2188F, size: 0x8, addend: 0x0, symName: __ZNSt3__116reverse_iteratorIPNS_4pairIP6VertexP4EdgeEEEC2B8ue170006ES7_, symObjAddr: 0xF3EC, symBinAddr: 0x100012B7C, symSize: 0x28 }
  - { offsetInCU: 0x218C7, offset: 0x218C7, size: 0x8, addend: 0x0, symName: __ZNSt3__114__split_bufferINS_4pairIP6VertexP4EdgeEERNS_9allocatorIS6_EEED2Ev, symObjAddr: 0xF414, symBinAddr: 0x100012BA4, symSize: 0x80 }
  - { offsetInCU: 0x218F3, offset: 0x218F3, size: 0x8, addend: 0x0, symName: __ZNSt3__114__split_bufferINS_4pairIP6VertexP4EdgeEERNS_9allocatorIS6_EEE5clearB8ue170006Ev, symObjAddr: 0xF494, symBinAddr: 0x100012C24, symSize: 0x28 }
  - { offsetInCU: 0x21919, offset: 0x21919, size: 0x8, addend: 0x0, symName: __ZNKSt3__114__split_bufferINS_4pairIP6VertexP4EdgeEERNS_9allocatorIS6_EEE8capacityB8ue170006Ev, symObjAddr: 0xF4BC, symBinAddr: 0x100012C4C, symSize: 0x40 }
  - { offsetInCU: 0x2193F, offset: 0x2193F, size: 0x8, addend: 0x0, symName: __ZNSt3__114__split_bufferINS_4pairIP6VertexP4EdgeEERNS_9allocatorIS6_EEE17__destruct_at_endB8ue170006EPS6_, symObjAddr: 0xF4FC, symBinAddr: 0x100012C8C, symSize: 0x2C }
  - { offsetInCU: 0x21973, offset: 0x21973, size: 0x8, addend: 0x0, symName: __ZNSt3__114__split_bufferINS_4pairIP6VertexP4EdgeEERNS_9allocatorIS6_EEE17__destruct_at_endB8ue170006EPS6_NS_17integral_constantIbLb0EEE, symObjAddr: 0xF528, symBinAddr: 0x100012CB8, symSize: 0x94 }
  - { offsetInCU: 0x219B4, offset: 0x219B4, size: 0x8, addend: 0x0, symName: __ZNKSt3__114__split_bufferINS_4pairIP6VertexP4EdgeEERNS_9allocatorIS6_EEE9__end_capB8ue170006Ev, symObjAddr: 0xF5BC, symBinAddr: 0x100012D4C, symSize: 0x28 }
  - { offsetInCU: 0x219DA, offset: 0x219DA, size: 0x8, addend: 0x0, symName: __ZNKSt3__117__compressed_pairIPNS_4pairIP6VertexP4EdgeEERNS_9allocatorIS6_EEE5firstB8ue170006Ev, symObjAddr: 0xF5E4, symBinAddr: 0x100012D74, symSize: 0x24 }
  - { offsetInCU: 0x21A1E, offset: 0x21A1E, size: 0x8, addend: 0x0, symName: __ZNKSt3__113basic_ostreamIcNS_11char_traitsIcEEE6sentrycvbB8ue170006Ev, symObjAddr: 0xF7FC, symBinAddr: 0x100012F8C, symSize: 0x1C }
  - { offsetInCU: 0x21A44, offset: 0x21A44, size: 0x8, addend: 0x0, symName: __ZNSt3__119ostreambuf_iteratorIcNS_11char_traitsIcEEEC1B8ue170006ERNS_13basic_ostreamIcS2_EE, symObjAddr: 0xFA60, symBinAddr: 0x1000131F0, symSize: 0x34 }
  - { offsetInCU: 0x21A7C, offset: 0x21A7C, size: 0x8, addend: 0x0, symName: __ZNKSt3__18ios_base5flagsB8ue170006Ev, symObjAddr: 0xFA94, symBinAddr: 0x100013224, symSize: 0x18 }
  - { offsetInCU: 0x21AA4, offset: 0x21AA4, size: 0x8, addend: 0x0, symName: __ZNKSt3__19basic_iosIcNS_11char_traitsIcEEE4fillB8ue170006Ev, symObjAddr: 0xFAAC, symBinAddr: 0x10001323C, symSize: 0x64 }
  - { offsetInCU: 0x21ACC, offset: 0x21ACC, size: 0x8, addend: 0x0, symName: __ZNKSt3__119ostreambuf_iteratorIcNS_11char_traitsIcEEE6failedB8ue170006Ev, symObjAddr: 0xFB10, symBinAddr: 0x1000132A0, symSize: 0x24 }
  - { offsetInCU: 0x21AF2, offset: 0x21AF2, size: 0x8, addend: 0x0, symName: __ZNSt3__115basic_streambufIcNS_11char_traitsIcEEE5sputnB8ue170006EPKcl, symObjAddr: 0xFB34, symBinAddr: 0x1000132C4, symSize: 0x3C }
  - { offsetInCU: 0x21B34, offset: 0x21B34, size: 0x8, addend: 0x0, symName: __ZNSt3__112basic_stringIcNS_11char_traitsIcEENS_9allocatorIcEEEC1B8ue170006Emc, symObjAddr: 0xFB70, symBinAddr: 0x100013300, symSize: 0x3C }
  - { offsetInCU: 0x21B7C, offset: 0x21B7C, size: 0x8, addend: 0x0, symName: __ZNSt3__112basic_stringIcNS_11char_traitsIcEENS_9allocatorIcEEEC2B8ue170006Emc, symObjAddr: 0xFBAC, symBinAddr: 0x10001333C, symSize: 0x4C }
  - { offsetInCU: 0x21BC4, offset: 0x21BC4, size: 0x8, addend: 0x0, symName: __ZNSt3__119ostreambuf_iteratorIcNS_11char_traitsIcEEEC2B8ue170006ERNS_13basic_ostreamIcS2_EE, symObjAddr: 0xFBF8, symBinAddr: 0x100013388, symSize: 0x68 }
  - { offsetInCU: 0x21BFC, offset: 0x21BFC, size: 0x8, addend: 0x0, symName: __ZNKSt3__19basic_iosIcNS_11char_traitsIcEEE5widenB8ue170006Ec, symObjAddr: 0xFC60, symBinAddr: 0x1000133F0, symSize: 0x8C }
  - { offsetInCU: 0x21C33, offset: 0x21C33, size: 0x8, addend: 0x0, symName: __ZNKSt3__15ctypeIcE5widenB8ue170006Ec, symObjAddr: 0xFCEC, symBinAddr: 0x10001347C, symSize: 0x38 }
  - { offsetInCU: 0x21C68, offset: 0x21C68, size: 0x8, addend: 0x0, symName: __ZNSt3__16vectorIiNS_9allocatorIiEEEC2EmRKi, symObjAddr: 0xFD24, symBinAddr: 0x1000134B4, symSize: 0xE4 }
  - { offsetInCU: 0x21CC7, offset: 0x21CC7, size: 0x8, addend: 0x0, symName: __ZNSt3__16vectorIiNS_9allocatorIiEEE11__vallocateB8ue170006Em, symObjAddr: 0xFE48, symBinAddr: 0x1000135D8, symSize: 0xAC }
  - { offsetInCU: 0x21D0B, offset: 0x21D0B, size: 0x8, addend: 0x0, symName: __ZNSt3__16vectorIiNS_9allocatorIiEEE18__construct_at_endEmRKi, symObjAddr: 0xFEF4, symBinAddr: 0x100013684, symSize: 0xD8 }
  - { offsetInCU: 0x21D8C, offset: 0x21D8C, size: 0x8, addend: 0x0, symName: __ZNSt3__128__exception_guard_exceptionsINS_6vectorIiNS_9allocatorIiEEE16__destroy_vectorEE10__completeB8ue170006Ev, symObjAddr: 0xFFCC, symBinAddr: 0x10001375C, symSize: 0x1C }
  - { offsetInCU: 0x21DB2, offset: 0x21DB2, size: 0x8, addend: 0x0, symName: __ZNSt3__128__exception_guard_exceptionsINS_6vectorIiNS_9allocatorIiEEE16__destroy_vectorEED1B8ue170006Ev, symObjAddr: 0xFFE8, symBinAddr: 0x100013778, symSize: 0x2C }
  - { offsetInCU: 0x21DDC, offset: 0x21DDC, size: 0x8, addend: 0x0, symName: __ZNSt3__128__exception_guard_exceptionsINS_6vectorIiNS_9allocatorIiEEE16__destroy_vectorEEC1B8ue170006ES5_, symObjAddr: 0x10014, symBinAddr: 0x1000137A4, symSize: 0x34 }
  - { offsetInCU: 0x21E14, offset: 0x21E14, size: 0x8, addend: 0x0, symName: __ZNSt3__128__exception_guard_exceptionsINS_6vectorIiNS_9allocatorIiEEE16__destroy_vectorEEC2B8ue170006ES5_, symObjAddr: 0x10048, symBinAddr: 0x1000137D8, symSize: 0x24 }
  - { offsetInCU: 0x21E4C, offset: 0x21E4C, size: 0x8, addend: 0x0, symName: __ZNSt3__128__exception_guard_exceptionsINS_6vectorIiNS_9allocatorIiEEE16__destroy_vectorEED2B8ue170006Ev, symObjAddr: 0x1006C, symBinAddr: 0x1000137FC, symSize: 0x48 }
  - { offsetInCU: 0x21E76, offset: 0x21E76, size: 0x8, addend: 0x0, symName: __ZNSt3__114priority_queueINS_4pairIiiEENS_6vectorIS2_NS_9allocatorIS2_EEEENS_7greaterIS2_EEEC2B8ue170006Ev, symObjAddr: 0x100B4, symBinAddr: 0x100013844, symSize: 0x2C }
  - { offsetInCU: 0x21EA0, offset: 0x21EA0, size: 0x8, addend: 0x0, symName: __ZNSt3__16vectorINS_4pairIiiEENS_9allocatorIS2_EEED2B8ue170006Ev, symObjAddr: 0x100E0, symBinAddr: 0x100013870, symSize: 0x3C }
  - { offsetInCU: 0x21ECA, offset: 0x21ECA, size: 0x8, addend: 0x0, symName: __ZNSt3__16vectorINS_4pairIiiEENS_9allocatorIS2_EEE16__destroy_vectorC1B8ue170006ERS5_, symObjAddr: 0x1011C, symBinAddr: 0x1000138AC, symSize: 0x34 }
  - { offsetInCU: 0x21F03, offset: 0x21F03, size: 0x8, addend: 0x0, symName: __ZNSt3__16vectorINS_4pairIiiEENS_9allocatorIS2_EEE16__destroy_vectorclB8ue170006Ev, symObjAddr: 0x10150, symBinAddr: 0x1000138E0, symSize: 0x90 }
  - { offsetInCU: 0x21F29, offset: 0x21F29, size: 0x8, addend: 0x0, symName: __ZNSt3__16vectorINS_4pairIiiEENS_9allocatorIS2_EEE16__destroy_vectorC2B8ue170006ERS5_, symObjAddr: 0x101E0, symBinAddr: 0x100013970, symSize: 0x20 }
  - { offsetInCU: 0x21F62, offset: 0x21F62, size: 0x8, addend: 0x0, symName: __ZNSt3__16vectorINS_4pairIiiEENS_9allocatorIS2_EEE7__clearB8ue170006Ev, symObjAddr: 0x10200, symBinAddr: 0x100013990, symSize: 0x28 }
  - { offsetInCU: 0x21F88, offset: 0x21F88, size: 0x8, addend: 0x0, symName: __ZNKSt3__16vectorINS_4pairIiiEENS_9allocatorIS2_EEE17__annotate_deleteB8ue170006Ev, symObjAddr: 0x10228, symBinAddr: 0x1000139B8, symSize: 0xB8 }
  - { offsetInCU: 0x21FAE, offset: 0x21FAE, size: 0x8, addend: 0x0, symName: __ZNSt3__116allocator_traitsINS_9allocatorINS_4pairIiiEEEEE10deallocateB8ue170006ERS4_PS3_m, symObjAddr: 0x102E0, symBinAddr: 0x100013A70, symSize: 0x34 }
  - { offsetInCU: 0x21FF0, offset: 0x21FF0, size: 0x8, addend: 0x0, symName: __ZNSt3__16vectorINS_4pairIiiEENS_9allocatorIS2_EEE7__allocB8ue170006Ev, symObjAddr: 0x10314, symBinAddr: 0x100013AA4, symSize: 0x28 }
  - { offsetInCU: 0x22016, offset: 0x22016, size: 0x8, addend: 0x0, symName: __ZNKSt3__16vectorINS_4pairIiiEENS_9allocatorIS2_EEE8capacityB8ue170006Ev, symObjAddr: 0x1033C, symBinAddr: 0x100013ACC, symSize: 0x40 }
  - { offsetInCU: 0x2203C, offset: 0x2203C, size: 0x8, addend: 0x0, symName: __ZNSt3__16vectorINS_4pairIiiEENS_9allocatorIS2_EEE22__base_destruct_at_endB8ue170006EPS2_, symObjAddr: 0x1037C, symBinAddr: 0x100013B0C, symSize: 0xA0 }
  - { offsetInCU: 0x22080, offset: 0x22080, size: 0x8, addend: 0x0, symName: __ZNSt3__116allocator_traitsINS_9allocatorINS_4pairIiiEEEEE7destroyB8ue170006IS3_vEEvRS4_PT_, symObjAddr: 0x1041C, symBinAddr: 0x100013BAC, symSize: 0x2C }
  - { offsetInCU: 0x220BD, offset: 0x220BD, size: 0x8, addend: 0x0, symName: __ZNSt3__19allocatorINS_4pairIiiEEE7destroyB8ue170006EPS2_, symObjAddr: 0x1045C, symBinAddr: 0x100013BEC, symSize: 0x14 }
  - { offsetInCU: 0x220F1, offset: 0x220F1, size: 0x8, addend: 0x0, symName: __ZNKSt3__16vectorINS_4pairIiiEENS_9allocatorIS2_EEE31__annotate_contiguous_containerB8ue170006EPKvS7_S7_S7_, symObjAddr: 0x10470, symBinAddr: 0x100013C00, symSize: 0x20 }
  - { offsetInCU: 0x22143, offset: 0x22143, size: 0x8, addend: 0x0, symName: __ZNKSt3__16vectorINS_4pairIiiEENS_9allocatorIS2_EEE4dataB8ue170006Ev, symObjAddr: 0x10490, symBinAddr: 0x100013C20, symSize: 0x28 }
  - { offsetInCU: 0x22169, offset: 0x22169, size: 0x8, addend: 0x0, symName: __ZNKSt3__16vectorINS_4pairIiiEENS_9allocatorIS2_EEE4sizeB8ue170006Ev, symObjAddr: 0x104B8, symBinAddr: 0x100013C48, symSize: 0x28 }
  - { offsetInCU: 0x2218F, offset: 0x2218F, size: 0x8, addend: 0x0, symName: __ZNSt3__19allocatorINS_4pairIiiEEE10deallocateB8ue170006EPS2_m, symObjAddr: 0x104E0, symBinAddr: 0x100013C70, symSize: 0x70 }
  - { offsetInCU: 0x221D1, offset: 0x221D1, size: 0x8, addend: 0x0, symName: __ZNSt3__117__compressed_pairIPNS_4pairIiiEENS_9allocatorIS2_EEE6secondB8ue170006Ev, symObjAddr: 0x10550, symBinAddr: 0x100013CE0, symSize: 0x24 }
  - { offsetInCU: 0x221F7, offset: 0x221F7, size: 0x8, addend: 0x0, symName: __ZNSt3__122__compressed_pair_elemINS_9allocatorINS_4pairIiiEEEELi1ELb1EE5__getB8ue170006Ev, symObjAddr: 0x10574, symBinAddr: 0x100013D04, symSize: 0x14 }
  - { offsetInCU: 0x2221D, offset: 0x2221D, size: 0x8, addend: 0x0, symName: __ZNKSt3__16vectorINS_4pairIiiEENS_9allocatorIS2_EEE9__end_capB8ue170006Ev, symObjAddr: 0x10588, symBinAddr: 0x100013D18, symSize: 0x28 }
  - { offsetInCU: 0x22243, offset: 0x22243, size: 0x8, addend: 0x0, symName: __ZNKSt3__117__compressed_pairIPNS_4pairIiiEENS_9allocatorIS2_EEE5firstB8ue170006Ev, symObjAddr: 0x105B0, symBinAddr: 0x100013D40, symSize: 0x24 }
  - { offsetInCU: 0x22269, offset: 0x22269, size: 0x8, addend: 0x0, symName: __ZNKSt3__122__compressed_pair_elemIPNS_4pairIiiEELi0ELb0EE5__getB8ue170006Ev, symObjAddr: 0x105D4, symBinAddr: 0x100013D64, symSize: 0x14 }
  - { offsetInCU: 0x2228F, offset: 0x2228F, size: 0x8, addend: 0x0, symName: __ZNSt3__16vectorINS_4pairIiiEENS_9allocatorIS2_EEE9push_backB8ue170006ERKS2_, symObjAddr: 0x105E8, symBinAddr: 0x100013D78, symSize: 0x6C }
  - { offsetInCU: 0x222C6, offset: 0x222C6, size: 0x8, addend: 0x0, symName: __ZNSt3__16vectorINS_4pairIiiEENS_9allocatorIS2_EEE9__end_capB8ue170006Ev, symObjAddr: 0x10694, symBinAddr: 0x100013E24, symSize: 0x28 }
  - { offsetInCU: 0x222EC, offset: 0x222EC, size: 0x8, addend: 0x0, symName: __ZNSt3__16vectorINS_4pairIiiEENS_9allocatorIS2_EEE22__construct_one_at_endB8ue170006IJRKS2_EEEvDpOT_, symObjAddr: 0x106BC, symBinAddr: 0x100013E4C, symSize: 0x98 }
  - { offsetInCU: 0x2233B, offset: 0x2233B, size: 0x8, addend: 0x0, symName: __ZNSt3__16vectorINS_4pairIiiEENS_9allocatorIS2_EEE21__push_back_slow_pathIRKS2_EEvOT_, symObjAddr: 0x10754, symBinAddr: 0x100013EE4, symSize: 0xE0 }
  - { offsetInCU: 0x22399, offset: 0x22399, size: 0x8, addend: 0x0, symName: __ZNSt3__117__compressed_pairIPNS_4pairIiiEENS_9allocatorIS2_EEE5firstB8ue170006Ev, symObjAddr: 0x10834, symBinAddr: 0x100013FC4, symSize: 0x24 }
  - { offsetInCU: 0x223BF, offset: 0x223BF, size: 0x8, addend: 0x0, symName: __ZNSt3__122__compressed_pair_elemIPNS_4pairIiiEELi0ELb0EE5__getB8ue170006Ev, symObjAddr: 0x10858, symBinAddr: 0x100013FE8, symSize: 0x14 }
  - { offsetInCU: 0x223FE, offset: 0x223FE, size: 0x8, addend: 0x0, symName: __ZNSt3__16vectorINS_4pairIiiEENS_9allocatorIS2_EEE21_ConstructTransactionC1B8ue170006ERS5_m, symObjAddr: 0x1086C, symBinAddr: 0x100013FFC, symSize: 0x3C }
  - { offsetInCU: 0x22446, offset: 0x22446, size: 0x8, addend: 0x0, symName: __ZNSt3__116allocator_traitsINS_9allocatorINS_4pairIiiEEEEE9constructB8ue170006IS3_JRKS3_EvEEvRS4_PT_DpOT0_, symObjAddr: 0x108A8, symBinAddr: 0x100014038, symSize: 0x34 }
  - { offsetInCU: 0x2249D, offset: 0x2249D, size: 0x8, addend: 0x0, symName: __ZNSt3__16vectorINS_4pairIiiEENS_9allocatorIS2_EEE21_ConstructTransactionD1B8ue170006Ev, symObjAddr: 0x108DC, symBinAddr: 0x10001406C, symSize: 0x2C }
  - { offsetInCU: 0x224C7, offset: 0x224C7, size: 0x8, addend: 0x0, symName: __ZNSt3__16vectorINS_4pairIiiEENS_9allocatorIS2_EEE21_ConstructTransactionC2B8ue170006ERS5_m, symObjAddr: 0x10908, symBinAddr: 0x100014098, symSize: 0x44 }
  - { offsetInCU: 0x2250F, offset: 0x2250F, size: 0x8, addend: 0x0, symName: __ZNSt3__19allocatorINS_4pairIiiEEE9constructB8ue170006IS2_JRKS2_EEEvPT_DpOT0_, symObjAddr: 0x1094C, symBinAddr: 0x1000140DC, symSize: 0x28 }
  - { offsetInCU: 0x22565, offset: 0x22565, size: 0x8, addend: 0x0, symName: __ZNSt3__16vectorINS_4pairIiiEENS_9allocatorIS2_EEE21_ConstructTransactionD2B8ue170006Ev, symObjAddr: 0x10974, symBinAddr: 0x100014104, symSize: 0x20 }
  - { offsetInCU: 0x2258F, offset: 0x2258F, size: 0x8, addend: 0x0, symName: __ZNKSt3__16vectorINS_4pairIiiEENS_9allocatorIS2_EEE11__recommendB8ue170006Em, symObjAddr: 0x10994, symBinAddr: 0x100014124, symSize: 0xB4 }
  - { offsetInCU: 0x225E4, offset: 0x225E4, size: 0x8, addend: 0x0, symName: __ZNSt3__114__split_bufferINS_4pairIiiEERNS_9allocatorIS2_EEEC1EmmS5_, symObjAddr: 0x10A48, symBinAddr: 0x1000141D8, symSize: 0x44 }
  - { offsetInCU: 0x2263A, offset: 0x2263A, size: 0x8, addend: 0x0, symName: __ZNSt3__114__split_bufferINS_4pairIiiEERNS_9allocatorIS2_EEED1Ev, symObjAddr: 0x10B9C, symBinAddr: 0x10001432C, symSize: 0x2C }
  - { offsetInCU: 0x22666, offset: 0x22666, size: 0x8, addend: 0x0, symName: __ZNKSt3__16vectorINS_4pairIiiEENS_9allocatorIS2_EEE8max_sizeEv, symObjAddr: 0x10BC8, symBinAddr: 0x100014358, symSize: 0x74 }
  - { offsetInCU: 0x2268E, offset: 0x2268E, size: 0x8, addend: 0x0, symName: __ZNKSt3__16vectorINS_4pairIiiEENS_9allocatorIS2_EEE20__throw_length_errorB8ue170006Ev, symObjAddr: 0x10C3C, symBinAddr: 0x1000143CC, symSize: 0x1C }
  - { offsetInCU: 0x226BE, offset: 0x226BE, size: 0x8, addend: 0x0, symName: __ZNSt3__116allocator_traitsINS_9allocatorINS_4pairIiiEEEEE8max_sizeB8ue170006IS4_vEEmRKS4_, symObjAddr: 0x10C58, symBinAddr: 0x1000143E8, symSize: 0x24 }
  - { offsetInCU: 0x226EC, offset: 0x226EC, size: 0x8, addend: 0x0, symName: __ZNKSt3__16vectorINS_4pairIiiEENS_9allocatorIS2_EEE7__allocB8ue170006Ev, symObjAddr: 0x10C7C, symBinAddr: 0x10001440C, symSize: 0x28 }
  - { offsetInCU: 0x22712, offset: 0x22712, size: 0x8, addend: 0x0, symName: __ZNKSt3__19allocatorINS_4pairIiiEEE8max_sizeB8ue170006Ev, symObjAddr: 0x10CA4, symBinAddr: 0x100014434, symSize: 0x14 }
  - { offsetInCU: 0x22738, offset: 0x22738, size: 0x8, addend: 0x0, symName: __ZNKSt3__117__compressed_pairIPNS_4pairIiiEENS_9allocatorIS2_EEE6secondB8ue170006Ev, symObjAddr: 0x10CB8, symBinAddr: 0x100014448, symSize: 0x24 }
  - { offsetInCU: 0x2275E, offset: 0x2275E, size: 0x8, addend: 0x0, symName: __ZNKSt3__122__compressed_pair_elemINS_9allocatorINS_4pairIiiEEEELi1ELb1EE5__getB8ue170006Ev, symObjAddr: 0x10CDC, symBinAddr: 0x10001446C, symSize: 0x14 }
  - { offsetInCU: 0x22784, offset: 0x22784, size: 0x8, addend: 0x0, symName: __ZNSt3__114__split_bufferINS_4pairIiiEERNS_9allocatorIS2_EEEC2EmmS5_, symObjAddr: 0x10CF0, symBinAddr: 0x100014480, symSize: 0xD4 }
  - { offsetInCU: 0x227F7, offset: 0x227F7, size: 0x8, addend: 0x0, symName: __ZNSt3__117__compressed_pairIPNS_4pairIiiEERNS_9allocatorIS2_EEEC1B8ue170006IDnS6_EEOT_OT0_, symObjAddr: 0x10DC4, symBinAddr: 0x100014554, symSize: 0x3C }
  - { offsetInCU: 0x2284F, offset: 0x2284F, size: 0x8, addend: 0x0, symName: __ZNSt3__114__split_bufferINS_4pairIiiEERNS_9allocatorIS2_EEE7__allocB8ue170006Ev, symObjAddr: 0x10E40, symBinAddr: 0x1000145D0, symSize: 0x28 }
  - { offsetInCU: 0x22875, offset: 0x22875, size: 0x8, addend: 0x0, symName: __ZNSt3__114__split_bufferINS_4pairIiiEERNS_9allocatorIS2_EEE9__end_capB8ue170006Ev, symObjAddr: 0x10E68, symBinAddr: 0x1000145F8, symSize: 0x28 }
  - { offsetInCU: 0x2289B, offset: 0x2289B, size: 0x8, addend: 0x0, symName: __ZNSt3__117__compressed_pairIPNS_4pairIiiEERNS_9allocatorIS2_EEEC2B8ue170006IDnS6_EEOT_OT0_, symObjAddr: 0x10E90, symBinAddr: 0x100014620, symSize: 0x48 }
  - { offsetInCU: 0x228F3, offset: 0x228F3, size: 0x8, addend: 0x0, symName: __ZNSt3__122__compressed_pair_elemIPNS_4pairIiiEELi0ELb0EEC2B8ue170006IDnvEEOT_, symObjAddr: 0x10ED8, symBinAddr: 0x100014668, symSize: 0x1C }
  - { offsetInCU: 0x22935, offset: 0x22935, size: 0x8, addend: 0x0, symName: __ZNSt3__122__compressed_pair_elemIRNS_9allocatorINS_4pairIiiEEEELi1ELb0EEC2B8ue170006IS5_vEEOT_, symObjAddr: 0x10EF4, symBinAddr: 0x100014684, symSize: 0x20 }
  - { offsetInCU: 0x22977, offset: 0x22977, size: 0x8, addend: 0x0, symName: __ZNSt3__19allocatorINS_4pairIiiEEE8allocateB8ue170006Em, symObjAddr: 0x10F14, symBinAddr: 0x1000146A4, symSize: 0x84 }
  - { offsetInCU: 0x229AB, offset: 0x229AB, size: 0x8, addend: 0x0, symName: __ZNSt3__117__compressed_pairIPNS_4pairIiiEERNS_9allocatorIS2_EEE6secondB8ue170006Ev, symObjAddr: 0x10F98, symBinAddr: 0x100014728, symSize: 0x28 }
  - { offsetInCU: 0x229D1, offset: 0x229D1, size: 0x8, addend: 0x0, symName: __ZNSt3__122__compressed_pair_elemIRNS_9allocatorINS_4pairIiiEEEELi1ELb0EE5__getB8ue170006Ev, symObjAddr: 0x10FC0, symBinAddr: 0x100014750, symSize: 0x18 }
  - { offsetInCU: 0x229F7, offset: 0x229F7, size: 0x8, addend: 0x0, symName: __ZNSt3__117__compressed_pairIPNS_4pairIiiEERNS_9allocatorIS2_EEE5firstB8ue170006Ev, symObjAddr: 0x10FD8, symBinAddr: 0x100014768, symSize: 0x24 }
  - { offsetInCU: 0x22A1D, offset: 0x22A1D, size: 0x8, addend: 0x0, symName: __ZNSt3__116reverse_iteratorIPNS_4pairIiiEEEC1B8ue170006ES3_, symObjAddr: 0x11130, symBinAddr: 0x1000148C0, symSize: 0x34 }
  - { offsetInCU: 0x22A55, offset: 0x22A55, size: 0x8, addend: 0x0, symName: __ZNKSt3__116reverse_iteratorIPNS_4pairIiiEEE4baseB8ue170006Ev, symObjAddr: 0x11164, symBinAddr: 0x1000148F4, symSize: 0x18 }
  - { offsetInCU: 0x22A7B, offset: 0x22A7B, size: 0x8, addend: 0x0, symName: __ZNKSt3__16vectorINS_4pairIiiEENS_9allocatorIS2_EEE14__annotate_newB8ue170006Em, symObjAddr: 0x111B8, symBinAddr: 0x100014948, symSize: 0xAC }
  - { offsetInCU: 0x22AB0, offset: 0x22AB0, size: 0x8, addend: 0x0, symName: __ZNSt3__129_AllocatorDestroyRangeReverseINS_9allocatorINS_4pairIiiEEEENS_16reverse_iteratorIPS3_EEEC1B8ue170006ERS4_RS7_SA_, symObjAddr: 0x112B0, symBinAddr: 0x100014A40, symSize: 0x44 }
  - { offsetInCU: 0x22B07, offset: 0x22B07, size: 0x8, addend: 0x0, symName: __ZNSt3__116allocator_traitsINS_9allocatorINS_4pairIiiEEEEE9constructB8ue170006IS3_JS3_EvEEvRS4_PT_DpOT0_, symObjAddr: 0x1133C, symBinAddr: 0x100014ACC, symSize: 0x34 }
  - { offsetInCU: 0x22B5E, offset: 0x22B5E, size: 0x8, addend: 0x0, symName: __ZNKSt3__116reverse_iteratorIPNS_4pairIiiEEEdeB8ue170006Ev, symObjAddr: 0x11394, symBinAddr: 0x100014B24, symSize: 0x28 }
  - { offsetInCU: 0x22B92, offset: 0x22B92, size: 0x8, addend: 0x0, symName: __ZNSt3__116reverse_iteratorIPNS_4pairIiiEEEppB8ue170006Ev, symObjAddr: 0x113BC, symBinAddr: 0x100014B4C, symSize: 0x20 }
  - { offsetInCU: 0x22BB8, offset: 0x22BB8, size: 0x8, addend: 0x0, symName: __ZNSt3__128__exception_guard_exceptionsINS_29_AllocatorDestroyRangeReverseINS_9allocatorINS_4pairIiiEEEENS_16reverse_iteratorIPS4_EEEEE10__completeB8ue170006Ev, symObjAddr: 0x113DC, symBinAddr: 0x100014B6C, symSize: 0x1C }
  - { offsetInCU: 0x22BDE, offset: 0x22BDE, size: 0x8, addend: 0x0, symName: __ZNSt3__128__exception_guard_exceptionsINS_29_AllocatorDestroyRangeReverseINS_9allocatorINS_4pairIiiEEEENS_16reverse_iteratorIPS4_EEEEED1B8ue170006Ev, symObjAddr: 0x113F8, symBinAddr: 0x100014B88, symSize: 0x2C }
  - { offsetInCU: 0x22C08, offset: 0x22C08, size: 0x8, addend: 0x0, symName: __ZNSt3__128__exception_guard_exceptionsINS_29_AllocatorDestroyRangeReverseINS_9allocatorINS_4pairIiiEEEENS_16reverse_iteratorIPS4_EEEEEC1B8ue170006ES9_, symObjAddr: 0x11424, symBinAddr: 0x100014BB4, symSize: 0x34 }
  - { offsetInCU: 0x22C41, offset: 0x22C41, size: 0x8, addend: 0x0, symName: __ZNSt3__128__exception_guard_exceptionsINS_29_AllocatorDestroyRangeReverseINS_9allocatorINS_4pairIiiEEEENS_16reverse_iteratorIPS4_EEEEEC2B8ue170006ES9_, symObjAddr: 0x11458, symBinAddr: 0x100014BE8, symSize: 0x30 }
  - { offsetInCU: 0x22C7A, offset: 0x22C7A, size: 0x8, addend: 0x0, symName: __ZNSt3__129_AllocatorDestroyRangeReverseINS_9allocatorINS_4pairIiiEEEENS_16reverse_iteratorIPS3_EEEC2B8ue170006ERS4_RS7_SA_, symObjAddr: 0x11488, symBinAddr: 0x100014C18, symSize: 0x38 }
  - { offsetInCU: 0x22CD1, offset: 0x22CD1, size: 0x8, addend: 0x0, symName: __ZNSt3__19allocatorINS_4pairIiiEEE9constructB8ue170006IS2_JS2_EEEvPT_DpOT0_, symObjAddr: 0x114C0, symBinAddr: 0x100014C50, symSize: 0x28 }
  - { offsetInCU: 0x22D2C, offset: 0x22D2C, size: 0x8, addend: 0x0, symName: __ZNSt3__119__to_address_helperINS_16reverse_iteratorIPNS_4pairIiiEEEEvE6__callB8ue170006ERKS5_, symObjAddr: 0x114E8, symBinAddr: 0x100014C78, symSize: 0x4C }
  - { offsetInCU: 0x22D4F, offset: 0x22D4F, size: 0x8, addend: 0x0, symName: __ZNKSt3__116reverse_iteratorIPNS_4pairIiiEEEptB8ue170006Ev, symObjAddr: 0x11534, symBinAddr: 0x100014CC4, symSize: 0x24 }
  - { offsetInCU: 0x22D75, offset: 0x22D75, size: 0x8, addend: 0x0, symName: __ZNSt3__128__exception_guard_exceptionsINS_29_AllocatorDestroyRangeReverseINS_9allocatorINS_4pairIiiEEEENS_16reverse_iteratorIPS4_EEEEED2B8ue170006Ev, symObjAddr: 0x11558, symBinAddr: 0x100014CE8, symSize: 0x48 }
  - { offsetInCU: 0x22D9F, offset: 0x22D9F, size: 0x8, addend: 0x0, symName: __ZNKSt3__129_AllocatorDestroyRangeReverseINS_9allocatorINS_4pairIiiEEEENS_16reverse_iteratorIPS3_EEEclB8ue170006Ev, symObjAddr: 0x115A0, symBinAddr: 0x100014D30, symSize: 0xB4 }
  - { offsetInCU: 0x22DC6, offset: 0x22DC6, size: 0x8, addend: 0x0, symName: __ZNSt3__116reverse_iteratorINS0_IPNS_4pairIiiEEEEEC1B8ue170006ES4_, symObjAddr: 0x116C4, symBinAddr: 0x100014E54, symSize: 0x3C }
  - { offsetInCU: 0x22DFE, offset: 0x22DFE, size: 0x8, addend: 0x0, symName: __ZNSt3__116reverse_iteratorINS0_IPNS_4pairIiiEEEEEppB8ue170006Ev, symObjAddr: 0x11784, symBinAddr: 0x100014F14, symSize: 0x30 }
  - { offsetInCU: 0x22E24, offset: 0x22E24, size: 0x8, addend: 0x0, symName: __ZNKSt3__116reverse_iteratorINS0_IPNS_4pairIiiEEEEE4baseB8ue170006Ev, symObjAddr: 0x117B4, symBinAddr: 0x100014F44, symSize: 0x24 }
  - { offsetInCU: 0x22E4F, offset: 0x22E4F, size: 0x8, addend: 0x0, symName: __ZNSt3__119__to_address_helperINS_16reverse_iteratorINS1_IPNS_4pairIiiEEEEEEvE6__callB8ue170006ERKS6_, symObjAddr: 0x117D8, symBinAddr: 0x100014F68, symSize: 0x4C }
  - { offsetInCU: 0x22E72, offset: 0x22E72, size: 0x8, addend: 0x0, symName: __ZNKSt3__116reverse_iteratorINS0_IPNS_4pairIiiEEEEEptB8ue170006Ev, symObjAddr: 0x11824, symBinAddr: 0x100014FB4, symSize: 0x24 }
  - { offsetInCU: 0x22E98, offset: 0x22E98, size: 0x8, addend: 0x0, symName: __ZNKSt3__116reverse_iteratorINS0_IPNS_4pairIiiEEEEEdeB8ue170006Ev, symObjAddr: 0x11848, symBinAddr: 0x100014FD8, symSize: 0x34 }
  - { offsetInCU: 0x22ECC, offset: 0x22ECC, size: 0x8, addend: 0x0, symName: __ZNSt3__116reverse_iteratorIPNS_4pairIiiEEEmmB8ue170006Ev, symObjAddr: 0x1187C, symBinAddr: 0x10001500C, symSize: 0x20 }
  - { offsetInCU: 0x22EF2, offset: 0x22EF2, size: 0x8, addend: 0x0, symName: __ZNSt3__116reverse_iteratorINS0_IPNS_4pairIiiEEEEEC2B8ue170006ES4_, symObjAddr: 0x1189C, symBinAddr: 0x10001502C, symSize: 0x2C }
  - { offsetInCU: 0x22F2A, offset: 0x22F2A, size: 0x8, addend: 0x0, symName: __ZNSt3__116reverse_iteratorIPNS_4pairIiiEEEC2B8ue170006ES3_, symObjAddr: 0x118C8, symBinAddr: 0x100015058, symSize: 0x28 }
  - { offsetInCU: 0x22F62, offset: 0x22F62, size: 0x8, addend: 0x0, symName: __ZNSt3__114__split_bufferINS_4pairIiiEERNS_9allocatorIS2_EEED2Ev, symObjAddr: 0x118F0, symBinAddr: 0x100015080, symSize: 0x80 }
  - { offsetInCU: 0x22F8E, offset: 0x22F8E, size: 0x8, addend: 0x0, symName: __ZNSt3__114__split_bufferINS_4pairIiiEERNS_9allocatorIS2_EEE5clearB8ue170006Ev, symObjAddr: 0x11970, symBinAddr: 0x100015100, symSize: 0x28 }
  - { offsetInCU: 0x22FB4, offset: 0x22FB4, size: 0x8, addend: 0x0, symName: __ZNKSt3__114__split_bufferINS_4pairIiiEERNS_9allocatorIS2_EEE8capacityB8ue170006Ev, symObjAddr: 0x11998, symBinAddr: 0x100015128, symSize: 0x40 }
  - { offsetInCU: 0x22FDA, offset: 0x22FDA, size: 0x8, addend: 0x0, symName: __ZNSt3__114__split_bufferINS_4pairIiiEERNS_9allocatorIS2_EEE17__destruct_at_endB8ue170006EPS2_, symObjAddr: 0x119D8, symBinAddr: 0x100015168, symSize: 0x2C }
  - { offsetInCU: 0x2300E, offset: 0x2300E, size: 0x8, addend: 0x0, symName: __ZNSt3__114__split_bufferINS_4pairIiiEERNS_9allocatorIS2_EEE17__destruct_at_endB8ue170006EPS2_NS_17integral_constantIbLb0EEE, symObjAddr: 0x11A04, symBinAddr: 0x100015194, symSize: 0x94 }
  - { offsetInCU: 0x2304F, offset: 0x2304F, size: 0x8, addend: 0x0, symName: __ZNKSt3__114__split_bufferINS_4pairIiiEERNS_9allocatorIS2_EEE9__end_capB8ue170006Ev, symObjAddr: 0x11A98, symBinAddr: 0x100015228, symSize: 0x28 }
  - { offsetInCU: 0x23075, offset: 0x23075, size: 0x8, addend: 0x0, symName: __ZNKSt3__117__compressed_pairIPNS_4pairIiiEERNS_9allocatorIS2_EEE5firstB8ue170006Ev, symObjAddr: 0x11AC0, symBinAddr: 0x100015250, symSize: 0x24 }
  - { offsetInCU: 0x2309B, offset: 0x2309B, size: 0x8, addend: 0x0, symName: __ZNKSt3__111__wrap_iterIPNS_4pairIiiEEE4baseB8ue170006Ev, symObjAddr: 0x11CE4, symBinAddr: 0x100015474, symSize: 0x18 }
  - { offsetInCU: 0x230C1, offset: 0x230C1, size: 0x8, addend: 0x0, symName: __ZNKSt3__111__wrap_iterIPNS_4pairIiiEEEplB8ue170006El, symObjAddr: 0x11CFC, symBinAddr: 0x10001548C, symSize: 0x3C }
  - { offsetInCU: 0x23103, offset: 0x23103, size: 0x8, addend: 0x0, symName: __ZNKSt3__17greaterINS_4pairIiiEEEclB8ue170006ERKS2_S5_, symObjAddr: 0x11D38, symBinAddr: 0x1000154C8, symSize: 0x34 }
  - { offsetInCU: 0x23147, offset: 0x23147, size: 0x8, addend: 0x0, symName: __ZNSt3__111__wrap_iterIPNS_4pairIiiEEEmmB8ue170006Ev, symObjAddr: 0x11D6C, symBinAddr: 0x1000154FC, symSize: 0x20 }
  - { offsetInCU: 0x2316D, offset: 0x2316D, size: 0x8, addend: 0x0, symName: __ZNSt3__18_IterOpsINS_17_ClassicAlgPolicyEE11__iter_moveB8ue170006IRNS_11__wrap_iterIPNS_4pairIiiEEEEEENS_9enable_ifIXsr12is_referenceIDTdeclsr3stdE7declvalIRT_EEEEE5valueEDTclsr3stdE4movedeclsr3stdE7declvalISC_EEEEE4typeEOSB_, symObjAddr: 0x11D8C, symBinAddr: 0x10001551C, symSize: 0x28 }
  - { offsetInCU: 0x23199, offset: 0x23199, size: 0x8, addend: 0x0, symName: __ZNSt3__14pairIiiEaSB8ue170006ERKS1_, symObjAddr: 0x11DB4, symBinAddr: 0x100015544, symSize: 0x30 }
  - { offsetInCU: 0x231CD, offset: 0x231CD, size: 0x8, addend: 0x0, symName: __ZNSt3__111__wrap_iterIPNS_4pairIiiEEEpLB8ue170006El, symObjAddr: 0x11DE4, symBinAddr: 0x100015574, symSize: 0x28 }
  - { offsetInCU: 0x23201, offset: 0x23201, size: 0x8, addend: 0x0, symName: __ZNSt3__18_IterOpsINS_17_ClassicAlgPolicyEE25__validate_iter_referenceB8ue170006IRNS_11__wrap_iterIPNS_4pairIiiEEEEEEvv, symObjAddr: 0x11ED4, symBinAddr: 0x100015664, symSize: 0x4 }
  - { offsetInCU: 0x2321F, offset: 0x2321F, size: 0x8, addend: 0x0, symName: __ZNSt3__14pairIiiEC2B8ue170006ERKiS3_, symObjAddr: 0x11ED8, symBinAddr: 0x100015668, symSize: 0x34 }
  - { offsetInCU: 0x23265, offset: 0x23265, size: 0x8, addend: 0x0, symName: __ZNKSt3__16vectorINS_4pairIiiEENS_9allocatorIS2_EEE5frontB8ue170006Ev, symObjAddr: 0x11F0C, symBinAddr: 0x10001569C, symSize: 0x18 }
  - { offsetInCU: 0x2328B, offset: 0x2328B, size: 0x8, addend: 0x0, symName: __ZNSt3__110__get_pairILm0EE3getB8ue170006IiiEEOT_ONS_4pairIS3_T0_EE, symObjAddr: 0x11F24, symBinAddr: 0x1000156B4, symSize: 0x14 }
  - { offsetInCU: 0x232C1, offset: 0x232C1, size: 0x8, addend: 0x0, symName: __ZNSt3__110__get_pairILm1EE3getB8ue170006IiiEEOT0_ONS_4pairIT_S3_EE, symObjAddr: 0x11F38, symBinAddr: 0x1000156C8, symSize: 0x18 }
  - { offsetInCU: 0x232F7, offset: 0x232F7, size: 0x8, addend: 0x0, symName: __ZNSt3__16vectorINS_4pairIiiEENS_9allocatorIS2_EEE8pop_backEv, symObjAddr: 0x11FA8, symBinAddr: 0x100015738, symSize: 0x2C }
  - { offsetInCU: 0x2331F, offset: 0x2331F, size: 0x8, addend: 0x0, symName: __ZNSt3__16vectorINS_4pairIiiEENS_9allocatorIS2_EEE17__destruct_at_endB8ue170006EPS2_, symObjAddr: 0x1228C, symBinAddr: 0x100015A1C, symSize: 0x4C }
  - { offsetInCU: 0x23363, offset: 0x23363, size: 0x8, addend: 0x0, symName: __ZNKSt3__16vectorINS_4pairIiiEENS_9allocatorIS2_EEE17__annotate_shrinkB8ue170006Em, symObjAddr: 0x122D8, symBinAddr: 0x100015A68, symSize: 0xB4 }
  - { offsetInCU: 0x23398, offset: 0x23398, size: 0x8, addend: 0x0, symName: __ZNSt3__16vectorINS_4pairIiiEENS_9allocatorIS2_EEEC2B8ue170006Ev, symObjAddr: 0x1238C, symBinAddr: 0x100015B1C, symSize: 0x44 }
  - { offsetInCU: 0x233C2, offset: 0x233C2, size: 0x8, addend: 0x0, symName: __ZNSt3__117__compressed_pairIPNS_4pairIiiEENS_9allocatorIS2_EEEC1B8ue170006IDnNS_18__default_init_tagEEEOT_OT0_, symObjAddr: 0x123D0, symBinAddr: 0x100015B60, symSize: 0x3C }
  - { offsetInCU: 0x2341A, offset: 0x2341A, size: 0x8, addend: 0x0, symName: __ZNSt3__117__compressed_pairIPNS_4pairIiiEENS_9allocatorIS2_EEEC2B8ue170006IDnNS_18__default_init_tagEEEOT_OT0_, symObjAddr: 0x1240C, symBinAddr: 0x100015B9C, symSize: 0x40 }
  - { offsetInCU: 0x23472, offset: 0x23472, size: 0x8, addend: 0x0, symName: __ZNSt3__122__compressed_pair_elemINS_9allocatorINS_4pairIiiEEEELi1ELb1EEC2B8ue170006ENS_18__default_init_tagE, symObjAddr: 0x1244C, symBinAddr: 0x100015BDC, symSize: 0x2C }
  - { offsetInCU: 0x234A7, offset: 0x234A7, size: 0x8, addend: 0x0, symName: __ZNSt3__19allocatorINS_4pairIiiEEEC2B8ue170006Ev, symObjAddr: 0x12478, symBinAddr: 0x100015C08, symSize: 0x2C }
  - { offsetInCU: 0x234D1, offset: 0x234D1, size: 0x8, addend: 0x0, symName: __ZNSt3__116__non_trivial_ifILb1ENS_9allocatorINS_4pairIiiEEEEEC2B8ue170006Ev, symObjAddr: 0x124A4, symBinAddr: 0x100015C34, symSize: 0x14 }
  - { offsetInCU: 0x234FB, offset: 0x234FB, size: 0x8, addend: 0x0, symName: __ZNSt3__16vectorINS_4pairIiiEENS_9allocatorIS2_EEE22__construct_one_at_endB8ue170006IJS2_EEEvDpOT_, symObjAddr: 0x124B8, symBinAddr: 0x100015C48, symSize: 0x98 }
  - { offsetInCU: 0x2354A, offset: 0x2354A, size: 0x8, addend: 0x0, symName: __ZNSt3__16vectorINS_4pairIiiEENS_9allocatorIS2_EEE21__push_back_slow_pathIS2_EEvOT_, symObjAddr: 0x12550, symBinAddr: 0x100015CE0, symSize: 0xE0 }
  - { offsetInCU: 0x235A8, offset: 0x235A8, size: 0x8, addend: 0x0, symName: __ZNSt3__16vectorINS_4pairIiiEENS_9allocatorIS2_EEE11__make_iterB8ue170006EPS2_, symObjAddr: 0x12630, symBinAddr: 0x100015DC0, symSize: 0x30 }
  - { offsetInCU: 0x235DD, offset: 0x235DD, size: 0x8, addend: 0x0, symName: __ZNSt3__111__wrap_iterIPNS_4pairIiiEEEC1B8ue170006ES3_, symObjAddr: 0x12660, symBinAddr: 0x100015DF0, symSize: 0x34 }
  - { offsetInCU: 0x23615, offset: 0x23615, size: 0x8, addend: 0x0, symName: __ZNSt3__111__wrap_iterIPNS_4pairIiiEEEC2B8ue170006ES3_, symObjAddr: 0x12694, symBinAddr: 0x100015E24, symSize: 0x20 }
  - { offsetInCU: 0x2364D, offset: 0x2364D, size: 0x8, addend: 0x0, symName: __ZNSt3__16vectorIP8DeliveryNS_9allocatorIS2_EEE17__destruct_at_endB8ue170006EPS2_, symObjAddr: 0x126B4, symBinAddr: 0x100015E44, symSize: 0x4C }
  - { offsetInCU: 0x23691, offset: 0x23691, size: 0x8, addend: 0x0, symName: __ZNKSt3__16vectorIP8DeliveryNS_9allocatorIS2_EEE17__annotate_shrinkB8ue170006Em, symObjAddr: 0x12700, symBinAddr: 0x100015E90, symSize: 0xB4 }
  - { offsetInCU: 0x236C6, offset: 0x236C6, size: 0x8, addend: 0x0, symName: __ZNSt3__16vectorIP8DeliveryNS_9allocatorIS2_EEE22__construct_one_at_endB8ue170006IJRKS2_EEEvDpOT_, symObjAddr: 0x127B4, symBinAddr: 0x100015F44, symSize: 0x98 }
  - { offsetInCU: 0x23715, offset: 0x23715, size: 0x8, addend: 0x0, symName: __ZNSt3__16vectorIP8DeliveryNS_9allocatorIS2_EEE21__push_back_slow_pathIRKS2_EEvOT_, symObjAddr: 0x1284C, symBinAddr: 0x100015FDC, symSize: 0xE0 }
  - { offsetInCU: 0x23773, offset: 0x23773, size: 0x8, addend: 0x0, symName: __ZNSt3__116allocator_traitsINS_9allocatorIP8DeliveryEEE9constructB8ue170006IS3_JRKS3_EvEEvRS4_PT_DpOT0_, symObjAddr: 0x1292C, symBinAddr: 0x1000160BC, symSize: 0x34 }
  - { offsetInCU: 0x237CA, offset: 0x237CA, size: 0x8, addend: 0x0, symName: __ZNSt3__19allocatorIP8DeliveryE9constructB8ue170006IS2_JRKS2_EEEvPT_DpOT0_, symObjAddr: 0x12960, symBinAddr: 0x1000160F0, symSize: 0x28 }
  - { offsetInCU: 0x23820, offset: 0x23820, size: 0x8, addend: 0x0, symName: __ZNSt3__16vectorIiNS_9allocatorIiEEE11__make_iterB8ue170006EPi, symObjAddr: 0x12988, symBinAddr: 0x100016118, symSize: 0x30 }
  - { offsetInCU: 0x23855, offset: 0x23855, size: 0x8, addend: 0x0, symName: __ZNSt3__111__wrap_iterIPiEC1B8ue170006ES1_, symObjAddr: 0x129B8, symBinAddr: 0x100016148, symSize: 0x34 }
  - { offsetInCU: 0x2388D, offset: 0x2388D, size: 0x8, addend: 0x0, symName: __ZNSt3__111__wrap_iterIPiEC2B8ue170006ES1_, symObjAddr: 0x129EC, symBinAddr: 0x10001617C, symSize: 0x20 }
  - { offsetInCU: 0x238C5, offset: 0x238C5, size: 0x8, addend: 0x0, symName: __ZNKSt3__111__wrap_iterIPiE4baseB8ue170006Ev, symObjAddr: 0x12A54, symBinAddr: 0x1000161E4, symSize: 0x18 }
  - { offsetInCU: 0x238EB, offset: 0x238EB, size: 0x8, addend: 0x0, symName: __ZNSt3__111__wrap_iterIPiEppB8ue170006Ev, symObjAddr: 0x12A6C, symBinAddr: 0x1000161FC, symSize: 0x20 }
  - { offsetInCU: 0x23911, offset: 0x23911, size: 0x8, addend: 0x0, symName: __ZNSt3__16vectorIP5OrderNS_9allocatorIS2_EEE22__construct_one_at_endB8ue170006IJRKS2_EEEvDpOT_, symObjAddr: 0x12A8C, symBinAddr: 0x10001621C, symSize: 0x98 }
  - { offsetInCU: 0x23960, offset: 0x23960, size: 0x8, addend: 0x0, symName: __ZNSt3__16vectorIP5OrderNS_9allocatorIS2_EEE21__push_back_slow_pathIRKS2_EEvOT_, symObjAddr: 0x12B24, symBinAddr: 0x1000162B4, symSize: 0xE0 }
...
