---
triple:          'arm64-apple-darwin'
binary-path:     '/Users/justinshih/college/Data_Structure/HW4/output/v2'
relocations:
  - { offsetInCU: 0x52, offset: 0x52, size: 0x8, addend: 0x0, symName: __ZL5PLACE, symObjAddr: 0x72DC8, symBinAddr: 0x100018000, symSize: 0x0 }
  - { offsetInCU: 0xB79E, offset: 0xB79E, size: 0x8, addend: 0x0, symName: __ZNSt3__124__put_character_sequenceB8ue170006IcNS_11char_traitsIcEEEERNS_13basic_ostreamIT_T0_EES7_PKS4_m, symObjAddr: 0xCFB4, symBinAddr: 0x1000100B0, symSize: 0x1F4 }
  - { offsetInCU: 0xC132, offset: 0xC132, size: 0x8, addend: 0x0, symName: __ZNSt3__117__floyd_sift_downB8ue170006INS_17_ClassicAlgPolicyERNS_7greaterINS_4pairIiiEEEENS_11__wrap_iterIPS4_EEEET1_SA_OT0_NS_15iterator_traitsISA_E15difference_typeE, symObjAddr: 0xE2F0, symBinAddr: 0x1000113EC, symSize: 0x148 }
  - { offsetInCU: 0xC33E, offset: 0xC33E, size: 0x8, addend: 0x0, symName: __ZNSt3__17advanceB8ue170006IPillvEEvRT_T0_, symObjAddr: 0xF330, symBinAddr: 0x10001242C, symSize: 0x38 }
  - { offsetInCU: 0xD452, offset: 0xD452, size: 0x8, addend: 0x0, symName: __ZNSt3__1rsB8ue170006IcNS_11char_traitsIcEENS_9allocatorIcEEEERNS_13basic_istreamIT_T0_EES9_RNS_12basic_stringIS6_S7_T1_EE, symObjAddr: 0x40C, symBinAddr: 0x100003508, symSize: 0x324 }
  - { offsetInCU: 0xD521, offset: 0xD521, size: 0x8, addend: 0x0, symName: __ZNSt3__1eqB8ue170006INS_9allocatorIcEEEEbRKNS_12basic_stringIcNS_11char_traitsIcEET_EES9_, symObjAddr: 0x9FC, symBinAddr: 0x100003AF8, symSize: 0x148 }
  - { offsetInCU: 0xD594, offset: 0xD594, size: 0x8, addend: 0x0, symName: __ZNSt3__1lsB8ue170006INS_11char_traitsIcEEEERNS_13basic_ostreamIcT_EES6_PKc, symObjAddr: 0x1954, symBinAddr: 0x100004A50, symSize: 0x48 }
  - { offsetInCU: 0xD5DA, offset: 0xD5DA, size: 0x8, addend: 0x0, symName: __ZNSt3__14endlB8ue170006IcNS_11char_traitsIcEEEERNS_13basic_ostreamIT_T0_EES7_, symObjAddr: 0x19C8, symBinAddr: 0x100004AC4, symSize: 0x58 }
  - { offsetInCU: 0xD61A, offset: 0xD61A, size: 0x8, addend: 0x0, symName: __ZNSt3__1neB8ue170006IPNS_4pairIiP4EdgeEEEEbRKNS_11__wrap_iterIT_EESA_, symObjAddr: 0x1D54, symBinAddr: 0x100004E50, symSize: 0x34 }
  - { offsetInCU: 0xD861, offset: 0xD861, size: 0x8, addend: 0x0, symName: __ZNSt3__13getB8ue170006ILm0EiiEEONS_13tuple_elementIXT_ENS_4pairIT0_T1_EEE4typeEOS5_, symObjAddr: 0x2778, symBinAddr: 0x100005874, symSize: 0x24 }
  - { offsetInCU: 0xD8AB, offset: 0xD8AB, size: 0x8, addend: 0x0, symName: __ZNSt3__13getB8ue170006ILm1EiiEEONS_13tuple_elementIXT_ENS_4pairIT0_T1_EEE4typeEOS5_, symObjAddr: 0x279C, symBinAddr: 0x100005898, symSize: 0x24 }
  - { offsetInCU: 0xD8F5, offset: 0xD8F5, size: 0x8, addend: 0x0, symName: __ZNSt3__1neB8ue170006IPNS_4pairIiiEEEEbRKNS_11__wrap_iterIT_EES8_, symObjAddr: 0x28BC, symBinAddr: 0x1000059B8, symSize: 0x34 }
  - { offsetInCU: 0xD938, offset: 0xD938, size: 0x8, addend: 0x0, symName: __ZNSt3__118__constexpr_strlenB8ue170006EPKc, symObjAddr: 0x3618, symBinAddr: 0x100006714, symSize: 0x24 }
  - { offsetInCU: 0xD964, offset: 0xD964, size: 0x8, addend: 0x0, symName: __ZNSt3__112__to_addressB8ue170006IiEEPT_S2_, symObjAddr: 0x3AEC, symBinAddr: 0x100006BE8, symSize: 0x14 }
  - { offsetInCU: 0xD999, offset: 0xD999, size: 0x8, addend: 0x0, symName: __ZNSt3__130__libcpp_is_constant_evaluatedB8ue170006Ev, symObjAddr: 0x3BCC, symBinAddr: 0x100006CC8, symSize: 0xC }
  - { offsetInCU: 0xD9B6, offset: 0xD9B6, size: 0x8, addend: 0x0, symName: __ZNSt3__119__libcpp_deallocateB8ue170006EPvmm, symObjAddr: 0x3BD8, symBinAddr: 0x100006CD4, symSize: 0x30 }
  - { offsetInCU: 0xD9FE, offset: 0xD9FE, size: 0x8, addend: 0x0, symName: __ZNSt3__127__do_deallocate_handle_sizeB8ue170006IJEEEvPvmDpT_, symObjAddr: 0x3C08, symBinAddr: 0x100006D04, symSize: 0x28 }
  - { offsetInCU: 0xDA3C, offset: 0xDA3C, size: 0x8, addend: 0x0, symName: __ZNSt3__124__libcpp_operator_deleteB8ue170006IJPvEEEvDpT_, symObjAddr: 0x3C30, symBinAddr: 0x100006D2C, symSize: 0x24 }
  - { offsetInCU: 0xDA71, offset: 0xDA71, size: 0x8, addend: 0x0, symName: __ZNSt3__1eqB8ue170006IPNS_4pairIiP4EdgeEEEEbRKNS_11__wrap_iterIT_EESA_, symObjAddr: 0x3D70, symBinAddr: 0x100006E6C, symSize: 0x48 }
  - { offsetInCU: 0xDAB4, offset: 0xDAB4, size: 0x8, addend: 0x0, symName: __ZNSt3__112__to_addressB8ue170006INS_4pairIiiEEEEPT_S4_, symObjAddr: 0x4158, symBinAddr: 0x100007254, symSize: 0x14 }
  - { offsetInCU: 0xDAE9, offset: 0xDAE9, size: 0x8, addend: 0x0, symName: __ZNSt3__112__to_addressB8ue170006IP6VertexEEPT_S4_, symObjAddr: 0x4638, symBinAddr: 0x100007734, symSize: 0x14 }
  - { offsetInCU: 0xDB1E, offset: 0xDB1E, size: 0x8, addend: 0x0, symName: __ZNSt3__112__to_addressB8ue170006IP5OrderEEPT_S4_, symObjAddr: 0x4B40, symBinAddr: 0x100007C3C, symSize: 0x14 }
  - { offsetInCU: 0xDB53, offset: 0xDB53, size: 0x8, addend: 0x0, symName: __ZNSt3__117__libcpp_allocateB8ue170006Emm, symObjAddr: 0x50DC, symBinAddr: 0x1000081D8, symSize: 0x28 }
  - { offsetInCU: 0xDB90, offset: 0xDB90, size: 0x8, addend: 0x0, symName: __ZNSt3__121__libcpp_operator_newB8ue170006IJmEEEPvDpT_, symObjAddr: 0x5118, symBinAddr: 0x100008214, symSize: 0x24 }
  - { offsetInCU: 0xE360, offset: 0xE360, size: 0x8, addend: 0x0, symName: __ZNSt3__19use_facetB8ue170006INS_5ctypeIcEEEERKT_RKNS_6localeE, symObjAddr: 0x52E0, symBinAddr: 0x1000083DC, symSize: 0x2C }
  - { offsetInCU: 0xE973, offset: 0xE973, size: 0x8, addend: 0x0, symName: __ZNSt3__112__to_addressB8ue170006IKcEEPT_S3_, symObjAddr: 0x59C0, symBinAddr: 0x100008ABC, symSize: 0x14 }
  - { offsetInCU: 0xE9DB, offset: 0xE9DB, size: 0x8, addend: 0x0, symName: __ZNSt3__13maxB8ue170006ImEERKT_S3_S3_, symObjAddr: 0x65B4, symBinAddr: 0x1000096B0, symSize: 0x2C }
  - { offsetInCU: 0xEA1E, offset: 0xEA1E, size: 0x8, addend: 0x0, symName: __ZNSt3__13minB8ue170006ImEERKT_S3_S3_, symObjAddr: 0x65E0, symBinAddr: 0x1000096DC, symSize: 0x2C }
  - { offsetInCU: 0xEA61, offset: 0xEA61, size: 0x8, addend: 0x0, symName: __ZNSt3__13minB8ue170006ImNS_6__lessIvvEEEERKT_S5_S5_T0_, symObjAddr: 0x6658, symBinAddr: 0x100009754, symSize: 0x54 }
  - { offsetInCU: 0xEB00, offset: 0xEB00, size: 0x8, addend: 0x0, symName: __ZNSt3__120__throw_length_errorB8ue170006EPKc, symObjAddr: 0x672C, symBinAddr: 0x100009828, symSize: 0x64 }
  - { offsetInCU: 0xEB2A, offset: 0xEB2A, size: 0x8, addend: 0x0, symName: __ZNSt3__13maxB8ue170006ImNS_6__lessIvvEEEERKT_S5_S5_T0_, symObjAddr: 0x6810, symBinAddr: 0x10000990C, symSize: 0x54 }
  - { offsetInCU: 0xEB84, offset: 0xEB84, size: 0x8, addend: 0x0, symName: __ZNSt3__119__allocate_at_leastB8ue170006INS_9allocatorIP6VertexEEEENS_19__allocation_resultINS_16allocator_traitsIT_E7pointerEEERS7_m, symObjAddr: 0x6974, symBinAddr: 0x100009A70, symSize: 0x40 }
  - { offsetInCU: 0xEBC7, offset: 0xEBC7, size: 0x8, addend: 0x0, symName: __ZNSt3__142__uninitialized_allocator_move_if_noexceptB8ue170006INS_9allocatorIP6VertexEENS_16reverse_iteratorIPS3_EES7_S3_vEET1_RT_T0_SB_S8_, symObjAddr: 0x6C20, symBinAddr: 0x100009D1C, symSize: 0xE8 }
  - { offsetInCU: 0xEC44, offset: 0xEC44, size: 0x8, addend: 0x0, symName: __ZNSt3__14swapB8ue170006IPP6VertexEEvRT_S5_, symObjAddr: 0x6D54, symBinAddr: 0x100009E50, symSize: 0x3C }
  - { offsetInCU: 0xEC95, offset: 0xEC95, size: 0x8, addend: 0x0, symName: __ZNSt3__1neB8ue170006IPP6VertexS3_EEbRKNS_16reverse_iteratorIT_EERKNS4_IT0_EE, symObjAddr: 0x6E3C, symBinAddr: 0x100009F38, symSize: 0x48 }
  - { offsetInCU: 0xED06, offset: 0xED06, size: 0x8, addend: 0x0, symName: __ZNSt3__114__construct_atB8ue170006IP6VertexJS2_EPS2_EEPT_S5_DpOT0_, symObjAddr: 0x6E84, symBinAddr: 0x100009F80, symSize: 0x2C }
  - { offsetInCU: 0xED76, offset: 0xED76, size: 0x8, addend: 0x0, symName: __ZNSt3__112__to_addressB8ue170006INS_16reverse_iteratorIPP6VertexEEvEEu7__decayIDTclsr19__to_address_helperIT_EE6__callclsr3stdE7declvalIRKS6_EEEEES8_, symObjAddr: 0x6EB0, symBinAddr: 0x100009FAC, symSize: 0x24 }
  - { offsetInCU: 0xEDAC, offset: 0xEDAC, size: 0x8, addend: 0x0, symName: __ZNSt3__14moveB8ue170006INS_16reverse_iteratorIPP6VertexEES5_EET0_T_S7_S6_, symObjAddr: 0x6F1C, symBinAddr: 0x10000A018, symSize: 0x78 }
  - { offsetInCU: 0xEE2F, offset: 0xEE2F, size: 0x8, addend: 0x0, symName: __ZNSt3__16__moveB8ue170006INS_17_ClassicAlgPolicyENS_16reverse_iteratorIPP6VertexEES6_S6_EENS_4pairIT0_T2_EES8_T1_S9_, symObjAddr: 0x7004, symBinAddr: 0x10000A100, symSize: 0x64 }
  - { offsetInCU: 0xEE9B, offset: 0xEE9B, size: 0x8, addend: 0x0, symName: __ZNSt3__123__dispatch_copy_or_moveB8ue170006INS_17_ClassicAlgPolicyENS_11__move_loopIS1_EENS_14__move_trivialENS_16reverse_iteratorIPP6VertexEES9_S9_EENS_4pairIT2_T4_EESB_T3_SC_, symObjAddr: 0x7068, symBinAddr: 0x10000A164, symSize: 0x64 }
  - { offsetInCU: 0xEF19, offset: 0xEF19, size: 0x8, addend: 0x0, symName: __ZNSt3__121__unwrap_and_dispatchB8ue170006INS_10__overloadINS_11__move_loopINS_17_ClassicAlgPolicyEEENS_14__move_trivialEEENS_16reverse_iteratorIPP6VertexEESB_SB_Li0EEENS_4pairIT0_T2_EESD_T1_SE_, symObjAddr: 0x70CC, symBinAddr: 0x10000A1C8, symSize: 0x12C }
  - { offsetInCU: 0xEFA9, offset: 0xEFA9, size: 0x8, addend: 0x0, symName: __ZNSt3__114__unwrap_rangeB8ue170006INS_16reverse_iteratorIPP6VertexEES5_EENS_4pairIT0_S7_EET_S9_, symObjAddr: 0x71F8, symBinAddr: 0x10000A2F4, symSize: 0x84 }
  - { offsetInCU: 0xF17B, offset: 0xF17B, size: 0x8, addend: 0x0, symName: __ZNSt3__113__unwrap_iterB8ue170006INS_16reverse_iteratorIPP6VertexEENS_18__unwrap_iter_implIS5_Lb0EEELi0EEEDTclsrT0_8__unwrapclsr3stdE7declvalIT_EEEES9_, symObjAddr: 0x731C, symBinAddr: 0x10000A418, symSize: 0x44 }
  - { offsetInCU: 0xF1BF, offset: 0xF1BF, size: 0x8, addend: 0x0, symName: __ZNSt3__19make_pairB8ue170006INS_16reverse_iteratorIPP6VertexEES5_EENS_4pairINS_18__unwrap_ref_decayIT_E4typeENS7_IT0_E4typeEEEOS8_OSB_, symObjAddr: 0x7360, symBinAddr: 0x10000A45C, symSize: 0x38 }
  - { offsetInCU: 0xF20E, offset: 0xF20E, size: 0x8, addend: 0x0, symName: __ZNSt3__114__rewrap_rangeB8ue170006INS_16reverse_iteratorIPP6VertexEES5_EET_S6_T0_, symObjAddr: 0x7398, symBinAddr: 0x10000A494, symSize: 0x5C }
  - { offsetInCU: 0xF25A, offset: 0xF25A, size: 0x8, addend: 0x0, symName: __ZNSt3__113__rewrap_iterB8ue170006INS_16reverse_iteratorIPP6VertexEES5_NS_18__unwrap_iter_implIS5_Lb0EEEEET_S8_T0_, symObjAddr: 0x73F4, symBinAddr: 0x10000A4F0, symSize: 0x88 }
  - { offsetInCU: 0xF3FA, offset: 0xF3FA, size: 0x8, addend: 0x0, symName: __ZNSt3__119__allocate_at_leastB8ue170006INS_9allocatorIP5OrderEEEENS_19__allocation_resultINS_16allocator_traitsIT_E7pointerEEERS7_m, symObjAddr: 0x8130, symBinAddr: 0x10000B22C, symSize: 0x40 }
  - { offsetInCU: 0xF43D, offset: 0xF43D, size: 0x8, addend: 0x0, symName: __ZNSt3__142__uninitialized_allocator_move_if_noexceptB8ue170006INS_9allocatorIP5OrderEENS_16reverse_iteratorIPS3_EES7_S3_vEET1_RT_T0_SB_S8_, symObjAddr: 0x83DC, symBinAddr: 0x10000B4D8, symSize: 0xE8 }
  - { offsetInCU: 0xF4BA, offset: 0xF4BA, size: 0x8, addend: 0x0, symName: __ZNSt3__14swapB8ue170006IPP5OrderEEvRT_S5_, symObjAddr: 0x8510, symBinAddr: 0x10000B60C, symSize: 0x3C }
  - { offsetInCU: 0xF50B, offset: 0xF50B, size: 0x8, addend: 0x0, symName: __ZNSt3__1neB8ue170006IPP5OrderS3_EEbRKNS_16reverse_iteratorIT_EERKNS4_IT0_EE, symObjAddr: 0x85F8, symBinAddr: 0x10000B6F4, symSize: 0x48 }
  - { offsetInCU: 0xF57C, offset: 0xF57C, size: 0x8, addend: 0x0, symName: __ZNSt3__114__construct_atB8ue170006IP5OrderJS2_EPS2_EEPT_S5_DpOT0_, symObjAddr: 0x8640, symBinAddr: 0x10000B73C, symSize: 0x2C }
  - { offsetInCU: 0xF5EC, offset: 0xF5EC, size: 0x8, addend: 0x0, symName: __ZNSt3__112__to_addressB8ue170006INS_16reverse_iteratorIPP5OrderEEvEEu7__decayIDTclsr19__to_address_helperIT_EE6__callclsr3stdE7declvalIRKS6_EEEEES8_, symObjAddr: 0x866C, symBinAddr: 0x10000B768, symSize: 0x24 }
  - { offsetInCU: 0xF622, offset: 0xF622, size: 0x8, addend: 0x0, symName: __ZNSt3__14moveB8ue170006INS_16reverse_iteratorIPP5OrderEES5_EET0_T_S7_S6_, symObjAddr: 0x86D8, symBinAddr: 0x10000B7D4, symSize: 0x78 }
  - { offsetInCU: 0xF6A5, offset: 0xF6A5, size: 0x8, addend: 0x0, symName: __ZNSt3__16__moveB8ue170006INS_17_ClassicAlgPolicyENS_16reverse_iteratorIPP5OrderEES6_S6_EENS_4pairIT0_T2_EES8_T1_S9_, symObjAddr: 0x87C0, symBinAddr: 0x10000B8BC, symSize: 0x64 }
  - { offsetInCU: 0xF711, offset: 0xF711, size: 0x8, addend: 0x0, symName: __ZNSt3__123__dispatch_copy_or_moveB8ue170006INS_17_ClassicAlgPolicyENS_11__move_loopIS1_EENS_14__move_trivialENS_16reverse_iteratorIPP5OrderEES9_S9_EENS_4pairIT2_T4_EESB_T3_SC_, symObjAddr: 0x8824, symBinAddr: 0x10000B920, symSize: 0x64 }
  - { offsetInCU: 0xF78F, offset: 0xF78F, size: 0x8, addend: 0x0, symName: __ZNSt3__121__unwrap_and_dispatchB8ue170006INS_10__overloadINS_11__move_loopINS_17_ClassicAlgPolicyEEENS_14__move_trivialEEENS_16reverse_iteratorIPP5OrderEESB_SB_Li0EEENS_4pairIT0_T2_EESD_T1_SE_, symObjAddr: 0x8888, symBinAddr: 0x10000B984, symSize: 0x12C }
  - { offsetInCU: 0xF81F, offset: 0xF81F, size: 0x8, addend: 0x0, symName: __ZNSt3__114__unwrap_rangeB8ue170006INS_16reverse_iteratorIPP5OrderEES5_EENS_4pairIT0_S7_EET_S9_, symObjAddr: 0x89B4, symBinAddr: 0x10000BAB0, symSize: 0x84 }
  - { offsetInCU: 0xF918, offset: 0xF918, size: 0x8, addend: 0x0, symName: __ZNSt3__113__unwrap_iterB8ue170006INS_16reverse_iteratorIPP5OrderEENS_18__unwrap_iter_implIS5_Lb0EEELi0EEEDTclsrT0_8__unwrapclsr3stdE7declvalIT_EEEES9_, symObjAddr: 0x8AD8, symBinAddr: 0x10000BBD4, symSize: 0x44 }
  - { offsetInCU: 0xF95C, offset: 0xF95C, size: 0x8, addend: 0x0, symName: __ZNSt3__19make_pairB8ue170006INS_16reverse_iteratorIPP5OrderEES5_EENS_4pairINS_18__unwrap_ref_decayIT_E4typeENS7_IT0_E4typeEEEOS8_OSB_, symObjAddr: 0x8B1C, symBinAddr: 0x10000BC18, symSize: 0x38 }
  - { offsetInCU: 0xF9AB, offset: 0xF9AB, size: 0x8, addend: 0x0, symName: __ZNSt3__114__rewrap_rangeB8ue170006INS_16reverse_iteratorIPP5OrderEES5_EET_S6_T0_, symObjAddr: 0x8B54, symBinAddr: 0x10000BC50, symSize: 0x5C }
  - { offsetInCU: 0xF9F7, offset: 0xF9F7, size: 0x8, addend: 0x0, symName: __ZNSt3__113__rewrap_iterB8ue170006INS_16reverse_iteratorIPP5OrderEES5_NS_18__unwrap_iter_implIS5_Lb0EEEEET_S8_T0_, symObjAddr: 0x8BB0, symBinAddr: 0x10000BCAC, symSize: 0x88 }
  - { offsetInCU: 0xFAB8, offset: 0xFAB8, size: 0x8, addend: 0x0, symName: __ZNSt3__119__allocate_at_leastB8ue170006INS_9allocatorIiEEEENS_19__allocation_resultINS_16allocator_traitsIT_E7pointerEEERS5_m, symObjAddr: 0x9760, symBinAddr: 0x10000C85C, symSize: 0x40 }
  - { offsetInCU: 0xFAFB, offset: 0xFAFB, size: 0x8, addend: 0x0, symName: __ZNSt3__142__uninitialized_allocator_move_if_noexceptB8ue170006INS_9allocatorIiEENS_16reverse_iteratorIPiEES5_ivEET1_RT_T0_S9_S6_, symObjAddr: 0x9940, symBinAddr: 0x10000CA3C, symSize: 0xE8 }
  - { offsetInCU: 0xFB78, offset: 0xFB78, size: 0x8, addend: 0x0, symName: __ZNSt3__14swapB8ue170006IPiEEvRT_S3_, symObjAddr: 0x9A74, symBinAddr: 0x10000CB70, symSize: 0x3C }
  - { offsetInCU: 0xFBC9, offset: 0xFBC9, size: 0x8, addend: 0x0, symName: __ZNSt3__1neB8ue170006IPiS1_EEbRKNS_16reverse_iteratorIT_EERKNS2_IT0_EE, symObjAddr: 0x9B5C, symBinAddr: 0x10000CC58, symSize: 0x48 }
  - { offsetInCU: 0xFC3A, offset: 0xFC3A, size: 0x8, addend: 0x0, symName: __ZNSt3__114__construct_atB8ue170006IiJiEPiEEPT_S3_DpOT0_, symObjAddr: 0x9BA4, symBinAddr: 0x10000CCA0, symSize: 0x2C }
  - { offsetInCU: 0xFCAA, offset: 0xFCAA, size: 0x8, addend: 0x0, symName: __ZNSt3__112__to_addressB8ue170006INS_16reverse_iteratorIPiEEvEEu7__decayIDTclsr19__to_address_helperIT_EE6__callclsr3stdE7declvalIRKS4_EEEEES6_, symObjAddr: 0x9BD0, symBinAddr: 0x10000CCCC, symSize: 0x24 }
  - { offsetInCU: 0xFCE0, offset: 0xFCE0, size: 0x8, addend: 0x0, symName: __ZNSt3__14moveB8ue170006INS_16reverse_iteratorIPiEES3_EET0_T_S5_S4_, symObjAddr: 0x9C3C, symBinAddr: 0x10000CD38, symSize: 0x78 }
  - { offsetInCU: 0xFD63, offset: 0xFD63, size: 0x8, addend: 0x0, symName: __ZNSt3__16__moveB8ue170006INS_17_ClassicAlgPolicyENS_16reverse_iteratorIPiEES4_S4_EENS_4pairIT0_T2_EES6_T1_S7_, symObjAddr: 0x9D24, symBinAddr: 0x10000CE20, symSize: 0x64 }
  - { offsetInCU: 0xFDCF, offset: 0xFDCF, size: 0x8, addend: 0x0, symName: __ZNSt3__123__dispatch_copy_or_moveB8ue170006INS_17_ClassicAlgPolicyENS_11__move_loopIS1_EENS_14__move_trivialENS_16reverse_iteratorIPiEES7_S7_EENS_4pairIT2_T4_EES9_T3_SA_, symObjAddr: 0x9D88, symBinAddr: 0x10000CE84, symSize: 0x64 }
  - { offsetInCU: 0xFE4D, offset: 0xFE4D, size: 0x8, addend: 0x0, symName: __ZNSt3__121__unwrap_and_dispatchB8ue170006INS_10__overloadINS_11__move_loopINS_17_ClassicAlgPolicyEEENS_14__move_trivialEEENS_16reverse_iteratorIPiEES9_S9_Li0EEENS_4pairIT0_T2_EESB_T1_SC_, symObjAddr: 0x9DEC, symBinAddr: 0x10000CEE8, symSize: 0x12C }
  - { offsetInCU: 0xFEDD, offset: 0xFEDD, size: 0x8, addend: 0x0, symName: __ZNSt3__114__unwrap_rangeB8ue170006INS_16reverse_iteratorIPiEES3_EENS_4pairIT0_S5_EET_S7_, symObjAddr: 0x9F18, symBinAddr: 0x10000D014, symSize: 0x84 }
  - { offsetInCU: 0xFFD6, offset: 0xFFD6, size: 0x8, addend: 0x0, symName: __ZNSt3__113__unwrap_iterB8ue170006INS_16reverse_iteratorIPiEENS_18__unwrap_iter_implIS3_Lb0EEELi0EEEDTclsrT0_8__unwrapclsr3stdE7declvalIT_EEEES7_, symObjAddr: 0xA03C, symBinAddr: 0x10000D138, symSize: 0x44 }
  - { offsetInCU: 0x1001A, offset: 0x1001A, size: 0x8, addend: 0x0, symName: __ZNSt3__19make_pairB8ue170006INS_16reverse_iteratorIPiEES3_EENS_4pairINS_18__unwrap_ref_decayIT_E4typeENS5_IT0_E4typeEEEOS6_OS9_, symObjAddr: 0xA080, symBinAddr: 0x10000D17C, symSize: 0x38 }
  - { offsetInCU: 0x10069, offset: 0x10069, size: 0x8, addend: 0x0, symName: __ZNSt3__114__rewrap_rangeB8ue170006INS_16reverse_iteratorIPiEES3_EET_S4_T0_, symObjAddr: 0xA0B8, symBinAddr: 0x10000D1B4, symSize: 0x5C }
  - { offsetInCU: 0x100B5, offset: 0x100B5, size: 0x8, addend: 0x0, symName: __ZNSt3__113__rewrap_iterB8ue170006INS_16reverse_iteratorIPiEES3_NS_18__unwrap_iter_implIS3_Lb0EEEEET_S6_T0_, symObjAddr: 0xA114, symBinAddr: 0x10000D210, symSize: 0x88 }
  - { offsetInCU: 0x10176, offset: 0x10176, size: 0x8, addend: 0x0, symName: __ZNSt3__119__allocate_at_leastB8ue170006INS_9allocatorINS_4pairIiiEEEEEENS_19__allocation_resultINS_16allocator_traitsIT_E7pointerEEERS7_m, symObjAddr: 0xAC44, symBinAddr: 0x10000DD40, symSize: 0x40 }
  - { offsetInCU: 0x101B9, offset: 0x101B9, size: 0x8, addend: 0x0, symName: __ZNSt3__142__uninitialized_allocator_move_if_noexceptB8ue170006INS_9allocatorINS_4pairIiiEEEENS_16reverse_iteratorIPS3_EES7_S7_EET2_RT_T0_T1_S8_, symObjAddr: 0xAE24, symBinAddr: 0x10000DF20, symSize: 0x134 }
  - { offsetInCU: 0x10259, offset: 0x10259, size: 0x8, addend: 0x0, symName: __ZNSt3__14swapB8ue170006IPNS_4pairIiiEEEEvRT_S5_, symObjAddr: 0xAFA4, symBinAddr: 0x10000E0A0, symSize: 0x3C }
  - { offsetInCU: 0x102AA, offset: 0x102AA, size: 0x8, addend: 0x0, symName: __ZNSt3__122__make_exception_guardB8ue170006INS_29_AllocatorDestroyRangeReverseINS_9allocatorINS_4pairIiiEEEENS_16reverse_iteratorIPS4_EEEEEENS_28__exception_guard_exceptionsIT_EESB_, symObjAddr: 0xB08C, symBinAddr: 0x10000E188, symSize: 0x4C }
  - { offsetInCU: 0x102E0, offset: 0x102E0, size: 0x8, addend: 0x0, symName: __ZNSt3__1neB8ue170006IPNS_4pairIiiEES3_EEbRKNS_16reverse_iteratorIT_EERKNS4_IT0_EE, symObjAddr: 0xB11C, symBinAddr: 0x10000E218, symSize: 0x48 }
  - { offsetInCU: 0x1032C, offset: 0x1032C, size: 0x8, addend: 0x0, symName: __ZNSt3__112__to_addressB8ue170006INS_16reverse_iteratorIPNS_4pairIiiEEEEvEEu7__decayIDTclsr19__to_address_helperIT_EE6__callclsr3stdE7declvalIRKS6_EEEEES8_, symObjAddr: 0xB164, symBinAddr: 0x10000E260, symSize: 0x24 }
  - { offsetInCU: 0x1038B, offset: 0x1038B, size: 0x8, addend: 0x0, symName: __ZNSt3__119__allocator_destroyB8ue170006INS_9allocatorINS_4pairIiiEEEENS_16reverse_iteratorINS5_IPS3_EEEES8_EEvRT_T0_T1_, symObjAddr: 0xB420, symBinAddr: 0x10000E51C, symSize: 0x70 }
  - { offsetInCU: 0x103F0, offset: 0x103F0, size: 0x8, addend: 0x0, symName: __ZNSt3__1neB8ue170006INS_16reverse_iteratorIPNS_4pairIiiEEEES5_EEbRKNS1_IT_EERKNS1_IT0_EE, symObjAddr: 0xB4CC, symBinAddr: 0x10000E5C8, symSize: 0x60 }
  - { offsetInCU: 0x1043C, offset: 0x1043C, size: 0x8, addend: 0x0, symName: __ZNSt3__112__to_addressB8ue170006INS_16reverse_iteratorINS1_IPNS_4pairIiiEEEEEEvEEu7__decayIDTclsr19__to_address_helperIT_EE6__callclsr3stdE7declvalIRKS7_EEEEES9_, symObjAddr: 0xB52C, symBinAddr: 0x10000E628, symSize: 0x24 }
  - { offsetInCU: 0x1049B, offset: 0x1049B, size: 0x8, addend: 0x0, symName: __ZNSt3__112__to_addressB8ue170006INS_4pairIiP4EdgeEEEEPT_S6_, symObjAddr: 0xBB54, symBinAddr: 0x10000EC50, symSize: 0x14 }
  - { offsetInCU: 0x104D0, offset: 0x104D0, size: 0x8, addend: 0x0, symName: __ZNSt3__119__allocate_at_leastB8ue170006INS_9allocatorINS_4pairIiP4EdgeEEEEEENS_19__allocation_resultINS_16allocator_traitsIT_E7pointerEEERS9_m, symObjAddr: 0xC164, symBinAddr: 0x10000F260, symSize: 0x40 }
  - { offsetInCU: 0x10513, offset: 0x10513, size: 0x8, addend: 0x0, symName: __ZNSt3__142__uninitialized_allocator_move_if_noexceptB8ue170006INS_9allocatorINS_4pairIiP4EdgeEEEENS_16reverse_iteratorIPS5_EES9_S9_EET2_RT_T0_T1_SA_, symObjAddr: 0xC3FC, symBinAddr: 0x10000F4F8, symSize: 0x134 }
  - { offsetInCU: 0x105B3, offset: 0x105B3, size: 0x8, addend: 0x0, symName: __ZNSt3__14swapB8ue170006IPNS_4pairIiP4EdgeEEEEvRT_S7_, symObjAddr: 0xC57C, symBinAddr: 0x10000F678, symSize: 0x3C }
  - { offsetInCU: 0x10604, offset: 0x10604, size: 0x8, addend: 0x0, symName: __ZNSt3__122__make_exception_guardB8ue170006INS_29_AllocatorDestroyRangeReverseINS_9allocatorINS_4pairIiP4EdgeEEEENS_16reverse_iteratorIPS6_EEEEEENS_28__exception_guard_exceptionsIT_EESD_, symObjAddr: 0xC6AC, symBinAddr: 0x10000F7A8, symSize: 0x4C }
  - { offsetInCU: 0x1063A, offset: 0x1063A, size: 0x8, addend: 0x0, symName: __ZNSt3__1neB8ue170006IPNS_4pairIiP4EdgeEES5_EEbRKNS_16reverse_iteratorIT_EERKNS6_IT0_EE, symObjAddr: 0xC73C, symBinAddr: 0x10000F838, symSize: 0x48 }
  - { offsetInCU: 0x10686, offset: 0x10686, size: 0x8, addend: 0x0, symName: __ZNSt3__112__to_addressB8ue170006INS_16reverse_iteratorIPNS_4pairIiP4EdgeEEEEvEEu7__decayIDTclsr19__to_address_helperIT_EE6__callclsr3stdE7declvalIRKS8_EEEEESA_, symObjAddr: 0xC784, symBinAddr: 0x10000F880, symSize: 0x24 }
  - { offsetInCU: 0x106E5, offset: 0x106E5, size: 0x8, addend: 0x0, symName: __ZNSt3__119__allocator_destroyB8ue170006INS_9allocatorINS_4pairIiP4EdgeEEEENS_16reverse_iteratorINS7_IPS5_EEEESA_EEvRT_T0_T1_, symObjAddr: 0xCA40, symBinAddr: 0x10000FB3C, symSize: 0x70 }
  - { offsetInCU: 0x1074A, offset: 0x1074A, size: 0x8, addend: 0x0, symName: __ZNSt3__1neB8ue170006INS_16reverse_iteratorIPNS_4pairIiP4EdgeEEEES7_EEbRKNS1_IT_EERKNS1_IT0_EE, symObjAddr: 0xCAEC, symBinAddr: 0x10000FBE8, symSize: 0x60 }
  - { offsetInCU: 0x10796, offset: 0x10796, size: 0x8, addend: 0x0, symName: __ZNSt3__112__to_addressB8ue170006INS_16reverse_iteratorINS1_IPNS_4pairIiP4EdgeEEEEEEvEEu7__decayIDTclsr19__to_address_helperIT_EE6__callclsr3stdE7declvalIRKS9_EEEEESB_, symObjAddr: 0xCB78, symBinAddr: 0x10000FC74, symSize: 0x24 }
  - { offsetInCU: 0x107F5, offset: 0x107F5, size: 0x8, addend: 0x0, symName: __ZNSt3__116__pad_and_outputB8ue170006IcNS_11char_traitsIcEEEENS_19ostreambuf_iteratorIT_T0_EES6_PKS4_S8_S8_RNS_8ios_baseES4_, symObjAddr: 0xD1C4, symBinAddr: 0x1000102C0, symSize: 0x248 }
  - { offsetInCU: 0x108C4, offset: 0x108C4, size: 0x8, addend: 0x0, symName: __ZNSt3__122__make_exception_guardB8ue170006INS_6vectorIiNS_9allocatorIiEEE16__destroy_vectorEEENS_28__exception_guard_exceptionsIT_EES7_, symObjAddr: 0xD7B4, symBinAddr: 0x1000108B0, symSize: 0x40 }
  - { offsetInCU: 0x108F9, offset: 0x108F9, size: 0x8, addend: 0x0, symName: __ZNSt3__19push_heapB8ue170006INS_11__wrap_iterIPNS_4pairIiiEEEENS_7greaterIS3_EEEEvT_S8_T0_, symObjAddr: 0xDAF8, symBinAddr: 0x100010BF4, symSize: 0x40 }
  - { offsetInCU: 0x1094F, offset: 0x1094F, size: 0x8, addend: 0x0, symName: __ZNSt3__111__push_heapB8ue170006INS_17_ClassicAlgPolicyENS_11__wrap_iterIPNS_4pairIiiEEEENS_7greaterIS4_EEEEvT0_S9_RT1_, symObjAddr: 0xDD0C, symBinAddr: 0x100010E08, symSize: 0x5C }
  - { offsetInCU: 0x109BC, offset: 0x109BC, size: 0x8, addend: 0x0, symName: __ZNSt3__1miB8ue170006IPNS_4pairIiiEES3_EENS_11__wrap_iterIT_E15difference_typeERKS6_RKNS4_IT0_EE, symObjAddr: 0xDD68, symBinAddr: 0x100010E64, symSize: 0x48 }
  - { offsetInCU: 0x10A08, offset: 0x10A08, size: 0x8, addend: 0x0, symName: __ZNSt3__19__sift_upB8ue170006INS_17_ClassicAlgPolicyERNS_7greaterINS_4pairIiiEEEENS_11__wrap_iterIPS4_EEEEvT1_SA_OT0_NS_15iterator_traitsISA_E15difference_typeE, symObjAddr: 0xDDB0, symBinAddr: 0x100010EAC, symSize: 0x15C }
  - { offsetInCU: 0x10ADC, offset: 0x10ADC, size: 0x8, addend: 0x0, symName: __ZNSt3__1gtB8ue170006IiiiiEEbRKNS_4pairIT_T0_EERKNS1_IT1_T2_EE, symObjAddr: 0xE034, symBinAddr: 0x100011130, symSize: 0x30 }
  - { offsetInCU: 0x10B3D, offset: 0x10B3D, size: 0x8, addend: 0x0, symName: __ZNSt3__1ltB8ue170006IiiiiEEbRKNS_4pairIT_T0_EERKNS1_IT1_T2_EE, symObjAddr: 0xE064, symBinAddr: 0x100011160, symSize: 0x98 }
  - { offsetInCU: 0x10C18, offset: 0x10C18, size: 0x8, addend: 0x0, symName: __ZNSt3__18pop_heapB8ue170006INS_11__wrap_iterIPNS_4pairIiiEEEENS_7greaterIS3_EEEEvT_S8_T0_, symObjAddr: 0xE144, symBinAddr: 0x100011240, symSize: 0x58 }
  - { offsetInCU: 0x10C7C, offset: 0x10C7C, size: 0x8, addend: 0x0, symName: __ZNSt3__110__pop_heapB8ue170006INS_17_ClassicAlgPolicyENS_7greaterINS_4pairIiiEEEENS_11__wrap_iterIPS4_EEEEvT1_S9_RT0_NS_15iterator_traitsIS9_E15difference_typeE, symObjAddr: 0xE1C8, symBinAddr: 0x1000112C4, symSize: 0x128 }
  - { offsetInCU: 0x10D2C, offset: 0x10D2C, size: 0x8, addend: 0x0, symName: __ZNSt3__1eqB8ue170006IPNS_4pairIiiEEEEbRKNS_11__wrap_iterIT_EES8_, symObjAddr: 0xE438, symBinAddr: 0x100011534, symSize: 0x48 }
  - { offsetInCU: 0x10D6F, offset: 0x10D6F, size: 0x8, addend: 0x0, symName: __ZNSt3__130__uninitialized_allocator_copyB8ue170006INS_9allocatorIiEEPiS3_S3_EET2_RT_T0_T1_S4_, symObjAddr: 0xE910, symBinAddr: 0x100011A0C, symSize: 0x80 }
  - { offsetInCU: 0x10E0C, offset: 0x10E0C, size: 0x8, addend: 0x0, symName: __ZNSt3__114__unwrap_rangeB8ue170006IPiS1_EENS_4pairIT0_S3_EET_S5_, symObjAddr: 0xE990, symBinAddr: 0x100011A8C, symSize: 0x60 }
  - { offsetInCU: 0x10E58, offset: 0x10E58, size: 0x8, addend: 0x0, symName: __ZNSt3__135__uninitialized_allocator_copy_implB8ue170006INS_9allocatorIiEEPiS3_S3_EET2_RT_T0_T1_S4_, symObjAddr: 0xE9F0, symBinAddr: 0x100011AEC, symSize: 0xFC }
  - { offsetInCU: 0x10EF6, offset: 0x10EF6, size: 0x8, addend: 0x0, symName: __ZNSt3__113__unwrap_iterB8ue170006IPiNS_18__unwrap_iter_implIS1_Lb1EEELi0EEEDTclsrT0_8__unwrapclsr3stdE7declvalIT_EEEES5_, symObjAddr: 0xEAEC, symBinAddr: 0x100011BE8, symSize: 0x24 }
  - { offsetInCU: 0x10F3A, offset: 0x10F3A, size: 0x8, addend: 0x0, symName: __ZNSt3__113__rewrap_iterB8ue170006IPiS1_NS_18__unwrap_iter_implIS1_Lb1EEEEET_S4_T0_, symObjAddr: 0xEB10, symBinAddr: 0x100011C0C, symSize: 0x50 }
  - { offsetInCU: 0x10F8F, offset: 0x10F8F, size: 0x8, addend: 0x0, symName: __ZNSt3__19make_pairB8ue170006IPiS1_EENS_4pairINS_18__unwrap_ref_decayIT_E4typeENS3_IT0_E4typeEEEOS4_OS7_, symObjAddr: 0xEB60, symBinAddr: 0x100011C5C, symSize: 0x38 }
  - { offsetInCU: 0x1108B, offset: 0x1108B, size: 0x8, addend: 0x0, symName: __ZNSt3__122__make_exception_guardB8ue170006INS_29_AllocatorDestroyRangeReverseINS_9allocatorIiEEPiEEEENS_28__exception_guard_exceptionsIT_EES7_, symObjAddr: 0xEC08, symBinAddr: 0x100011D04, symSize: 0x4C }
  - { offsetInCU: 0x110C1, offset: 0x110C1, size: 0x8, addend: 0x0, symName: __ZNSt3__119__allocator_destroyB8ue170006INS_9allocatorIiEENS_16reverse_iteratorIPiEES5_EEvRT_T0_T1_, symObjAddr: 0xEE88, symBinAddr: 0x100011F84, symSize: 0x70 }
  - { offsetInCU: 0x11177, offset: 0x11177, size: 0x8, addend: 0x0, symName: __ZNSt3__18distanceB8ue170006IPiEENS_15iterator_traitsIT_E15difference_typeES3_S3_, symObjAddr: 0xF16C, symBinAddr: 0x100012268, symSize: 0x2C }
  - { offsetInCU: 0x111BA, offset: 0x111BA, size: 0x8, addend: 0x0, symName: __ZNSt3__14nextB8ue170006IPiEENS_9enable_ifIXsr29__has_input_iterator_categoryIT_EE5valueES3_E4typeES3_NS_15iterator_traitsIS3_E15difference_typeE, symObjAddr: 0xF198, symBinAddr: 0x100012294, symSize: 0x34 }
  - { offsetInCU: 0x111FD, offset: 0x111FD, size: 0x8, addend: 0x0, symName: __ZNSt3__14copyB8ue170006IPiS1_EET0_T_S3_S2_, symObjAddr: 0xF1CC, symBinAddr: 0x1000122C8, symSize: 0x40 }
  - { offsetInCU: 0x11257, offset: 0x11257, size: 0x8, addend: 0x0, symName: __ZNSt3__16__copyB8ue170006INS_17_ClassicAlgPolicyEPiS2_S2_EENS_4pairIT0_T2_EES4_T1_S5_, symObjAddr: 0xF20C, symBinAddr: 0x100012308, symSize: 0x44 }
  - { offsetInCU: 0x112C3, offset: 0x112C3, size: 0x8, addend: 0x0, symName: __ZNSt3__121__convert_to_integralB8ue170006El, symObjAddr: 0xF368, symBinAddr: 0x100012464, symSize: 0x14 }
  - { offsetInCU: 0x112EF, offset: 0x112EF, size: 0x8, addend: 0x0, symName: __ZNSt3__19__advanceB8ue170006IPiEEvRT_NS_15iterator_traitsIS2_E15difference_typeENS_26random_access_iterator_tagE, symObjAddr: 0xF37C, symBinAddr: 0x100012478, symSize: 0x28 }
  - { offsetInCU: 0x11338, offset: 0x11338, size: 0x8, addend: 0x0, symName: __ZNSt3__123__dispatch_copy_or_moveB8ue170006INS_17_ClassicAlgPolicyENS_11__copy_loopIS1_EENS_14__copy_trivialEPiS5_S5_EENS_4pairIT2_T4_EES7_T3_S8_, symObjAddr: 0xF3A4, symBinAddr: 0x1000124A0, symSize: 0x44 }
  - { offsetInCU: 0x113B6, offset: 0x113B6, size: 0x8, addend: 0x0, symName: __ZNSt3__121__unwrap_and_dispatchB8ue170006INS_10__overloadINS_11__copy_loopINS_17_ClassicAlgPolicyEEENS_14__copy_trivialEEEPiS7_S7_Li0EEENS_4pairIT0_T2_EES9_T1_SA_, symObjAddr: 0xF3E8, symBinAddr: 0x1000124E4, symSize: 0xB4 }
  - { offsetInCU: 0x1148A, offset: 0x1148A, size: 0x8, addend: 0x0, symName: __ZNSt3__114__rewrap_rangeB8ue170006IPiS1_EET_S2_T0_, symObjAddr: 0xF4E4, symBinAddr: 0x1000125E0, symSize: 0x2C }
  - { offsetInCU: 0x114D6, offset: 0x114D6, size: 0x8, addend: 0x0, symName: __ZNSt3__119__copy_trivial_implB8ue170006IiiEENS_4pairIPT_PT0_EES3_S3_S5_, symObjAddr: 0xF510, symBinAddr: 0x10001260C, symSize: 0x80 }
  - { offsetInCU: 0x1153E, offset: 0x1153E, size: 0x8, addend: 0x0, symName: __ZNSt3__119__constexpr_memmoveB8ue170006IiiLi0EEEPT_S2_PT0_NS_15__element_countE, symObjAddr: 0xF590, symBinAddr: 0x10001268C, symSize: 0xA0 }
  - { offsetInCU: 0x115AC, offset: 0x115AC, size: 0x8, addend: 0x0, symName: __ZNSt3__19make_pairB8ue170006IRPiS1_EENS_4pairINS_18__unwrap_ref_decayIT_E4typeENS4_IT0_E4typeEEEOS5_OS8_, symObjAddr: 0xF630, symBinAddr: 0x10001272C, symSize: 0x38 }
  - { offsetInCU: 0x115FB, offset: 0x115FB, size: 0x8, addend: 0x0, symName: __ZNSt3__110__distanceB8ue170006IPiEENS_15iterator_traitsIT_E15difference_typeES3_S3_NS_26random_access_iterator_tagE, symObjAddr: 0xF760, symBinAddr: 0x10001285C, symSize: 0x28 }
  - { offsetInCU: 0x11963, offset: 0x11963, size: 0x8, addend: 0x0, symName: __ZSt28__throw_bad_array_new_lengthB8ue170006v, symObjAddr: 0x50A8, symBinAddr: 0x1000081A4, symSize: 0x34 }
  - { offsetInCU: 0x11B25, offset: 0x11B25, size: 0x8, addend: 0x0, symName: __ZL4EDGE, symObjAddr: 0x72DE0, symBinAddr: 0x100018018, symSize: 0x0 }
  - { offsetInCU: 0x11B3E, offset: 0x11B3E, size: 0x8, addend: 0x0, symName: __ZL5ORDER, symObjAddr: 0x72DF8, symBinAddr: 0x100018030, symSize: 0x0 }
  - { offsetInCU: 0x11B57, offset: 0x11B57, size: 0x8, addend: 0x0, symName: __ZL4DROP, symObjAddr: 0x72E10, symBinAddr: 0x100018048, symSize: 0x0 }
  - { offsetInCU: 0x11B70, offset: 0x11B70, size: 0x8, addend: 0x0, symName: __ZL8COMPLETE, symObjAddr: 0x72E28, symBinAddr: 0x100018060, symSize: 0x0 }
  - { offsetInCU: 0x12646, offset: 0x12646, size: 0x8, addend: 0x0, symName: __ZNSt3__16vectorIP6VertexNS_9allocatorIS2_EEE26__swap_out_circular_bufferERNS_14__split_bufferIS2_RS4_EE, symObjAddr: 0x6288, symBinAddr: 0x100009384, symSize: 0x110 }
  - { offsetInCU: 0x1269D, offset: 0x1269D, size: 0x8, addend: 0x0, symName: __ZNSt3__16vectorIP5OrderNS_9allocatorIS2_EEE26__swap_out_circular_bufferERNS_14__split_bufferIS2_RS4_EE, symObjAddr: 0x7C5C, symBinAddr: 0x10000AD58, symSize: 0x110 }
  - { offsetInCU: 0x126F4, offset: 0x126F4, size: 0x8, addend: 0x0, symName: __ZNSt3__16vectorIiNS_9allocatorIiEEE26__swap_out_circular_bufferERNS_14__split_bufferIiRS2_EE, symObjAddr: 0x93EC, symBinAddr: 0x10000C4E8, symSize: 0x110 }
  - { offsetInCU: 0x1274B, offset: 0x1274B, size: 0x8, addend: 0x0, symName: __ZNSt3__16vectorINS_4pairIiiEENS_9allocatorIS2_EEE26__swap_out_circular_bufferERNS_14__split_bufferIS2_RS4_EE, symObjAddr: 0xA8D0, symBinAddr: 0x10000D9CC, symSize: 0x110 }
  - { offsetInCU: 0x127DF, offset: 0x127DF, size: 0x8, addend: 0x0, symName: __ZNSt3__16vectorINS_4pairIiP4EdgeEENS_9allocatorIS4_EEE26__swap_out_circular_bufferERNS_14__split_bufferIS4_RS6_EE, symObjAddr: 0xBD50, symBinAddr: 0x10000EE4C, symSize: 0x110 }
  - { offsetInCU: 0x14CF8, offset: 0x14CF8, size: 0x8, addend: 0x0, symName: __ZNSt3__112basic_stringIcNS_11char_traitsIcEENS_9allocatorIcEEEC1B8ue170006ILi0EEEPKc, symObjAddr: 0x0, symBinAddr: 0x1000030FC, symSize: 0x34 }
  - { offsetInCU: 0x14D37, offset: 0x14D37, size: 0x8, addend: 0x0, symName: _main, symObjAddr: 0x34, symBinAddr: 0x100003130, symSize: 0x370 }
  - { offsetInCU: 0x1517C, offset: 0x1517C, size: 0x8, addend: 0x0, symName: __ZN5GraphC1Eii, symObjAddr: 0x3A4, symBinAddr: 0x1000034A0, symSize: 0x3C }
  - { offsetInCU: 0x151C3, offset: 0x151C3, size: 0x8, addend: 0x0, symName: __ZNSt3__112basic_stringIcNS_11char_traitsIcEENS_9allocatorIcEEEC1B8ue170006Ev, symObjAddr: 0x3E0, symBinAddr: 0x1000034DC, symSize: 0x2C }
  - { offsetInCU: 0x151ED, offset: 0x151ED, size: 0x8, addend: 0x0, symName: __ZN5Graph12InsertVertexEii, symObjAddr: 0x730, symBinAddr: 0x10000382C, symSize: 0xBC }
  - { offsetInCU: 0x1523E, offset: 0x1523E, size: 0x8, addend: 0x0, symName: __ZN5Graph10InsertEdgeEiiii, symObjAddr: 0x7EC, symBinAddr: 0x1000038E8, symSize: 0x210 }
  - { offsetInCU: 0x152AB, offset: 0x152AB, size: 0x8, addend: 0x0, symName: __ZN5Graph9TakeOrderEiii, symObjAddr: 0xB44, symBinAddr: 0x100003C40, symSize: 0x2B8 }
  - { offsetInCU: 0x1533F, offset: 0x1533F, size: 0x8, addend: 0x0, symName: __ZN5Graph9DropOrderEiib, symObjAddr: 0xDFC, symBinAddr: 0x100003EF8, symSize: 0x254 }
  - { offsetInCU: 0x153D7, offset: 0x153D7, size: 0x8, addend: 0x0, symName: __ZN5Graph13CompleteOrderEi, symObjAddr: 0x1050, symBinAddr: 0x10000414C, symSize: 0xDC }
  - { offsetInCU: 0x1542C, offset: 0x1542C, size: 0x8, addend: 0x0, symName: __ZN5GraphD1Ev, symObjAddr: 0x1138, symBinAddr: 0x100004234, symSize: 0x2C }
  - { offsetInCU: 0x15458, offset: 0x15458, size: 0x8, addend: 0x0, symName: __ZN5GraphC2Eii, symObjAddr: 0x1164, symBinAddr: 0x100004260, symSize: 0x1E4 }
  - { offsetInCU: 0x1549F, offset: 0x1549F, size: 0x8, addend: 0x0, symName: __ZNSt3__16vectorINS_4pairIiiEENS_9allocatorIS2_EEEC1B8ue170006Ev, symObjAddr: 0x1348, symBinAddr: 0x100004444, symSize: 0x2C }
  - { offsetInCU: 0x154C9, offset: 0x154C9, size: 0x8, addend: 0x0, symName: __ZNSt3__16vectorIP6VertexNS_9allocatorIS2_EEEC1B8ue170006Ev, symObjAddr: 0x1374, symBinAddr: 0x100004470, symSize: 0x2C }
  - { offsetInCU: 0x154F3, offset: 0x154F3, size: 0x8, addend: 0x0, symName: __ZNSt3__16vectorIiNS_9allocatorIiEEEC1B8ue170006Ev, symObjAddr: 0x13A0, symBinAddr: 0x10000449C, symSize: 0x2C }
  - { offsetInCU: 0x1551D, offset: 0x1551D, size: 0x8, addend: 0x0, symName: __ZNSt3__16vectorIP5OrderNS_9allocatorIS2_EEEC1B8ue170006Ev, symObjAddr: 0x13CC, symBinAddr: 0x1000044C8, symSize: 0x2C }
  - { offsetInCU: 0x15547, offset: 0x15547, size: 0x8, addend: 0x0, symName: __ZNSt3__16vectorIP6VertexNS_9allocatorIS2_EEE6resizeEmRKS2_, symObjAddr: 0x13F8, symBinAddr: 0x1000044F4, symSize: 0x9C }
  - { offsetInCU: 0x1559C, offset: 0x1559C, size: 0x8, addend: 0x0, symName: __ZNSt3__16vectorIP5OrderNS_9allocatorIS2_EEE6resizeEmRKS2_, symObjAddr: 0x1494, symBinAddr: 0x100004590, symSize: 0x9C }
  - { offsetInCU: 0x155F1, offset: 0x155F1, size: 0x8, addend: 0x0, symName: __ZNSt3__16vectorIP5OrderNS_9allocatorIS2_EEED1B8ue170006Ev, symObjAddr: 0x1530, symBinAddr: 0x10000462C, symSize: 0x2C }
  - { offsetInCU: 0x1561B, offset: 0x1561B, size: 0x8, addend: 0x0, symName: __ZNSt3__16vectorIiNS_9allocatorIiEEED1B8ue170006Ev, symObjAddr: 0x155C, symBinAddr: 0x100004658, symSize: 0x2C }
  - { offsetInCU: 0x15645, offset: 0x15645, size: 0x8, addend: 0x0, symName: __ZNSt3__16vectorIP6VertexNS_9allocatorIS2_EEED1B8ue170006Ev, symObjAddr: 0x1588, symBinAddr: 0x100004684, symSize: 0x2C }
  - { offsetInCU: 0x1566F, offset: 0x1566F, size: 0x8, addend: 0x0, symName: __ZNSt3__16vectorINS_4pairIiiEENS_9allocatorIS2_EEED1B8ue170006Ev, symObjAddr: 0x15B4, symBinAddr: 0x1000046B0, symSize: 0x2C }
  - { offsetInCU: 0x15699, offset: 0x15699, size: 0x8, addend: 0x0, symName: __ZN6VertexC1Eii, symObjAddr: 0x15E0, symBinAddr: 0x1000046DC, symSize: 0x3C }
  - { offsetInCU: 0x156DF, offset: 0x156DF, size: 0x8, addend: 0x0, symName: __ZNSt3__16vectorIP6VertexNS_9allocatorIS2_EEEixB8ue170006Em, symObjAddr: 0x161C, symBinAddr: 0x100004718, symSize: 0x24 }
  - { offsetInCU: 0x15716, offset: 0x15716, size: 0x8, addend: 0x0, symName: __ZNSt3__16vectorIiNS_9allocatorIiEEE9push_backB8ue170006ERKi, symObjAddr: 0x1640, symBinAddr: 0x10000473C, symSize: 0x6C }
  - { offsetInCU: 0x1574D, offset: 0x1574D, size: 0x8, addend: 0x0, symName: __ZN4EdgeC1Eiiii, symObjAddr: 0x16AC, symBinAddr: 0x1000047A8, symSize: 0x4C }
  - { offsetInCU: 0x157AF, offset: 0x157AF, size: 0x8, addend: 0x0, symName: __ZNSt3__16vectorINS_4pairIiiEENS_9allocatorIS2_EEE9push_backB8ue170006EOS2_, symObjAddr: 0x16F8, symBinAddr: 0x1000047F4, symSize: 0x6C }
  - { offsetInCU: 0x157E6, offset: 0x157E6, size: 0x8, addend: 0x0, symName: __ZNSt3__14pairIiiEC1B8ue170006ERKiS3_, symObjAddr: 0x1764, symBinAddr: 0x100004860, symSize: 0x3C }
  - { offsetInCU: 0x1582C, offset: 0x1582C, size: 0x8, addend: 0x0, symName: __ZNSt3__16vectorINS_4pairIiP4EdgeEENS_9allocatorIS4_EEE9push_backB8ue170006EOS4_, symObjAddr: 0x17A0, symBinAddr: 0x10000489C, symSize: 0x6C }
  - { offsetInCU: 0x15863, offset: 0x15863, size: 0x8, addend: 0x0, symName: __ZNSt3__14pairIiP4EdgeEC1B8ue170006ERKiRKS2_, symObjAddr: 0x180C, symBinAddr: 0x100004908, symSize: 0x3C }
  - { offsetInCU: 0x158A9, offset: 0x158A9, size: 0x8, addend: 0x0, symName: __ZN5Graph9printEdgeEiP4Edge, symObjAddr: 0x1848, symBinAddr: 0x100004944, symSize: 0x10C }
  - { offsetInCU: 0x158EC, offset: 0x158EC, size: 0x8, addend: 0x0, symName: __ZNSt3__113basic_ostreamIcNS_11char_traitsIcEEElsB8ue170006EPFRS3_S4_E, symObjAddr: 0x199C, symBinAddr: 0x100004A98, symSize: 0x2C }
  - { offsetInCU: 0x15920, offset: 0x15920, size: 0x8, addend: 0x0, symName: __ZN5Graph12PrintAllEdgeEv, symObjAddr: 0x1A20, symBinAddr: 0x100004B1C, symSize: 0x148 }
  - { offsetInCU: 0x1598D, offset: 0x1598D, size: 0x8, addend: 0x0, symName: __ZNKSt3__16vectorINS_4pairIiiEENS_9allocatorIS2_EEE4sizeB8ue170006Ev, symObjAddr: 0x1B68, symBinAddr: 0x100004C64, symSize: 0x28 }
  - { offsetInCU: 0x159B3, offset: 0x159B3, size: 0x8, addend: 0x0, symName: __ZNSt3__16vectorINS_4pairIiiEENS_9allocatorIS2_EEEixB8ue170006Em, symObjAddr: 0x1B90, symBinAddr: 0x100004C8C, symSize: 0x24 }
  - { offsetInCU: 0x159EA, offset: 0x159EA, size: 0x8, addend: 0x0, symName: __ZN5Graph3dfsEi, symObjAddr: 0x1BB4, symBinAddr: 0x100004CB0, symSize: 0x170 }
  - { offsetInCU: 0x15A3B, offset: 0x15A3B, size: 0x8, addend: 0x0, symName: __ZNSt3__16vectorINS_4pairIiP4EdgeEENS_9allocatorIS4_EEE5beginB8ue170006Ev, symObjAddr: 0x1D24, symBinAddr: 0x100004E20, symSize: 0x30 }
  - { offsetInCU: 0x15A63, offset: 0x15A63, size: 0x8, addend: 0x0, symName: __ZNSt3__16vectorINS_4pairIiP4EdgeEENS_9allocatorIS4_EEE3endB8ue170006Ev, symObjAddr: 0x1D88, symBinAddr: 0x100004E84, symSize: 0x30 }
  - { offsetInCU: 0x15A8B, offset: 0x15A8B, size: 0x8, addend: 0x0, symName: __ZNKSt3__111__wrap_iterIPNS_4pairIiP4EdgeEEEdeB8ue170006Ev, symObjAddr: 0x1DB8, symBinAddr: 0x100004EB4, symSize: 0x18 }
  - { offsetInCU: 0x15AB1, offset: 0x15AB1, size: 0x8, addend: 0x0, symName: __ZNSt3__111__wrap_iterIPNS_4pairIiP4EdgeEEEppB8ue170006Ei, symObjAddr: 0x1DD0, symBinAddr: 0x100004ECC, symSize: 0x34 }
  - { offsetInCU: 0x15AEF, offset: 0x15AEF, size: 0x8, addend: 0x0, symName: __ZN5Graph10PrintGraphEi, symObjAddr: 0x1E04, symBinAddr: 0x100004F00, symSize: 0x38 }
  - { offsetInCU: 0x15B24, offset: 0x15B24, size: 0x8, addend: 0x0, symName: __ZN5Graph10resetVisitEv, symObjAddr: 0x1E3C, symBinAddr: 0x100004F38, symSize: 0x34 }
  - { offsetInCU: 0x15B4A, offset: 0x15B4A, size: 0x8, addend: 0x0, symName: __ZN5Graph8DijkstraEiiii, symObjAddr: 0x1E70, symBinAddr: 0x100004F6C, symSize: 0x7DC }
  - { offsetInCU: 0x15CF5, offset: 0x15CF5, size: 0x8, addend: 0x0, symName: __ZNSt3__16vectorIiNS_9allocatorIiEEEC1EmRKi, symObjAddr: 0x264C, symBinAddr: 0x100005748, symSize: 0x3C }
  - { offsetInCU: 0x15D80, offset: 0x15D80, size: 0x8, addend: 0x0, symName: __ZNSt3__114priority_queueINS_4pairIiiEENS_6vectorIS2_NS_9allocatorIS2_EEEENS_7greaterIS2_EEEC1B8ue170006Ev, symObjAddr: 0x2688, symBinAddr: 0x100005784, symSize: 0x2C }
  - { offsetInCU: 0x15DAA, offset: 0x15DAA, size: 0x8, addend: 0x0, symName: __ZNSt3__16vectorIiNS_9allocatorIiEEEixB8ue170006Em, symObjAddr: 0x26B4, symBinAddr: 0x1000057B0, symSize: 0x24 }
  - { offsetInCU: 0x15DE1, offset: 0x15DE1, size: 0x8, addend: 0x0, symName: __ZNSt3__114priority_queueINS_4pairIiiEENS_6vectorIS2_NS_9allocatorIS2_EEEENS_7greaterIS2_EEE4pushERKS2_, symObjAddr: 0x26D8, symBinAddr: 0x1000057D4, symSize: 0x58 }
  - { offsetInCU: 0x15E18, offset: 0x15E18, size: 0x8, addend: 0x0, symName: __ZNKSt3__114priority_queueINS_4pairIiiEENS_6vectorIS2_NS_9allocatorIS2_EEEENS_7greaterIS2_EEE4sizeB8ue170006Ev, symObjAddr: 0x2730, symBinAddr: 0x10000582C, symSize: 0x24 }
  - { offsetInCU: 0x15E3E, offset: 0x15E3E, size: 0x8, addend: 0x0, symName: __ZNKSt3__114priority_queueINS_4pairIiiEENS_6vectorIS2_NS_9allocatorIS2_EEEENS_7greaterIS2_EEE3topB8ue170006Ev, symObjAddr: 0x2754, symBinAddr: 0x100005850, symSize: 0x24 }
  - { offsetInCU: 0x15E64, offset: 0x15E64, size: 0x8, addend: 0x0, symName: __ZNSt3__114priority_queueINS_4pairIiiEENS_6vectorIS2_NS_9allocatorIS2_EEEENS_7greaterIS2_EEE3popEv, symObjAddr: 0x27C0, symBinAddr: 0x1000058BC, symSize: 0x50 }
  - { offsetInCU: 0x15E8C, offset: 0x15E8C, size: 0x8, addend: 0x0, symName: __ZNKSt3__16vectorINS_4pairIiP4EdgeEENS_9allocatorIS4_EEE4sizeB8ue170006Ev, symObjAddr: 0x2810, symBinAddr: 0x10000590C, symSize: 0x28 }
  - { offsetInCU: 0x15EB2, offset: 0x15EB2, size: 0x8, addend: 0x0, symName: __ZNSt3__16vectorINS_4pairIiP4EdgeEENS_9allocatorIS4_EEEixB8ue170006Em, symObjAddr: 0x2838, symBinAddr: 0x100005934, symSize: 0x24 }
  - { offsetInCU: 0x15EE9, offset: 0x15EE9, size: 0x8, addend: 0x0, symName: __ZNSt3__16vectorINS_4pairIiiEENS_9allocatorIS2_EEE5beginB8ue170006Ev, symObjAddr: 0x285C, symBinAddr: 0x100005958, symSize: 0x30 }
  - { offsetInCU: 0x15F11, offset: 0x15F11, size: 0x8, addend: 0x0, symName: __ZNSt3__16vectorINS_4pairIiiEENS_9allocatorIS2_EEE3endB8ue170006Ev, symObjAddr: 0x288C, symBinAddr: 0x100005988, symSize: 0x30 }
  - { offsetInCU: 0x15F39, offset: 0x15F39, size: 0x8, addend: 0x0, symName: __ZNKSt3__111__wrap_iterIPNS_4pairIiiEEEdeB8ue170006Ev, symObjAddr: 0x28F0, symBinAddr: 0x1000059EC, symSize: 0x18 }
  - { offsetInCU: 0x15F5F, offset: 0x15F5F, size: 0x8, addend: 0x0, symName: __ZN6Vertex8findEdgeEi, symObjAddr: 0x2908, symBinAddr: 0x100005A04, symSize: 0xAC }
  - { offsetInCU: 0x15FAF, offset: 0x15FAF, size: 0x8, addend: 0x0, symName: __ZNSt3__111__wrap_iterIPNS_4pairIiiEEEppB8ue170006Ev, symObjAddr: 0x29B4, symBinAddr: 0x100005AB0, symSize: 0x20 }
  - { offsetInCU: 0x15FD5, offset: 0x15FD5, size: 0x8, addend: 0x0, symName: __ZNSt3__14pairINS0_IiiEENS_6vectorIiNS_9allocatorIiEEEEEC1B8ue170006ERKS1_RKS5_, symObjAddr: 0x29D4, symBinAddr: 0x100005AD0, symSize: 0x3C }
  - { offsetInCU: 0x1601B, offset: 0x1601B, size: 0x8, addend: 0x0, symName: __ZNSt3__114priority_queueINS_4pairIiiEENS_6vectorIS2_NS_9allocatorIS2_EEEENS_7greaterIS2_EEED1Ev, symObjAddr: 0x2A10, symBinAddr: 0x100005B0C, symSize: 0x2C }
  - { offsetInCU: 0x16048, offset: 0x16048, size: 0x8, addend: 0x0, symName: __ZN5OrderC1Eiii, symObjAddr: 0x2A3C, symBinAddr: 0x100005B38, symSize: 0x44 }
  - { offsetInCU: 0x1609C, offset: 0x1609C, size: 0x8, addend: 0x0, symName: __ZNSt3__16vectorIiNS_9allocatorIiEEEaSB8ue170006ERKS3_, symObjAddr: 0x2A80, symBinAddr: 0x100005B7C, symSize: 0x68 }
  - { offsetInCU: 0x160D3, offset: 0x160D3, size: 0x8, addend: 0x0, symName: __ZNSt3__16vectorIP5OrderNS_9allocatorIS2_EEEixB8ue170006Em, symObjAddr: 0x2AE8, symBinAddr: 0x100005BE4, symSize: 0x24 }
  - { offsetInCU: 0x1610A, offset: 0x1610A, size: 0x8, addend: 0x0, symName: __ZN5Graph11PathCuttingEii, symObjAddr: 0x2B0C, symBinAddr: 0x100005C08, symSize: 0x1E0 }
  - { offsetInCU: 0x1623A, offset: 0x1623A, size: 0x8, addend: 0x0, symName: __ZNSt3__14pairINS0_IiiEENS_6vectorIiNS_9allocatorIiEEEEED1Ev, symObjAddr: 0x2CEC, symBinAddr: 0x100005DE8, symSize: 0x2C }
  - { offsetInCU: 0x16266, offset: 0x16266, size: 0x8, addend: 0x0, symName: __ZN5Graph11PathRecoverEii, symObjAddr: 0x2D18, symBinAddr: 0x100005E14, symSize: 0x1E0 }
  - { offsetInCU: 0x16396, offset: 0x16396, size: 0x8, addend: 0x0, symName: __ZN5Graph11ChooseOrderEv, symObjAddr: 0x2EF8, symBinAddr: 0x100005FF4, symSize: 0x110 }
  - { offsetInCU: 0x163DB, offset: 0x163DB, size: 0x8, addend: 0x0, symName: __ZNKSt3__16vectorIiNS_9allocatorIiEEE4sizeB8ue170006Ev, symObjAddr: 0x3008, symBinAddr: 0x100006104, symSize: 0x28 }
  - { offsetInCU: 0x16401, offset: 0x16401, size: 0x8, addend: 0x0, symName: __ZN5GraphD2Ev, symObjAddr: 0x3030, symBinAddr: 0x10000612C, symSize: 0x150 }
  - { offsetInCU: 0x1642D, offset: 0x1642D, size: 0x8, addend: 0x0, symName: __ZN6VertexC2Eii, symObjAddr: 0x3180, symBinAddr: 0x10000627C, symSize: 0x48 }
  - { offsetInCU: 0x16473, offset: 0x16473, size: 0x8, addend: 0x0, symName: __ZNSt3__16vectorINS_4pairIiP4EdgeEENS_9allocatorIS4_EEEC1B8ue170006Ev, symObjAddr: 0x31C8, symBinAddr: 0x1000062C4, symSize: 0x2C }
  - { offsetInCU: 0x1649D, offset: 0x1649D, size: 0x8, addend: 0x0, symName: __ZNSt3__16vectorINS_4pairIiP4EdgeEENS_9allocatorIS4_EEEC2B8ue170006Ev, symObjAddr: 0x31F4, symBinAddr: 0x1000062F0, symSize: 0x44 }
  - { offsetInCU: 0x164D3, offset: 0x164D3, size: 0x8, addend: 0x0, symName: __ZNSt3__117__compressed_pairIPNS_4pairIiP4EdgeEENS_9allocatorIS4_EEEC1B8ue170006IDnNS_18__default_init_tagEEEOT_OT0_, symObjAddr: 0x3238, symBinAddr: 0x100006334, symSize: 0x3C }
  - { offsetInCU: 0x1652B, offset: 0x1652B, size: 0x8, addend: 0x0, symName: __ZNSt3__117__compressed_pairIPNS_4pairIiP4EdgeEENS_9allocatorIS4_EEEC2B8ue170006IDnNS_18__default_init_tagEEEOT_OT0_, symObjAddr: 0x3274, symBinAddr: 0x100006370, symSize: 0x40 }
  - { offsetInCU: 0x16583, offset: 0x16583, size: 0x8, addend: 0x0, symName: __ZNSt3__122__compressed_pair_elemIPNS_4pairIiP4EdgeEELi0ELb0EEC2B8ue170006IDnvEEOT_, symObjAddr: 0x32B4, symBinAddr: 0x1000063B0, symSize: 0x1C }
  - { offsetInCU: 0x165C5, offset: 0x165C5, size: 0x8, addend: 0x0, symName: __ZNSt3__122__compressed_pair_elemINS_9allocatorINS_4pairIiP4EdgeEEEELi1ELb1EEC2B8ue170006ENS_18__default_init_tagE, symObjAddr: 0x32D0, symBinAddr: 0x1000063CC, symSize: 0x2C }
  - { offsetInCU: 0x165F9, offset: 0x165F9, size: 0x8, addend: 0x0, symName: __ZNSt3__19allocatorINS_4pairIiP4EdgeEEEC2B8ue170006Ev, symObjAddr: 0x32FC, symBinAddr: 0x1000063F8, symSize: 0x2C }
  - { offsetInCU: 0x16623, offset: 0x16623, size: 0x8, addend: 0x0, symName: __ZNSt3__116__non_trivial_ifILb1ENS_9allocatorINS_4pairIiP4EdgeEEEEEC2B8ue170006Ev, symObjAddr: 0x3328, symBinAddr: 0x100006424, symSize: 0x14 }
  - { offsetInCU: 0x1664D, offset: 0x1664D, size: 0x8, addend: 0x0, symName: __ZN4EdgeC2Eiiii, symObjAddr: 0x333C, symBinAddr: 0x100006438, symSize: 0x44 }
  - { offsetInCU: 0x166AF, offset: 0x166AF, size: 0x8, addend: 0x0, symName: __ZNSt3__114priority_queueINS_4pairIiiEENS_6vectorIS2_NS_9allocatorIS2_EEEENS_7greaterIS2_EEED2Ev, symObjAddr: 0x3380, symBinAddr: 0x10000647C, symSize: 0x2C }
  - { offsetInCU: 0x166DC, offset: 0x166DC, size: 0x8, addend: 0x0, symName: __ZN5OrderC2Eiii, symObjAddr: 0x33AC, symBinAddr: 0x1000064A8, symSize: 0xA4 }
  - { offsetInCU: 0x16730, offset: 0x16730, size: 0x8, addend: 0x0, symName: __ZNSt3__14pairINS0_IiiEENS_6vectorIiNS_9allocatorIiEEEEED2Ev, symObjAddr: 0x3450, symBinAddr: 0x10000654C, symSize: 0x30 }
  - { offsetInCU: 0x1675C, offset: 0x1675C, size: 0x8, addend: 0x0, symName: __ZNSt3__112basic_stringIcNS_11char_traitsIcEENS_9allocatorIcEEEC2B8ue170006ILi0EEEPKc, symObjAddr: 0x3480, symBinAddr: 0x10000657C, symSize: 0x58 }
  - { offsetInCU: 0x1679B, offset: 0x1679B, size: 0x8, addend: 0x0, symName: __ZNSt3__117__compressed_pairINS_12basic_stringIcNS_11char_traitsIcEENS_9allocatorIcEEE5__repES5_EC1B8ue170006INS_18__default_init_tagESA_EEOT_OT0_, symObjAddr: 0x34D8, symBinAddr: 0x1000065D4, symSize: 0x3C }
  - { offsetInCU: 0x167F3, offset: 0x167F3, size: 0x8, addend: 0x0, symName: __ZNSt3__111char_traitsIcE6lengthB8ue170006EPKc, symObjAddr: 0x3514, symBinAddr: 0x100006610, symSize: 0x48 }
  - { offsetInCU: 0x16816, offset: 0x16816, size: 0x8, addend: 0x0, symName: __ZNSt3__117__compressed_pairINS_12basic_stringIcNS_11char_traitsIcEENS_9allocatorIcEEE5__repES5_EC2B8ue170006INS_18__default_init_tagESA_EEOT_OT0_, symObjAddr: 0x355C, symBinAddr: 0x100006658, symSize: 0x3C }
  - { offsetInCU: 0x1686E, offset: 0x1686E, size: 0x8, addend: 0x0, symName: __ZNSt3__122__compressed_pair_elemINS_12basic_stringIcNS_11char_traitsIcEENS_9allocatorIcEEE5__repELi0ELb0EEC2B8ue170006ENS_18__default_init_tagE, symObjAddr: 0x3598, symBinAddr: 0x100006694, symSize: 0x14 }
  - { offsetInCU: 0x168A2, offset: 0x168A2, size: 0x8, addend: 0x0, symName: __ZNSt3__122__compressed_pair_elemINS_9allocatorIcEELi1ELb1EEC2B8ue170006ENS_18__default_init_tagE, symObjAddr: 0x35AC, symBinAddr: 0x1000066A8, symSize: 0x2C }
  - { offsetInCU: 0x168D6, offset: 0x168D6, size: 0x8, addend: 0x0, symName: __ZNSt3__19allocatorIcEC2B8ue170006Ev, symObjAddr: 0x35D8, symBinAddr: 0x1000066D4, symSize: 0x2C }
  - { offsetInCU: 0x16900, offset: 0x16900, size: 0x8, addend: 0x0, symName: __ZNSt3__116__non_trivial_ifILb1ENS_9allocatorIcEEEC2B8ue170006Ev, symObjAddr: 0x3604, symBinAddr: 0x100006700, symSize: 0x14 }
  - { offsetInCU: 0x1692A, offset: 0x1692A, size: 0x8, addend: 0x0, symName: __ZNSt3__16vectorIiNS_9allocatorIiEEEC2B8ue170006Ev, symObjAddr: 0x363C, symBinAddr: 0x100006738, symSize: 0x44 }
  - { offsetInCU: 0x16954, offset: 0x16954, size: 0x8, addend: 0x0, symName: __ZNSt3__117__compressed_pairIPiNS_9allocatorIiEEEC1B8ue170006IDnNS_18__default_init_tagEEEOT_OT0_, symObjAddr: 0x3680, symBinAddr: 0x10000677C, symSize: 0x3C }
  - { offsetInCU: 0x169AC, offset: 0x169AC, size: 0x8, addend: 0x0, symName: __ZNSt3__117__compressed_pairIPiNS_9allocatorIiEEEC2B8ue170006IDnNS_18__default_init_tagEEEOT_OT0_, symObjAddr: 0x36BC, symBinAddr: 0x1000067B8, symSize: 0x40 }
  - { offsetInCU: 0x16A04, offset: 0x16A04, size: 0x8, addend: 0x0, symName: __ZNSt3__122__compressed_pair_elemIPiLi0ELb0EEC2B8ue170006IDnvEEOT_, symObjAddr: 0x36FC, symBinAddr: 0x1000067F8, symSize: 0x1C }
  - { offsetInCU: 0x16A46, offset: 0x16A46, size: 0x8, addend: 0x0, symName: __ZNSt3__122__compressed_pair_elemINS_9allocatorIiEELi1ELb1EEC2B8ue170006ENS_18__default_init_tagE, symObjAddr: 0x3718, symBinAddr: 0x100006814, symSize: 0x2C }
  - { offsetInCU: 0x16A7A, offset: 0x16A7A, size: 0x8, addend: 0x0, symName: __ZNSt3__19allocatorIiEC2B8ue170006Ev, symObjAddr: 0x3744, symBinAddr: 0x100006840, symSize: 0x2C }
  - { offsetInCU: 0x16AA4, offset: 0x16AA4, size: 0x8, addend: 0x0, symName: __ZNSt3__116__non_trivial_ifILb1ENS_9allocatorIiEEEC2B8ue170006Ev, symObjAddr: 0x3770, symBinAddr: 0x10000686C, symSize: 0x14 }
  - { offsetInCU: 0x16ACE, offset: 0x16ACE, size: 0x8, addend: 0x0, symName: __ZNSt3__16vectorIiNS_9allocatorIiEEED2B8ue170006Ev, symObjAddr: 0x3784, symBinAddr: 0x100006880, symSize: 0x3C }
  - { offsetInCU: 0x16AF8, offset: 0x16AF8, size: 0x8, addend: 0x0, symName: __ZNSt3__16vectorIiNS_9allocatorIiEEE16__destroy_vectorC1B8ue170006ERS3_, symObjAddr: 0x37C0, symBinAddr: 0x1000068BC, symSize: 0x34 }
  - { offsetInCU: 0x16B31, offset: 0x16B31, size: 0x8, addend: 0x0, symName: __ZNSt3__16vectorIiNS_9allocatorIiEEE16__destroy_vectorclB8ue170006Ev, symObjAddr: 0x37F4, symBinAddr: 0x1000068F0, symSize: 0x90 }
  - { offsetInCU: 0x16B57, offset: 0x16B57, size: 0x8, addend: 0x0, symName: __ZNSt3__16vectorIiNS_9allocatorIiEEE16__destroy_vectorC2B8ue170006ERS3_, symObjAddr: 0x3884, symBinAddr: 0x100006980, symSize: 0x20 }
  - { offsetInCU: 0x16B90, offset: 0x16B90, size: 0x8, addend: 0x0, symName: __ZNSt3__16vectorIiNS_9allocatorIiEEE7__clearB8ue170006Ev, symObjAddr: 0x38A4, symBinAddr: 0x1000069A0, symSize: 0x28 }
  - { offsetInCU: 0x16BB6, offset: 0x16BB6, size: 0x8, addend: 0x0, symName: __ZNKSt3__16vectorIiNS_9allocatorIiEEE17__annotate_deleteB8ue170006Ev, symObjAddr: 0x38CC, symBinAddr: 0x1000069C8, symSize: 0xB8 }
  - { offsetInCU: 0x16BDC, offset: 0x16BDC, size: 0x8, addend: 0x0, symName: __ZNSt3__116allocator_traitsINS_9allocatorIiEEE10deallocateB8ue170006ERS2_Pim, symObjAddr: 0x3984, symBinAddr: 0x100006A80, symSize: 0x34 }
  - { offsetInCU: 0x16C1E, offset: 0x16C1E, size: 0x8, addend: 0x0, symName: __ZNSt3__16vectorIiNS_9allocatorIiEEE7__allocB8ue170006Ev, symObjAddr: 0x39B8, symBinAddr: 0x100006AB4, symSize: 0x28 }
  - { offsetInCU: 0x16C44, offset: 0x16C44, size: 0x8, addend: 0x0, symName: __ZNKSt3__16vectorIiNS_9allocatorIiEEE8capacityB8ue170006Ev, symObjAddr: 0x39E0, symBinAddr: 0x100006ADC, symSize: 0x40 }
  - { offsetInCU: 0x16C6A, offset: 0x16C6A, size: 0x8, addend: 0x0, symName: __ZNSt3__16vectorIiNS_9allocatorIiEEE22__base_destruct_at_endB8ue170006EPi, symObjAddr: 0x3A20, symBinAddr: 0x100006B1C, symSize: 0xA0 }
  - { offsetInCU: 0x16CAE, offset: 0x16CAE, size: 0x8, addend: 0x0, symName: __ZNSt3__116allocator_traitsINS_9allocatorIiEEE7destroyB8ue170006IivEEvRS2_PT_, symObjAddr: 0x3AC0, symBinAddr: 0x100006BBC, symSize: 0x2C }
  - { offsetInCU: 0x16CEB, offset: 0x16CEB, size: 0x8, addend: 0x0, symName: __ZNSt3__19allocatorIiE7destroyB8ue170006EPi, symObjAddr: 0x3B00, symBinAddr: 0x100006BFC, symSize: 0x14 }
  - { offsetInCU: 0x16D1F, offset: 0x16D1F, size: 0x8, addend: 0x0, symName: __ZNKSt3__16vectorIiNS_9allocatorIiEEE31__annotate_contiguous_containerB8ue170006EPKvS5_S5_S5_, symObjAddr: 0x3B14, symBinAddr: 0x100006C10, symSize: 0x20 }
  - { offsetInCU: 0x16D71, offset: 0x16D71, size: 0x8, addend: 0x0, symName: __ZNKSt3__16vectorIiNS_9allocatorIiEEE4dataB8ue170006Ev, symObjAddr: 0x3B34, symBinAddr: 0x100006C30, symSize: 0x28 }
  - { offsetInCU: 0x16D97, offset: 0x16D97, size: 0x8, addend: 0x0, symName: __ZNSt3__19allocatorIiE10deallocateB8ue170006EPim, symObjAddr: 0x3B5C, symBinAddr: 0x100006C58, symSize: 0x70 }
  - { offsetInCU: 0x16DD9, offset: 0x16DD9, size: 0x8, addend: 0x0, symName: __ZNSt3__117__compressed_pairIPiNS_9allocatorIiEEE6secondB8ue170006Ev, symObjAddr: 0x3C54, symBinAddr: 0x100006D50, symSize: 0x24 }
  - { offsetInCU: 0x16DFF, offset: 0x16DFF, size: 0x8, addend: 0x0, symName: __ZNSt3__122__compressed_pair_elemINS_9allocatorIiEELi1ELb1EE5__getB8ue170006Ev, symObjAddr: 0x3C78, symBinAddr: 0x100006D74, symSize: 0x14 }
  - { offsetInCU: 0x16E25, offset: 0x16E25, size: 0x8, addend: 0x0, symName: __ZNKSt3__16vectorIiNS_9allocatorIiEEE9__end_capB8ue170006Ev, symObjAddr: 0x3C8C, symBinAddr: 0x100006D88, symSize: 0x28 }
  - { offsetInCU: 0x16E4B, offset: 0x16E4B, size: 0x8, addend: 0x0, symName: __ZNKSt3__117__compressed_pairIPiNS_9allocatorIiEEE5firstB8ue170006Ev, symObjAddr: 0x3CB4, symBinAddr: 0x100006DB0, symSize: 0x24 }
  - { offsetInCU: 0x16E71, offset: 0x16E71, size: 0x8, addend: 0x0, symName: __ZNKSt3__122__compressed_pair_elemIPiLi0ELb0EE5__getB8ue170006Ev, symObjAddr: 0x3CD8, symBinAddr: 0x100006DD4, symSize: 0x14 }
  - { offsetInCU: 0x16E97, offset: 0x16E97, size: 0x8, addend: 0x0, symName: __ZNSt3__16vectorINS_4pairIiP4EdgeEENS_9allocatorIS4_EEE11__make_iterB8ue170006EPS4_, symObjAddr: 0x3CEC, symBinAddr: 0x100006DE8, symSize: 0x30 }
  - { offsetInCU: 0x16ECC, offset: 0x16ECC, size: 0x8, addend: 0x0, symName: __ZNSt3__111__wrap_iterIPNS_4pairIiP4EdgeEEEC1B8ue170006ES5_, symObjAddr: 0x3D1C, symBinAddr: 0x100006E18, symSize: 0x34 }
  - { offsetInCU: 0x16F04, offset: 0x16F04, size: 0x8, addend: 0x0, symName: __ZNSt3__111__wrap_iterIPNS_4pairIiP4EdgeEEEC2B8ue170006ES5_, symObjAddr: 0x3D50, symBinAddr: 0x100006E4C, symSize: 0x20 }
  - { offsetInCU: 0x16F3C, offset: 0x16F3C, size: 0x8, addend: 0x0, symName: __ZNKSt3__111__wrap_iterIPNS_4pairIiP4EdgeEEE4baseB8ue170006Ev, symObjAddr: 0x3DB8, symBinAddr: 0x100006EB4, symSize: 0x18 }
  - { offsetInCU: 0x16F62, offset: 0x16F62, size: 0x8, addend: 0x0, symName: __ZNSt3__111__wrap_iterIPNS_4pairIiP4EdgeEEEppB8ue170006Ev, symObjAddr: 0x3DD0, symBinAddr: 0x100006ECC, symSize: 0x20 }
  - { offsetInCU: 0x16F88, offset: 0x16F88, size: 0x8, addend: 0x0, symName: __ZNSt3__16vectorINS_4pairIiiEENS_9allocatorIS2_EEED2B8ue170006Ev, symObjAddr: 0x3DF0, symBinAddr: 0x100006EEC, symSize: 0x3C }
  - { offsetInCU: 0x16FB2, offset: 0x16FB2, size: 0x8, addend: 0x0, symName: __ZNSt3__16vectorINS_4pairIiiEENS_9allocatorIS2_EEE16__destroy_vectorC1B8ue170006ERS5_, symObjAddr: 0x3E2C, symBinAddr: 0x100006F28, symSize: 0x34 }
  - { offsetInCU: 0x16FEB, offset: 0x16FEB, size: 0x8, addend: 0x0, symName: __ZNSt3__16vectorINS_4pairIiiEENS_9allocatorIS2_EEE16__destroy_vectorclB8ue170006Ev, symObjAddr: 0x3E60, symBinAddr: 0x100006F5C, symSize: 0x90 }
  - { offsetInCU: 0x17011, offset: 0x17011, size: 0x8, addend: 0x0, symName: __ZNSt3__16vectorINS_4pairIiiEENS_9allocatorIS2_EEE16__destroy_vectorC2B8ue170006ERS5_, symObjAddr: 0x3EF0, symBinAddr: 0x100006FEC, symSize: 0x20 }
  - { offsetInCU: 0x1704A, offset: 0x1704A, size: 0x8, addend: 0x0, symName: __ZNSt3__16vectorINS_4pairIiiEENS_9allocatorIS2_EEE7__clearB8ue170006Ev, symObjAddr: 0x3F10, symBinAddr: 0x10000700C, symSize: 0x28 }
  - { offsetInCU: 0x17070, offset: 0x17070, size: 0x8, addend: 0x0, symName: __ZNKSt3__16vectorINS_4pairIiiEENS_9allocatorIS2_EEE17__annotate_deleteB8ue170006Ev, symObjAddr: 0x3F38, symBinAddr: 0x100007034, symSize: 0xB8 }
  - { offsetInCU: 0x17096, offset: 0x17096, size: 0x8, addend: 0x0, symName: __ZNSt3__116allocator_traitsINS_9allocatorINS_4pairIiiEEEEE10deallocateB8ue170006ERS4_PS3_m, symObjAddr: 0x3FF0, symBinAddr: 0x1000070EC, symSize: 0x34 }
  - { offsetInCU: 0x170D8, offset: 0x170D8, size: 0x8, addend: 0x0, symName: __ZNSt3__16vectorINS_4pairIiiEENS_9allocatorIS2_EEE7__allocB8ue170006Ev, symObjAddr: 0x4024, symBinAddr: 0x100007120, symSize: 0x28 }
  - { offsetInCU: 0x170FE, offset: 0x170FE, size: 0x8, addend: 0x0, symName: __ZNKSt3__16vectorINS_4pairIiiEENS_9allocatorIS2_EEE8capacityB8ue170006Ev, symObjAddr: 0x404C, symBinAddr: 0x100007148, symSize: 0x40 }
  - { offsetInCU: 0x17124, offset: 0x17124, size: 0x8, addend: 0x0, symName: __ZNSt3__16vectorINS_4pairIiiEENS_9allocatorIS2_EEE22__base_destruct_at_endB8ue170006EPS2_, symObjAddr: 0x408C, symBinAddr: 0x100007188, symSize: 0xA0 }
  - { offsetInCU: 0x17168, offset: 0x17168, size: 0x8, addend: 0x0, symName: __ZNSt3__116allocator_traitsINS_9allocatorINS_4pairIiiEEEEE7destroyB8ue170006IS3_vEEvRS4_PT_, symObjAddr: 0x412C, symBinAddr: 0x100007228, symSize: 0x2C }
  - { offsetInCU: 0x171A5, offset: 0x171A5, size: 0x8, addend: 0x0, symName: __ZNSt3__19allocatorINS_4pairIiiEEE7destroyB8ue170006EPS2_, symObjAddr: 0x416C, symBinAddr: 0x100007268, symSize: 0x14 }
  - { offsetInCU: 0x171D9, offset: 0x171D9, size: 0x8, addend: 0x0, symName: __ZNKSt3__16vectorINS_4pairIiiEENS_9allocatorIS2_EEE31__annotate_contiguous_containerB8ue170006EPKvS7_S7_S7_, symObjAddr: 0x4180, symBinAddr: 0x10000727C, symSize: 0x20 }
  - { offsetInCU: 0x1722B, offset: 0x1722B, size: 0x8, addend: 0x0, symName: __ZNKSt3__16vectorINS_4pairIiiEENS_9allocatorIS2_EEE4dataB8ue170006Ev, symObjAddr: 0x41A0, symBinAddr: 0x10000729C, symSize: 0x28 }
  - { offsetInCU: 0x17251, offset: 0x17251, size: 0x8, addend: 0x0, symName: __ZNSt3__19allocatorINS_4pairIiiEEE10deallocateB8ue170006EPS2_m, symObjAddr: 0x41C8, symBinAddr: 0x1000072C4, symSize: 0x70 }
  - { offsetInCU: 0x17293, offset: 0x17293, size: 0x8, addend: 0x0, symName: __ZNSt3__117__compressed_pairIPNS_4pairIiiEENS_9allocatorIS2_EEE6secondB8ue170006Ev, symObjAddr: 0x4238, symBinAddr: 0x100007334, symSize: 0x24 }
  - { offsetInCU: 0x172B9, offset: 0x172B9, size: 0x8, addend: 0x0, symName: __ZNSt3__122__compressed_pair_elemINS_9allocatorINS_4pairIiiEEEELi1ELb1EE5__getB8ue170006Ev, symObjAddr: 0x425C, symBinAddr: 0x100007358, symSize: 0x14 }
  - { offsetInCU: 0x172DF, offset: 0x172DF, size: 0x8, addend: 0x0, symName: __ZNKSt3__16vectorINS_4pairIiiEENS_9allocatorIS2_EEE9__end_capB8ue170006Ev, symObjAddr: 0x4270, symBinAddr: 0x10000736C, symSize: 0x28 }
  - { offsetInCU: 0x17305, offset: 0x17305, size: 0x8, addend: 0x0, symName: __ZNKSt3__117__compressed_pairIPNS_4pairIiiEENS_9allocatorIS2_EEE5firstB8ue170006Ev, symObjAddr: 0x4298, symBinAddr: 0x100007394, symSize: 0x24 }
  - { offsetInCU: 0x1732B, offset: 0x1732B, size: 0x8, addend: 0x0, symName: __ZNKSt3__122__compressed_pair_elemIPNS_4pairIiiEELi0ELb0EE5__getB8ue170006Ev, symObjAddr: 0x42BC, symBinAddr: 0x1000073B8, symSize: 0x14 }
  - { offsetInCU: 0x17351, offset: 0x17351, size: 0x8, addend: 0x0, symName: __ZNSt3__16vectorIP6VertexNS_9allocatorIS2_EEED2B8ue170006Ev, symObjAddr: 0x42D0, symBinAddr: 0x1000073CC, symSize: 0x3C }
  - { offsetInCU: 0x1737B, offset: 0x1737B, size: 0x8, addend: 0x0, symName: __ZNSt3__16vectorIP6VertexNS_9allocatorIS2_EEE16__destroy_vectorC1B8ue170006ERS5_, symObjAddr: 0x430C, symBinAddr: 0x100007408, symSize: 0x34 }
  - { offsetInCU: 0x173B4, offset: 0x173B4, size: 0x8, addend: 0x0, symName: __ZNSt3__16vectorIP6VertexNS_9allocatorIS2_EEE16__destroy_vectorclB8ue170006Ev, symObjAddr: 0x4340, symBinAddr: 0x10000743C, symSize: 0x90 }
  - { offsetInCU: 0x173DA, offset: 0x173DA, size: 0x8, addend: 0x0, symName: __ZNSt3__16vectorIP6VertexNS_9allocatorIS2_EEE16__destroy_vectorC2B8ue170006ERS5_, symObjAddr: 0x43D0, symBinAddr: 0x1000074CC, symSize: 0x20 }
  - { offsetInCU: 0x17413, offset: 0x17413, size: 0x8, addend: 0x0, symName: __ZNSt3__16vectorIP6VertexNS_9allocatorIS2_EEE7__clearB8ue170006Ev, symObjAddr: 0x43F0, symBinAddr: 0x1000074EC, symSize: 0x28 }
  - { offsetInCU: 0x17439, offset: 0x17439, size: 0x8, addend: 0x0, symName: __ZNKSt3__16vectorIP6VertexNS_9allocatorIS2_EEE17__annotate_deleteB8ue170006Ev, symObjAddr: 0x4418, symBinAddr: 0x100007514, symSize: 0xB8 }
  - { offsetInCU: 0x1745F, offset: 0x1745F, size: 0x8, addend: 0x0, symName: __ZNSt3__116allocator_traitsINS_9allocatorIP6VertexEEE10deallocateB8ue170006ERS4_PS3_m, symObjAddr: 0x44D0, symBinAddr: 0x1000075CC, symSize: 0x34 }
  - { offsetInCU: 0x174A1, offset: 0x174A1, size: 0x8, addend: 0x0, symName: __ZNSt3__16vectorIP6VertexNS_9allocatorIS2_EEE7__allocB8ue170006Ev, symObjAddr: 0x4504, symBinAddr: 0x100007600, symSize: 0x28 }
  - { offsetInCU: 0x174C7, offset: 0x174C7, size: 0x8, addend: 0x0, symName: __ZNKSt3__16vectorIP6VertexNS_9allocatorIS2_EEE8capacityB8ue170006Ev, symObjAddr: 0x452C, symBinAddr: 0x100007628, symSize: 0x40 }
  - { offsetInCU: 0x174ED, offset: 0x174ED, size: 0x8, addend: 0x0, symName: __ZNSt3__16vectorIP6VertexNS_9allocatorIS2_EEE22__base_destruct_at_endB8ue170006EPS2_, symObjAddr: 0x456C, symBinAddr: 0x100007668, symSize: 0xA0 }
  - { offsetInCU: 0x17531, offset: 0x17531, size: 0x8, addend: 0x0, symName: __ZNSt3__116allocator_traitsINS_9allocatorIP6VertexEEE7destroyB8ue170006IS3_vEEvRS4_PT_, symObjAddr: 0x460C, symBinAddr: 0x100007708, symSize: 0x2C }
  - { offsetInCU: 0x1756E, offset: 0x1756E, size: 0x8, addend: 0x0, symName: __ZNSt3__19allocatorIP6VertexE7destroyB8ue170006EPS2_, symObjAddr: 0x464C, symBinAddr: 0x100007748, symSize: 0x14 }
  - { offsetInCU: 0x175A2, offset: 0x175A2, size: 0x8, addend: 0x0, symName: __ZNKSt3__16vectorIP6VertexNS_9allocatorIS2_EEE31__annotate_contiguous_containerB8ue170006EPKvS7_S7_S7_, symObjAddr: 0x4660, symBinAddr: 0x10000775C, symSize: 0x20 }
  - { offsetInCU: 0x175F4, offset: 0x175F4, size: 0x8, addend: 0x0, symName: __ZNKSt3__16vectorIP6VertexNS_9allocatorIS2_EEE4dataB8ue170006Ev, symObjAddr: 0x4680, symBinAddr: 0x10000777C, symSize: 0x28 }
  - { offsetInCU: 0x1761A, offset: 0x1761A, size: 0x8, addend: 0x0, symName: __ZNKSt3__16vectorIP6VertexNS_9allocatorIS2_EEE4sizeB8ue170006Ev, symObjAddr: 0x46A8, symBinAddr: 0x1000077A4, symSize: 0x28 }
  - { offsetInCU: 0x17640, offset: 0x17640, size: 0x8, addend: 0x0, symName: __ZNSt3__19allocatorIP6VertexE10deallocateB8ue170006EPS2_m, symObjAddr: 0x46D0, symBinAddr: 0x1000077CC, symSize: 0x70 }
  - { offsetInCU: 0x17682, offset: 0x17682, size: 0x8, addend: 0x0, symName: __ZNSt3__117__compressed_pairIPP6VertexNS_9allocatorIS2_EEE6secondB8ue170006Ev, symObjAddr: 0x4740, symBinAddr: 0x10000783C, symSize: 0x24 }
  - { offsetInCU: 0x176A8, offset: 0x176A8, size: 0x8, addend: 0x0, symName: __ZNSt3__122__compressed_pair_elemINS_9allocatorIP6VertexEELi1ELb1EE5__getB8ue170006Ev, symObjAddr: 0x4764, symBinAddr: 0x100007860, symSize: 0x14 }
  - { offsetInCU: 0x176CE, offset: 0x176CE, size: 0x8, addend: 0x0, symName: __ZNKSt3__16vectorIP6VertexNS_9allocatorIS2_EEE9__end_capB8ue170006Ev, symObjAddr: 0x4778, symBinAddr: 0x100007874, symSize: 0x28 }
  - { offsetInCU: 0x176F4, offset: 0x176F4, size: 0x8, addend: 0x0, symName: __ZNKSt3__117__compressed_pairIPP6VertexNS_9allocatorIS2_EEE5firstB8ue170006Ev, symObjAddr: 0x47A0, symBinAddr: 0x10000789C, symSize: 0x24 }
  - { offsetInCU: 0x1771A, offset: 0x1771A, size: 0x8, addend: 0x0, symName: __ZNKSt3__122__compressed_pair_elemIPP6VertexLi0ELb0EE5__getB8ue170006Ev, symObjAddr: 0x47C4, symBinAddr: 0x1000078C0, symSize: 0x14 }
  - { offsetInCU: 0x17740, offset: 0x17740, size: 0x8, addend: 0x0, symName: __ZNSt3__16vectorIP5OrderNS_9allocatorIS2_EEED2B8ue170006Ev, symObjAddr: 0x47D8, symBinAddr: 0x1000078D4, symSize: 0x3C }
  - { offsetInCU: 0x1776A, offset: 0x1776A, size: 0x8, addend: 0x0, symName: __ZNSt3__16vectorIP5OrderNS_9allocatorIS2_EEE16__destroy_vectorC1B8ue170006ERS5_, symObjAddr: 0x4814, symBinAddr: 0x100007910, symSize: 0x34 }
  - { offsetInCU: 0x177A3, offset: 0x177A3, size: 0x8, addend: 0x0, symName: __ZNSt3__16vectorIP5OrderNS_9allocatorIS2_EEE16__destroy_vectorclB8ue170006Ev, symObjAddr: 0x4848, symBinAddr: 0x100007944, symSize: 0x90 }
  - { offsetInCU: 0x177C9, offset: 0x177C9, size: 0x8, addend: 0x0, symName: __ZNSt3__16vectorIP5OrderNS_9allocatorIS2_EEE16__destroy_vectorC2B8ue170006ERS5_, symObjAddr: 0x48D8, symBinAddr: 0x1000079D4, symSize: 0x20 }
  - { offsetInCU: 0x17802, offset: 0x17802, size: 0x8, addend: 0x0, symName: __ZNSt3__16vectorIP5OrderNS_9allocatorIS2_EEE7__clearB8ue170006Ev, symObjAddr: 0x48F8, symBinAddr: 0x1000079F4, symSize: 0x28 }
  - { offsetInCU: 0x17828, offset: 0x17828, size: 0x8, addend: 0x0, symName: __ZNKSt3__16vectorIP5OrderNS_9allocatorIS2_EEE17__annotate_deleteB8ue170006Ev, symObjAddr: 0x4920, symBinAddr: 0x100007A1C, symSize: 0xB8 }
  - { offsetInCU: 0x1784E, offset: 0x1784E, size: 0x8, addend: 0x0, symName: __ZNSt3__116allocator_traitsINS_9allocatorIP5OrderEEE10deallocateB8ue170006ERS4_PS3_m, symObjAddr: 0x49D8, symBinAddr: 0x100007AD4, symSize: 0x34 }
  - { offsetInCU: 0x17890, offset: 0x17890, size: 0x8, addend: 0x0, symName: __ZNSt3__16vectorIP5OrderNS_9allocatorIS2_EEE7__allocB8ue170006Ev, symObjAddr: 0x4A0C, symBinAddr: 0x100007B08, symSize: 0x28 }
  - { offsetInCU: 0x178B6, offset: 0x178B6, size: 0x8, addend: 0x0, symName: __ZNKSt3__16vectorIP5OrderNS_9allocatorIS2_EEE8capacityB8ue170006Ev, symObjAddr: 0x4A34, symBinAddr: 0x100007B30, symSize: 0x40 }
  - { offsetInCU: 0x178DC, offset: 0x178DC, size: 0x8, addend: 0x0, symName: __ZNSt3__16vectorIP5OrderNS_9allocatorIS2_EEE22__base_destruct_at_endB8ue170006EPS2_, symObjAddr: 0x4A74, symBinAddr: 0x100007B70, symSize: 0xA0 }
  - { offsetInCU: 0x17920, offset: 0x17920, size: 0x8, addend: 0x0, symName: __ZNSt3__116allocator_traitsINS_9allocatorIP5OrderEEE7destroyB8ue170006IS3_vEEvRS4_PT_, symObjAddr: 0x4B14, symBinAddr: 0x100007C10, symSize: 0x2C }
  - { offsetInCU: 0x1795D, offset: 0x1795D, size: 0x8, addend: 0x0, symName: __ZNSt3__19allocatorIP5OrderE7destroyB8ue170006EPS2_, symObjAddr: 0x4B54, symBinAddr: 0x100007C50, symSize: 0x14 }
  - { offsetInCU: 0x17991, offset: 0x17991, size: 0x8, addend: 0x0, symName: __ZNKSt3__16vectorIP5OrderNS_9allocatorIS2_EEE31__annotate_contiguous_containerB8ue170006EPKvS7_S7_S7_, symObjAddr: 0x4B68, symBinAddr: 0x100007C64, symSize: 0x20 }
  - { offsetInCU: 0x179E3, offset: 0x179E3, size: 0x8, addend: 0x0, symName: __ZNKSt3__16vectorIP5OrderNS_9allocatorIS2_EEE4dataB8ue170006Ev, symObjAddr: 0x4B88, symBinAddr: 0x100007C84, symSize: 0x28 }
  - { offsetInCU: 0x17A09, offset: 0x17A09, size: 0x8, addend: 0x0, symName: __ZNKSt3__16vectorIP5OrderNS_9allocatorIS2_EEE4sizeB8ue170006Ev, symObjAddr: 0x4BB0, symBinAddr: 0x100007CAC, symSize: 0x28 }
  - { offsetInCU: 0x17A2F, offset: 0x17A2F, size: 0x8, addend: 0x0, symName: __ZNSt3__19allocatorIP5OrderE10deallocateB8ue170006EPS2_m, symObjAddr: 0x4BD8, symBinAddr: 0x100007CD4, symSize: 0x70 }
  - { offsetInCU: 0x17A71, offset: 0x17A71, size: 0x8, addend: 0x0, symName: __ZNSt3__117__compressed_pairIPP5OrderNS_9allocatorIS2_EEE6secondB8ue170006Ev, symObjAddr: 0x4C48, symBinAddr: 0x100007D44, symSize: 0x24 }
  - { offsetInCU: 0x17A97, offset: 0x17A97, size: 0x8, addend: 0x0, symName: __ZNSt3__122__compressed_pair_elemINS_9allocatorIP5OrderEELi1ELb1EE5__getB8ue170006Ev, symObjAddr: 0x4C6C, symBinAddr: 0x100007D68, symSize: 0x14 }
  - { offsetInCU: 0x17ABD, offset: 0x17ABD, size: 0x8, addend: 0x0, symName: __ZNKSt3__16vectorIP5OrderNS_9allocatorIS2_EEE9__end_capB8ue170006Ev, symObjAddr: 0x4C80, symBinAddr: 0x100007D7C, symSize: 0x28 }
  - { offsetInCU: 0x17AE3, offset: 0x17AE3, size: 0x8, addend: 0x0, symName: __ZNKSt3__117__compressed_pairIPP5OrderNS_9allocatorIS2_EEE5firstB8ue170006Ev, symObjAddr: 0x4CA8, symBinAddr: 0x100007DA4, symSize: 0x24 }
  - { offsetInCU: 0x17B09, offset: 0x17B09, size: 0x8, addend: 0x0, symName: __ZNKSt3__122__compressed_pair_elemIPP5OrderLi0ELb0EE5__getB8ue170006Ev, symObjAddr: 0x4CCC, symBinAddr: 0x100007DC8, symSize: 0x14 }
  - { offsetInCU: 0x17B2F, offset: 0x17B2F, size: 0x8, addend: 0x0, symName: __ZNSt3__112basic_stringIcNS_11char_traitsIcEENS_9allocatorIcEEEC2B8ue170006Ev, symObjAddr: 0x4CE0, symBinAddr: 0x100007DDC, symSize: 0x3C }
  - { offsetInCU: 0x17B59, offset: 0x17B59, size: 0x8, addend: 0x0, symName: __ZNSt3__112basic_stringIcNS_11char_traitsIcEENS_9allocatorIcEEE14__default_initB8ue170006Ev, symObjAddr: 0x4D1C, symBinAddr: 0x100007E18, symSize: 0xB0 }
  - { offsetInCU: 0x17BAB, offset: 0x17BAB, size: 0x8, addend: 0x0, symName: __ZNSt3__117__compressed_pairINS_12basic_stringIcNS_11char_traitsIcEENS_9allocatorIcEEE5__repES5_E5firstB8ue170006Ev, symObjAddr: 0x4DCC, symBinAddr: 0x100007EC8, symSize: 0x24 }
  - { offsetInCU: 0x17BD1, offset: 0x17BD1, size: 0x8, addend: 0x0, symName: __ZNSt3__112basic_stringIcNS_11char_traitsIcEENS_9allocatorIcEEE11__recommendB8ue170006Em, symObjAddr: 0x4DF0, symBinAddr: 0x100007EEC, symSize: 0x9C }
  - { offsetInCU: 0x17C04, offset: 0x17C04, size: 0x8, addend: 0x0, symName: __ZNSt3__116allocator_traitsINS_9allocatorIcEEE8allocateB8ue170006ERS2_m, symObjAddr: 0x4E8C, symBinAddr: 0x100007F88, symSize: 0x2C }
  - { offsetInCU: 0x17C37, offset: 0x17C37, size: 0x8, addend: 0x0, symName: __ZNSt3__112basic_stringIcNS_11char_traitsIcEENS_9allocatorIcEEE7__allocB8ue170006Ev, symObjAddr: 0x4EB8, symBinAddr: 0x100007FB4, symSize: 0x24 }
  - { offsetInCU: 0x17C5D, offset: 0x17C5D, size: 0x8, addend: 0x0, symName: __ZNSt3__112basic_stringIcNS_11char_traitsIcEENS_9allocatorIcEEE16__begin_lifetimeB8ue170006EPcm, symObjAddr: 0x4EDC, symBinAddr: 0x100007FD8, symSize: 0x14 }
  - { offsetInCU: 0x17C90, offset: 0x17C90, size: 0x8, addend: 0x0, symName: __ZNSt3__112basic_stringIcNS_11char_traitsIcEENS_9allocatorIcEEE18__set_long_pointerB8ue170006EPc, symObjAddr: 0x4EF0, symBinAddr: 0x100007FEC, symSize: 0x38 }
  - { offsetInCU: 0x17CC5, offset: 0x17CC5, size: 0x8, addend: 0x0, symName: __ZNSt3__112basic_stringIcNS_11char_traitsIcEENS_9allocatorIcEEE14__set_long_capB8ue170006Em, symObjAddr: 0x4F28, symBinAddr: 0x100008024, symSize: 0x70 }
  - { offsetInCU: 0x17CFA, offset: 0x17CFA, size: 0x8, addend: 0x0, symName: __ZNSt3__112basic_stringIcNS_11char_traitsIcEENS_9allocatorIcEEE15__set_long_sizeB8ue170006Em, symObjAddr: 0x4F98, symBinAddr: 0x100008094, symSize: 0x38 }
  - { offsetInCU: 0x17D2F, offset: 0x17D2F, size: 0x8, addend: 0x0, symName: __ZNSt3__122__compressed_pair_elemINS_12basic_stringIcNS_11char_traitsIcEENS_9allocatorIcEEE5__repELi0ELb0EE5__getB8ue170006Ev, symObjAddr: 0x4FD0, symBinAddr: 0x1000080CC, symSize: 0x14 }
  - { offsetInCU: 0x17D55, offset: 0x17D55, size: 0x8, addend: 0x0, symName: __ZNSt3__112basic_stringIcNS_11char_traitsIcEENS_9allocatorIcEEE10__align_itB8ue170006ILm16EEEmm, symObjAddr: 0x4FE4, symBinAddr: 0x1000080E0, symSize: 0x1C }
  - { offsetInCU: 0x17D83, offset: 0x17D83, size: 0x8, addend: 0x0, symName: __ZNSt3__19allocatorIcE8allocateB8ue170006Em, symObjAddr: 0x5000, symBinAddr: 0x1000080FC, symSize: 0x84 }
  - { offsetInCU: 0x17DC1, offset: 0x17DC1, size: 0x8, addend: 0x0, symName: __ZNSt3__116allocator_traitsINS_9allocatorIcEEE8max_sizeB8ue170006IS2_vEEmRKS2_, symObjAddr: 0x5084, symBinAddr: 0x100008180, symSize: 0x24 }
  - { offsetInCU: 0x17DEF, offset: 0x17DEF, size: 0x8, addend: 0x0, symName: __ZNKSt3__19allocatorIcE8max_sizeB8ue170006Ev, symObjAddr: 0x5104, symBinAddr: 0x100008200, symSize: 0x14 }
  - { offsetInCU: 0x17E15, offset: 0x17E15, size: 0x8, addend: 0x0, symName: __ZNSt3__117__compressed_pairINS_12basic_stringIcNS_11char_traitsIcEENS_9allocatorIcEEE5__repES5_E6secondB8ue170006Ev, symObjAddr: 0x513C, symBinAddr: 0x100008238, symSize: 0x24 }
  - { offsetInCU: 0x17E3B, offset: 0x17E3B, size: 0x8, addend: 0x0, symName: __ZNSt3__122__compressed_pair_elemINS_9allocatorIcEELi1ELb1EE5__getB8ue170006Ev, symObjAddr: 0x5160, symBinAddr: 0x10000825C, symSize: 0x14 }
  - { offsetInCU: 0x17F06, offset: 0x17F06, size: 0x8, addend: 0x0, symName: __ZNKSt3__113basic_istreamIcNS_11char_traitsIcEEE6sentrycvbB8ue170006Ev, symObjAddr: 0x5174, symBinAddr: 0x100008270, symSize: 0x1C }
  - { offsetInCU: 0x17F2C, offset: 0x17F2C, size: 0x8, addend: 0x0, symName: __ZNSt3__112basic_stringIcNS_11char_traitsIcEENS_9allocatorIcEEE5clearB8ue170006Ev, symObjAddr: 0x5190, symBinAddr: 0x10000828C, symSize: 0x78 }
  - { offsetInCU: 0x17F54, offset: 0x17F54, size: 0x8, addend: 0x0, symName: __ZNKSt3__18ios_base5widthB8ue170006Ev, symObjAddr: 0x5208, symBinAddr: 0x100008304, symSize: 0x18 }
  - { offsetInCU: 0x17F7C, offset: 0x17F7C, size: 0x8, addend: 0x0, symName: __ZNKSt3__112basic_stringIcNS_11char_traitsIcEENS_9allocatorIcEEE8max_sizeB8ue170006Ev, symObjAddr: 0x5220, symBinAddr: 0x10000831C, symSize: 0xAC }
  - { offsetInCU: 0x17FCE, offset: 0x17FCE, size: 0x8, addend: 0x0, symName: __ZNSt3__114numeric_limitsIlE3maxB8ue170006Ev, symObjAddr: 0x52CC, symBinAddr: 0x1000083C8, symSize: 0x14 }
  - { offsetInCU: 0x17FE2, offset: 0x17FE2, size: 0x8, addend: 0x0, symName: __ZNKSt3__19basic_iosIcNS_11char_traitsIcEEE5rdbufB8ue170006Ev, symObjAddr: 0x530C, symBinAddr: 0x100008408, symSize: 0x24 }
  - { offsetInCU: 0x1800A, offset: 0x1800A, size: 0x8, addend: 0x0, symName: __ZNSt3__115basic_streambufIcNS_11char_traitsIcEEE5sgetcB8ue170006Ev, symObjAddr: 0x5330, symBinAddr: 0x10000842C, symSize: 0x70 }
  - { offsetInCU: 0x18030, offset: 0x18030, size: 0x8, addend: 0x0, symName: __ZNSt3__111char_traitsIcE11eq_int_typeB8ue170006Eii, symObjAddr: 0x53A0, symBinAddr: 0x10000849C, symSize: 0x28 }
  - { offsetInCU: 0x18063, offset: 0x18063, size: 0x8, addend: 0x0, symName: __ZNSt3__111char_traitsIcE3eofB8ue170006Ev, symObjAddr: 0x53C8, symBinAddr: 0x1000084C4, symSize: 0x8 }
  - { offsetInCU: 0x18077, offset: 0x18077, size: 0x8, addend: 0x0, symName: __ZNSt3__111char_traitsIcE12to_char_typeB8ue170006Ei, symObjAddr: 0x53D0, symBinAddr: 0x1000084CC, symSize: 0x18 }
  - { offsetInCU: 0x180C2, offset: 0x180C2, size: 0x8, addend: 0x0, symName: __ZNKSt3__15ctypeIcE2isB8ue170006Ejc, symObjAddr: 0x53E8, symBinAddr: 0x1000084E4, symSize: 0x7C }
  - { offsetInCU: 0x18106, offset: 0x18106, size: 0x8, addend: 0x0, symName: __ZNSt3__115basic_streambufIcNS_11char_traitsIcEEE6sbumpcB8ue170006Ev, symObjAddr: 0x5464, symBinAddr: 0x100008560, symSize: 0x78 }
  - { offsetInCU: 0x1812C, offset: 0x1812C, size: 0x8, addend: 0x0, symName: __ZNSt3__18ios_base5widthB8ue170006El, symObjAddr: 0x54DC, symBinAddr: 0x1000085D8, symSize: 0x2C }
  - { offsetInCU: 0x18172, offset: 0x18172, size: 0x8, addend: 0x0, symName: __ZNSt3__18ios_base18__setstate_nothrowB8ue170006Ej, symObjAddr: 0x5508, symBinAddr: 0x100008604, symSize: 0x64 }
  - { offsetInCU: 0x181A7, offset: 0x181A7, size: 0x8, addend: 0x0, symName: __ZNKSt3__19basic_iosIcNS_11char_traitsIcEEE10exceptionsB8ue170006Ev, symObjAddr: 0x556C, symBinAddr: 0x100008668, symSize: 0x24 }
  - { offsetInCU: 0x181CD, offset: 0x181CD, size: 0x8, addend: 0x0, symName: __ZNSt3__19basic_iosIcNS_11char_traitsIcEEE8setstateB8ue170006Ej, symObjAddr: 0x5590, symBinAddr: 0x10000868C, symSize: 0x2C }
  - { offsetInCU: 0x18202, offset: 0x18202, size: 0x8, addend: 0x0, symName: __ZNKSt3__112basic_stringIcNS_11char_traitsIcEENS_9allocatorIcEEE9__is_longB8ue170006Ev, symObjAddr: 0x55BC, symBinAddr: 0x1000086B8, symSize: 0x74 }
  - { offsetInCU: 0x18228, offset: 0x18228, size: 0x8, addend: 0x0, symName: __ZNSt3__111char_traitsIcE6assignB8ue170006ERcRKc, symObjAddr: 0x5630, symBinAddr: 0x10000872C, symSize: 0x24 }
  - { offsetInCU: 0x18259, offset: 0x18259, size: 0x8, addend: 0x0, symName: __ZNSt3__112basic_stringIcNS_11char_traitsIcEENS_9allocatorIcEEE18__get_long_pointerB8ue170006Ev, symObjAddr: 0x5654, symBinAddr: 0x100008750, symSize: 0x28 }
  - { offsetInCU: 0x1827F, offset: 0x1827F, size: 0x8, addend: 0x0, symName: __ZNSt3__112basic_stringIcNS_11char_traitsIcEENS_9allocatorIcEEE19__get_short_pointerB8ue170006Ev, symObjAddr: 0x567C, symBinAddr: 0x100008778, symSize: 0x28 }
  - { offsetInCU: 0x182A5, offset: 0x182A5, size: 0x8, addend: 0x0, symName: __ZNSt3__112basic_stringIcNS_11char_traitsIcEENS_9allocatorIcEEE16__set_short_sizeB8ue170006Em, symObjAddr: 0x56A4, symBinAddr: 0x1000087A0, symSize: 0x78 }
  - { offsetInCU: 0x182DA, offset: 0x182DA, size: 0x8, addend: 0x0, symName: __ZNKSt3__117__compressed_pairINS_12basic_stringIcNS_11char_traitsIcEENS_9allocatorIcEEE5__repES5_E5firstB8ue170006Ev, symObjAddr: 0x571C, symBinAddr: 0x100008818, symSize: 0x24 }
  - { offsetInCU: 0x18300, offset: 0x18300, size: 0x8, addend: 0x0, symName: __ZNKSt3__122__compressed_pair_elemINS_12basic_stringIcNS_11char_traitsIcEENS_9allocatorIcEEE5__repELi0ELb0EE5__getB8ue170006Ev, symObjAddr: 0x5740, symBinAddr: 0x10000883C, symSize: 0x14 }
  - { offsetInCU: 0x18326, offset: 0x18326, size: 0x8, addend: 0x0, symName: __ZNSt3__114pointer_traitsIPcE10pointer_toB8ue170006ERc, symObjAddr: 0x5754, symBinAddr: 0x100008850, symSize: 0x14 }
  - { offsetInCU: 0x18349, offset: 0x18349, size: 0x8, addend: 0x0, symName: __ZNKSt3__112basic_stringIcNS_11char_traitsIcEENS_9allocatorIcEEE7__allocB8ue170006Ev, symObjAddr: 0x5768, symBinAddr: 0x100008864, symSize: 0x24 }
  - { offsetInCU: 0x1836F, offset: 0x1836F, size: 0x8, addend: 0x0, symName: __ZNSt3__114numeric_limitsImE3maxB8ue170006Ev, symObjAddr: 0x578C, symBinAddr: 0x100008888, symSize: 0x14 }
  - { offsetInCU: 0x18383, offset: 0x18383, size: 0x8, addend: 0x0, symName: __ZNKSt3__117__compressed_pairINS_12basic_stringIcNS_11char_traitsIcEENS_9allocatorIcEEE5__repES5_E6secondB8ue170006Ev, symObjAddr: 0x57A0, symBinAddr: 0x10000889C, symSize: 0x24 }
  - { offsetInCU: 0x183A9, offset: 0x183A9, size: 0x8, addend: 0x0, symName: __ZNKSt3__122__compressed_pair_elemINS_9allocatorIcEELi1ELb1EE5__getB8ue170006Ev, symObjAddr: 0x57C4, symBinAddr: 0x1000088C0, symSize: 0x14 }
  - { offsetInCU: 0x183CF, offset: 0x183CF, size: 0x8, addend: 0x0, symName: __ZNSt3__123__libcpp_numeric_limitsImLb1EE3maxB8ue170006Ev, symObjAddr: 0x57D8, symBinAddr: 0x1000088D4, symSize: 0x8 }
  - { offsetInCU: 0x183E3, offset: 0x183E3, size: 0x8, addend: 0x0, symName: __ZNSt3__123__libcpp_numeric_limitsIlLb1EE3maxB8ue170006Ev, symObjAddr: 0x57E0, symBinAddr: 0x1000088DC, symSize: 0x8 }
  - { offsetInCU: 0x183F7, offset: 0x183F7, size: 0x8, addend: 0x0, symName: __ZNKSt3__18ios_base5rdbufB8ue170006Ev, symObjAddr: 0x57E8, symBinAddr: 0x1000088E4, symSize: 0x18 }
  - { offsetInCU: 0x1841D, offset: 0x1841D, size: 0x8, addend: 0x0, symName: __ZNSt3__111char_traitsIcE11to_int_typeB8ue170006Ec, symObjAddr: 0x5800, symBinAddr: 0x1000088FC, symSize: 0x14 }
  - { offsetInCU: 0x18440, offset: 0x18440, size: 0x8, addend: 0x0, symName: __Z7isasciii, symObjAddr: 0x5814, symBinAddr: 0x100008910, symSize: 0x24 }
  - { offsetInCU: 0x1846D, offset: 0x1846D, size: 0x8, addend: 0x0, symName: __ZNKSt3__18ios_base10exceptionsB8ue170006Ev, symObjAddr: 0x5838, symBinAddr: 0x100008934, symSize: 0x18 }
  - { offsetInCU: 0x18495, offset: 0x18495, size: 0x8, addend: 0x0, symName: __ZNSt3__18ios_base8setstateB8ue170006Ej, symObjAddr: 0x5850, symBinAddr: 0x10000894C, symSize: 0x34 }
  - { offsetInCU: 0x184CC, offset: 0x184CC, size: 0x8, addend: 0x0, symName: __ZNKSt3__112basic_stringIcNS_11char_traitsIcEENS_9allocatorIcEEE4sizeB8ue170006Ev, symObjAddr: 0x5884, symBinAddr: 0x100008980, symSize: 0x54 }
  - { offsetInCU: 0x184F2, offset: 0x184F2, size: 0x8, addend: 0x0, symName: __ZNKSt3__112basic_stringIcNS_11char_traitsIcEENS_9allocatorIcEEE4dataB8ue170006Ev, symObjAddr: 0x58D8, symBinAddr: 0x1000089D4, symSize: 0x28 }
  - { offsetInCU: 0x18518, offset: 0x18518, size: 0x8, addend: 0x0, symName: __ZNSt3__111char_traitsIcE7compareB8ue170006EPKcS3_m, symObjAddr: 0x5900, symBinAddr: 0x1000089FC, symSize: 0x64 }
  - { offsetInCU: 0x18557, offset: 0x18557, size: 0x8, addend: 0x0, symName: __ZNKSt3__112basic_stringIcNS_11char_traitsIcEENS_9allocatorIcEEE15__get_long_sizeB8ue170006Ev, symObjAddr: 0x5964, symBinAddr: 0x100008A60, symSize: 0x28 }
  - { offsetInCU: 0x1857D, offset: 0x1857D, size: 0x8, addend: 0x0, symName: __ZNKSt3__112basic_stringIcNS_11char_traitsIcEENS_9allocatorIcEEE16__get_short_sizeB8ue170006Ev, symObjAddr: 0x598C, symBinAddr: 0x100008A88, symSize: 0x34 }
  - { offsetInCU: 0x185A3, offset: 0x185A3, size: 0x8, addend: 0x0, symName: __ZNKSt3__112basic_stringIcNS_11char_traitsIcEENS_9allocatorIcEEE13__get_pointerB8ue170006Ev, symObjAddr: 0x59D4, symBinAddr: 0x100008AD0, symSize: 0x54 }
  - { offsetInCU: 0x185C9, offset: 0x185C9, size: 0x8, addend: 0x0, symName: __ZNKSt3__112basic_stringIcNS_11char_traitsIcEENS_9allocatorIcEEE18__get_long_pointerB8ue170006Ev, symObjAddr: 0x5A28, symBinAddr: 0x100008B24, symSize: 0x28 }
  - { offsetInCU: 0x185EF, offset: 0x185EF, size: 0x8, addend: 0x0, symName: __ZNKSt3__112basic_stringIcNS_11char_traitsIcEENS_9allocatorIcEEE19__get_short_pointerB8ue170006Ev, symObjAddr: 0x5A50, symBinAddr: 0x100008B4C, symSize: 0x28 }
  - { offsetInCU: 0x18615, offset: 0x18615, size: 0x8, addend: 0x0, symName: __ZNSt3__114pointer_traitsIPKcE10pointer_toB8ue170006ERS1_, symObjAddr: 0x5A78, symBinAddr: 0x100008B74, symSize: 0x14 }
  - { offsetInCU: 0x18638, offset: 0x18638, size: 0x8, addend: 0x0, symName: __ZNSt3__16vectorINS_4pairIiiEENS_9allocatorIS2_EEEC2B8ue170006Ev, symObjAddr: 0x5A8C, symBinAddr: 0x100008B88, symSize: 0x44 }
  - { offsetInCU: 0x18662, offset: 0x18662, size: 0x8, addend: 0x0, symName: __ZNSt3__117__compressed_pairIPNS_4pairIiiEENS_9allocatorIS2_EEEC1B8ue170006IDnNS_18__default_init_tagEEEOT_OT0_, symObjAddr: 0x5AD0, symBinAddr: 0x100008BCC, symSize: 0x3C }
  - { offsetInCU: 0x186BA, offset: 0x186BA, size: 0x8, addend: 0x0, symName: __ZNSt3__117__compressed_pairIPNS_4pairIiiEENS_9allocatorIS2_EEEC2B8ue170006IDnNS_18__default_init_tagEEEOT_OT0_, symObjAddr: 0x5B0C, symBinAddr: 0x100008C08, symSize: 0x40 }
  - { offsetInCU: 0x18712, offset: 0x18712, size: 0x8, addend: 0x0, symName: __ZNSt3__122__compressed_pair_elemIPNS_4pairIiiEELi0ELb0EEC2B8ue170006IDnvEEOT_, symObjAddr: 0x5B4C, symBinAddr: 0x100008C48, symSize: 0x1C }
  - { offsetInCU: 0x18754, offset: 0x18754, size: 0x8, addend: 0x0, symName: __ZNSt3__122__compressed_pair_elemINS_9allocatorINS_4pairIiiEEEELi1ELb1EEC2B8ue170006ENS_18__default_init_tagE, symObjAddr: 0x5B68, symBinAddr: 0x100008C64, symSize: 0x2C }
  - { offsetInCU: 0x18788, offset: 0x18788, size: 0x8, addend: 0x0, symName: __ZNSt3__19allocatorINS_4pairIiiEEEC2B8ue170006Ev, symObjAddr: 0x5B94, symBinAddr: 0x100008C90, symSize: 0x2C }
  - { offsetInCU: 0x187B2, offset: 0x187B2, size: 0x8, addend: 0x0, symName: __ZNSt3__116__non_trivial_ifILb1ENS_9allocatorINS_4pairIiiEEEEEC2B8ue170006Ev, symObjAddr: 0x5BC0, symBinAddr: 0x100008CBC, symSize: 0x14 }
  - { offsetInCU: 0x187DC, offset: 0x187DC, size: 0x8, addend: 0x0, symName: __ZNSt3__16vectorIP6VertexNS_9allocatorIS2_EEEC2B8ue170006Ev, symObjAddr: 0x5BD4, symBinAddr: 0x100008CD0, symSize: 0x44 }
  - { offsetInCU: 0x18806, offset: 0x18806, size: 0x8, addend: 0x0, symName: __ZNSt3__117__compressed_pairIPP6VertexNS_9allocatorIS2_EEEC1B8ue170006IDnNS_18__default_init_tagEEEOT_OT0_, symObjAddr: 0x5C18, symBinAddr: 0x100008D14, symSize: 0x3C }
  - { offsetInCU: 0x1885E, offset: 0x1885E, size: 0x8, addend: 0x0, symName: __ZNSt3__117__compressed_pairIPP6VertexNS_9allocatorIS2_EEEC2B8ue170006IDnNS_18__default_init_tagEEEOT_OT0_, symObjAddr: 0x5C54, symBinAddr: 0x100008D50, symSize: 0x40 }
  - { offsetInCU: 0x188B6, offset: 0x188B6, size: 0x8, addend: 0x0, symName: __ZNSt3__122__compressed_pair_elemIPP6VertexLi0ELb0EEC2B8ue170006IDnvEEOT_, symObjAddr: 0x5C94, symBinAddr: 0x100008D90, symSize: 0x1C }
  - { offsetInCU: 0x188F8, offset: 0x188F8, size: 0x8, addend: 0x0, symName: __ZNSt3__122__compressed_pair_elemINS_9allocatorIP6VertexEELi1ELb1EEC2B8ue170006ENS_18__default_init_tagE, symObjAddr: 0x5CB0, symBinAddr: 0x100008DAC, symSize: 0x2C }
  - { offsetInCU: 0x1892C, offset: 0x1892C, size: 0x8, addend: 0x0, symName: __ZNSt3__19allocatorIP6VertexEC2B8ue170006Ev, symObjAddr: 0x5CDC, symBinAddr: 0x100008DD8, symSize: 0x2C }
  - { offsetInCU: 0x18956, offset: 0x18956, size: 0x8, addend: 0x0, symName: __ZNSt3__116__non_trivial_ifILb1ENS_9allocatorIP6VertexEEEC2B8ue170006Ev, symObjAddr: 0x5D08, symBinAddr: 0x100008E04, symSize: 0x14 }
  - { offsetInCU: 0x18980, offset: 0x18980, size: 0x8, addend: 0x0, symName: __ZNSt3__16vectorIP5OrderNS_9allocatorIS2_EEEC2B8ue170006Ev, symObjAddr: 0x5D1C, symBinAddr: 0x100008E18, symSize: 0x44 }
  - { offsetInCU: 0x189AA, offset: 0x189AA, size: 0x8, addend: 0x0, symName: __ZNSt3__117__compressed_pairIPP5OrderNS_9allocatorIS2_EEEC1B8ue170006IDnNS_18__default_init_tagEEEOT_OT0_, symObjAddr: 0x5D60, symBinAddr: 0x100008E5C, symSize: 0x3C }
  - { offsetInCU: 0x18A02, offset: 0x18A02, size: 0x8, addend: 0x0, symName: __ZNSt3__117__compressed_pairIPP5OrderNS_9allocatorIS2_EEEC2B8ue170006IDnNS_18__default_init_tagEEEOT_OT0_, symObjAddr: 0x5D9C, symBinAddr: 0x100008E98, symSize: 0x40 }
  - { offsetInCU: 0x18A5A, offset: 0x18A5A, size: 0x8, addend: 0x0, symName: __ZNSt3__122__compressed_pair_elemIPP5OrderLi0ELb0EEC2B8ue170006IDnvEEOT_, symObjAddr: 0x5DDC, symBinAddr: 0x100008ED8, symSize: 0x1C }
  - { offsetInCU: 0x18A9C, offset: 0x18A9C, size: 0x8, addend: 0x0, symName: __ZNSt3__122__compressed_pair_elemINS_9allocatorIP5OrderEELi1ELb1EEC2B8ue170006ENS_18__default_init_tagE, symObjAddr: 0x5DF8, symBinAddr: 0x100008EF4, symSize: 0x2C }
  - { offsetInCU: 0x18AD0, offset: 0x18AD0, size: 0x8, addend: 0x0, symName: __ZNSt3__19allocatorIP5OrderEC2B8ue170006Ev, symObjAddr: 0x5E24, symBinAddr: 0x100008F20, symSize: 0x2C }
  - { offsetInCU: 0x18AFA, offset: 0x18AFA, size: 0x8, addend: 0x0, symName: __ZNSt3__116__non_trivial_ifILb1ENS_9allocatorIP5OrderEEEC2B8ue170006Ev, symObjAddr: 0x5E50, symBinAddr: 0x100008F4C, symSize: 0x14 }
  - { offsetInCU: 0x18B24, offset: 0x18B24, size: 0x8, addend: 0x0, symName: __ZNSt3__16vectorIP6VertexNS_9allocatorIS2_EEE8__appendEmRKS2_, symObjAddr: 0x5E64, symBinAddr: 0x100008F60, symSize: 0x11C }
  - { offsetInCU: 0x18B8E, offset: 0x18B8E, size: 0x8, addend: 0x0, symName: __ZNSt3__16vectorIP6VertexNS_9allocatorIS2_EEE17__destruct_at_endB8ue170006EPS2_, symObjAddr: 0x5F80, symBinAddr: 0x10000907C, symSize: 0x4C }
  - { offsetInCU: 0x18BD2, offset: 0x18BD2, size: 0x8, addend: 0x0, symName: __ZNSt3__16vectorIP6VertexNS_9allocatorIS2_EEE9__end_capB8ue170006Ev, symObjAddr: 0x5FCC, symBinAddr: 0x1000090C8, symSize: 0x28 }
  - { offsetInCU: 0x18BF8, offset: 0x18BF8, size: 0x8, addend: 0x0, symName: __ZNSt3__16vectorIP6VertexNS_9allocatorIS2_EEE18__construct_at_endEmRKS2_, symObjAddr: 0x5FF4, symBinAddr: 0x1000090F0, symSize: 0xD8 }
  - { offsetInCU: 0x18C79, offset: 0x18C79, size: 0x8, addend: 0x0, symName: __ZNKSt3__16vectorIP6VertexNS_9allocatorIS2_EEE11__recommendB8ue170006Em, symObjAddr: 0x60CC, symBinAddr: 0x1000091C8, symSize: 0xB4 }
  - { offsetInCU: 0x18CCE, offset: 0x18CCE, size: 0x8, addend: 0x0, symName: __ZNSt3__114__split_bufferIP6VertexRNS_9allocatorIS2_EEEC1EmmS5_, symObjAddr: 0x6180, symBinAddr: 0x10000927C, symSize: 0x44 }
  - { offsetInCU: 0x18D24, offset: 0x18D24, size: 0x8, addend: 0x0, symName: __ZNSt3__114__split_bufferIP6VertexRNS_9allocatorIS2_EEE18__construct_at_endEmRKS2_, symObjAddr: 0x61C4, symBinAddr: 0x1000092C0, symSize: 0xC4 }
  - { offsetInCU: 0x18D77, offset: 0x18D77, size: 0x8, addend: 0x0, symName: __ZNSt3__114__split_bufferIP6VertexRNS_9allocatorIS2_EEED1Ev, symObjAddr: 0x6398, symBinAddr: 0x100009494, symSize: 0x2C }
  - { offsetInCU: 0x18DA3, offset: 0x18DA3, size: 0x8, addend: 0x0, symName: __ZNSt3__117__compressed_pairIPP6VertexNS_9allocatorIS2_EEE5firstB8ue170006Ev, symObjAddr: 0x63C4, symBinAddr: 0x1000094C0, symSize: 0x24 }
  - { offsetInCU: 0x18DC9, offset: 0x18DC9, size: 0x8, addend: 0x0, symName: __ZNSt3__122__compressed_pair_elemIPP6VertexLi0ELb0EE5__getB8ue170006Ev, symObjAddr: 0x63E8, symBinAddr: 0x1000094E4, symSize: 0x14 }
  - { offsetInCU: 0x18E08, offset: 0x18E08, size: 0x8, addend: 0x0, symName: __ZNSt3__16vectorIP6VertexNS_9allocatorIS2_EEE21_ConstructTransactionC1B8ue170006ERS5_m, symObjAddr: 0x63FC, symBinAddr: 0x1000094F8, symSize: 0x3C }
  - { offsetInCU: 0x18E50, offset: 0x18E50, size: 0x8, addend: 0x0, symName: __ZNSt3__116allocator_traitsINS_9allocatorIP6VertexEEE9constructB8ue170006IS3_JRKS3_EvEEvRS4_PT_DpOT0_, symObjAddr: 0x6438, symBinAddr: 0x100009534, symSize: 0x34 }
  - { offsetInCU: 0x18EA7, offset: 0x18EA7, size: 0x8, addend: 0x0, symName: __ZNSt3__16vectorIP6VertexNS_9allocatorIS2_EEE21_ConstructTransactionD1B8ue170006Ev, symObjAddr: 0x646C, symBinAddr: 0x100009568, symSize: 0x2C }
  - { offsetInCU: 0x18ED1, offset: 0x18ED1, size: 0x8, addend: 0x0, symName: __ZNSt3__16vectorIP6VertexNS_9allocatorIS2_EEE21_ConstructTransactionC2B8ue170006ERS5_m, symObjAddr: 0x6498, symBinAddr: 0x100009594, symSize: 0x44 }
  - { offsetInCU: 0x18F19, offset: 0x18F19, size: 0x8, addend: 0x0, symName: __ZNSt3__19allocatorIP6VertexE9constructB8ue170006IS2_JRKS2_EEEvPT_DpOT0_, symObjAddr: 0x64DC, symBinAddr: 0x1000095D8, symSize: 0x28 }
  - { offsetInCU: 0x18F6F, offset: 0x18F6F, size: 0x8, addend: 0x0, symName: __ZNSt3__16vectorIP6VertexNS_9allocatorIS2_EEE21_ConstructTransactionD2B8ue170006Ev, symObjAddr: 0x6504, symBinAddr: 0x100009600, symSize: 0x20 }
  - { offsetInCU: 0x18F99, offset: 0x18F99, size: 0x8, addend: 0x0, symName: __ZNKSt3__16vectorIP6VertexNS_9allocatorIS2_EEE8max_sizeEv, symObjAddr: 0x6524, symBinAddr: 0x100009620, symSize: 0x74 }
  - { offsetInCU: 0x18FC1, offset: 0x18FC1, size: 0x8, addend: 0x0, symName: __ZNKSt3__16vectorIP6VertexNS_9allocatorIS2_EEE20__throw_length_errorB8ue170006Ev, symObjAddr: 0x6598, symBinAddr: 0x100009694, symSize: 0x1C }
  - { offsetInCU: 0x18FF1, offset: 0x18FF1, size: 0x8, addend: 0x0, symName: __ZNSt3__116allocator_traitsINS_9allocatorIP6VertexEEE8max_sizeB8ue170006IS4_vEEmRKS4_, symObjAddr: 0x660C, symBinAddr: 0x100009708, symSize: 0x24 }
  - { offsetInCU: 0x1901F, offset: 0x1901F, size: 0x8, addend: 0x0, symName: __ZNKSt3__16vectorIP6VertexNS_9allocatorIS2_EEE7__allocB8ue170006Ev, symObjAddr: 0x6630, symBinAddr: 0x10000972C, symSize: 0x28 }
  - { offsetInCU: 0x19059, offset: 0x19059, size: 0x8, addend: 0x0, symName: __ZNKSt3__16__lessIvvEclB8ue170006ImmEEbRKT_RKT0_, symObjAddr: 0x66AC, symBinAddr: 0x1000097A8, symSize: 0x34 }
  - { offsetInCU: 0x190AD, offset: 0x190AD, size: 0x8, addend: 0x0, symName: __ZNKSt3__19allocatorIP6VertexE8max_sizeB8ue170006Ev, symObjAddr: 0x66E0, symBinAddr: 0x1000097DC, symSize: 0x14 }
  - { offsetInCU: 0x190D3, offset: 0x190D3, size: 0x8, addend: 0x0, symName: __ZNKSt3__117__compressed_pairIPP6VertexNS_9allocatorIS2_EEE6secondB8ue170006Ev, symObjAddr: 0x66F4, symBinAddr: 0x1000097F0, symSize: 0x24 }
  - { offsetInCU: 0x190F9, offset: 0x190F9, size: 0x8, addend: 0x0, symName: __ZNKSt3__122__compressed_pair_elemINS_9allocatorIP6VertexEELi1ELb1EE5__getB8ue170006Ev, symObjAddr: 0x6718, symBinAddr: 0x100009814, symSize: 0x14 }
  - { offsetInCU: 0x1911F, offset: 0x1911F, size: 0x8, addend: 0x0, symName: __ZNSt12length_errorC1B8ue170006EPKc, symObjAddr: 0x6790, symBinAddr: 0x10000988C, symSize: 0x34 }
  - { offsetInCU: 0x19157, offset: 0x19157, size: 0x8, addend: 0x0, symName: __ZNSt12length_errorC2B8ue170006EPKc, symObjAddr: 0x67C4, symBinAddr: 0x1000098C0, symSize: 0x4C }
  - { offsetInCU: 0x1918F, offset: 0x1918F, size: 0x8, addend: 0x0, symName: __ZNSt3__114__split_bufferIP6VertexRNS_9allocatorIS2_EEEC2EmmS5_, symObjAddr: 0x6864, symBinAddr: 0x100009960, symSize: 0xD4 }
  - { offsetInCU: 0x19202, offset: 0x19202, size: 0x8, addend: 0x0, symName: __ZNSt3__117__compressed_pairIPP6VertexRNS_9allocatorIS2_EEEC1B8ue170006IDnS6_EEOT_OT0_, symObjAddr: 0x6938, symBinAddr: 0x100009A34, symSize: 0x3C }
  - { offsetInCU: 0x1925A, offset: 0x1925A, size: 0x8, addend: 0x0, symName: __ZNSt3__114__split_bufferIP6VertexRNS_9allocatorIS2_EEE7__allocB8ue170006Ev, symObjAddr: 0x69B4, symBinAddr: 0x100009AB0, symSize: 0x28 }
  - { offsetInCU: 0x19280, offset: 0x19280, size: 0x8, addend: 0x0, symName: __ZNSt3__114__split_bufferIP6VertexRNS_9allocatorIS2_EEE9__end_capB8ue170006Ev, symObjAddr: 0x69DC, symBinAddr: 0x100009AD8, symSize: 0x28 }
  - { offsetInCU: 0x192A6, offset: 0x192A6, size: 0x8, addend: 0x0, symName: __ZNSt3__117__compressed_pairIPP6VertexRNS_9allocatorIS2_EEEC2B8ue170006IDnS6_EEOT_OT0_, symObjAddr: 0x6A04, symBinAddr: 0x100009B00, symSize: 0x48 }
  - { offsetInCU: 0x192FE, offset: 0x192FE, size: 0x8, addend: 0x0, symName: __ZNSt3__122__compressed_pair_elemIRNS_9allocatorIP6VertexEELi1ELb0EEC2B8ue170006IS5_vEEOT_, symObjAddr: 0x6A4C, symBinAddr: 0x100009B48, symSize: 0x20 }
  - { offsetInCU: 0x19340, offset: 0x19340, size: 0x8, addend: 0x0, symName: __ZNSt3__19allocatorIP6VertexE8allocateB8ue170006Em, symObjAddr: 0x6A6C, symBinAddr: 0x100009B68, symSize: 0x84 }
  - { offsetInCU: 0x19374, offset: 0x19374, size: 0x8, addend: 0x0, symName: __ZNSt3__117__compressed_pairIPP6VertexRNS_9allocatorIS2_EEE6secondB8ue170006Ev, symObjAddr: 0x6AF0, symBinAddr: 0x100009BEC, symSize: 0x28 }
  - { offsetInCU: 0x1939A, offset: 0x1939A, size: 0x8, addend: 0x0, symName: __ZNSt3__122__compressed_pair_elemIRNS_9allocatorIP6VertexEELi1ELb0EE5__getB8ue170006Ev, symObjAddr: 0x6B18, symBinAddr: 0x100009C14, symSize: 0x18 }
  - { offsetInCU: 0x193C0, offset: 0x193C0, size: 0x8, addend: 0x0, symName: __ZNSt3__117__compressed_pairIPP6VertexRNS_9allocatorIS2_EEE5firstB8ue170006Ev, symObjAddr: 0x6B30, symBinAddr: 0x100009C2C, symSize: 0x24 }
  - { offsetInCU: 0x193F0, offset: 0x193F0, size: 0x8, addend: 0x0, symName: __ZNSt3__114__split_bufferIP6VertexRNS_9allocatorIS2_EEE21_ConstructTransactionC1B8ue170006EPPS2_m, symObjAddr: 0x6B54, symBinAddr: 0x100009C50, symSize: 0x3C }
  - { offsetInCU: 0x19436, offset: 0x19436, size: 0x8, addend: 0x0, symName: __ZNSt3__114__split_bufferIP6VertexRNS_9allocatorIS2_EEE21_ConstructTransactionD1B8ue170006Ev, symObjAddr: 0x6B90, symBinAddr: 0x100009C8C, symSize: 0x2C }
  - { offsetInCU: 0x19460, offset: 0x19460, size: 0x8, addend: 0x0, symName: __ZNSt3__114__split_bufferIP6VertexRNS_9allocatorIS2_EEE21_ConstructTransactionC2B8ue170006EPPS2_m, symObjAddr: 0x6BBC, symBinAddr: 0x100009CB8, symSize: 0x44 }
  - { offsetInCU: 0x194A6, offset: 0x194A6, size: 0x8, addend: 0x0, symName: __ZNSt3__114__split_bufferIP6VertexRNS_9allocatorIS2_EEE21_ConstructTransactionD2B8ue170006Ev, symObjAddr: 0x6C00, symBinAddr: 0x100009CFC, symSize: 0x20 }
  - { offsetInCU: 0x194D0, offset: 0x194D0, size: 0x8, addend: 0x0, symName: __ZNSt3__116reverse_iteratorIPP6VertexEC1B8ue170006ES3_, symObjAddr: 0x6D08, symBinAddr: 0x100009E04, symSize: 0x34 }
  - { offsetInCU: 0x19508, offset: 0x19508, size: 0x8, addend: 0x0, symName: __ZNKSt3__116reverse_iteratorIPP6VertexE4baseB8ue170006Ev, symObjAddr: 0x6D3C, symBinAddr: 0x100009E38, symSize: 0x18 }
  - { offsetInCU: 0x1952E, offset: 0x1952E, size: 0x8, addend: 0x0, symName: __ZNKSt3__16vectorIP6VertexNS_9allocatorIS2_EEE14__annotate_newB8ue170006Em, symObjAddr: 0x6D90, symBinAddr: 0x100009E8C, symSize: 0xAC }
  - { offsetInCU: 0x19563, offset: 0x19563, size: 0x8, addend: 0x0, symName: __ZNKSt3__116reverse_iteratorIPP6VertexEdeB8ue170006Ev, symObjAddr: 0x6ED4, symBinAddr: 0x100009FD0, symSize: 0x28 }
  - { offsetInCU: 0x19597, offset: 0x19597, size: 0x8, addend: 0x0, symName: __ZNSt3__116reverse_iteratorIPP6VertexEppB8ue170006Ev, symObjAddr: 0x6EFC, symBinAddr: 0x100009FF8, symSize: 0x20 }
  - { offsetInCU: 0x195C2, offset: 0x195C2, size: 0x8, addend: 0x0, symName: __ZNSt3__119__to_address_helperINS_16reverse_iteratorIPP6VertexEEvE6__callB8ue170006ERKS5_, symObjAddr: 0x6F94, symBinAddr: 0x10000A090, symSize: 0x4C }
  - { offsetInCU: 0x195E5, offset: 0x195E5, size: 0x8, addend: 0x0, symName: __ZNKSt3__116reverse_iteratorIPP6VertexEptB8ue170006Ev, symObjAddr: 0x6FE0, symBinAddr: 0x10000A0DC, symSize: 0x24 }
  - { offsetInCU: 0x1962F, offset: 0x1962F, size: 0x8, addend: 0x0, symName: __ZNKSt3__111__move_loopINS_17_ClassicAlgPolicyEEclB8ue170006INS_16reverse_iteratorIPP6VertexEES8_S8_EENS_4pairIT_T1_EESA_T0_SB_, symObjAddr: 0x727C, symBinAddr: 0x10000A378, symSize: 0xA0 }
  - { offsetInCU: 0x196A0, offset: 0x196A0, size: 0x8, addend: 0x0, symName: __ZNSt3__18_IterOpsINS_17_ClassicAlgPolicyEE11__iter_moveB8ue170006IRNS_16reverse_iteratorIPP6VertexEEEENS_9enable_ifIXsr12is_referenceIDTdeclsr3stdE7declvalIRT_EEEEE5valueEDTclsr3stdE4movedeclsr3stdE7declvalISC_EEEEE4typeEOSB_, symObjAddr: 0x747C, symBinAddr: 0x10000A578, symSize: 0x28 }
  - { offsetInCU: 0x196CC, offset: 0x196CC, size: 0x8, addend: 0x0, symName: __ZNSt3__18_IterOpsINS_17_ClassicAlgPolicyEE25__validate_iter_referenceB8ue170006IRNS_16reverse_iteratorIPP6VertexEEEEvv, symObjAddr: 0x74A4, symBinAddr: 0x10000A5A0, symSize: 0x4 }
  - { offsetInCU: 0x196EA, offset: 0x196EA, size: 0x8, addend: 0x0, symName: __ZNSt3__118__unwrap_iter_implINS_16reverse_iteratorIPP6VertexEELb0EE8__unwrapB8ue170006ES5_, symObjAddr: 0x74A8, symBinAddr: 0x10000A5A4, symSize: 0x24 }
  - { offsetInCU: 0x1970D, offset: 0x1970D, size: 0x8, addend: 0x0, symName: __ZNSt3__14pairINS_16reverse_iteratorIPP6VertexEES5_EC1B8ue170006ERKS5_S8_, symObjAddr: 0x74CC, symBinAddr: 0x10000A5C8, symSize: 0x3C }
  - { offsetInCU: 0x19753, offset: 0x19753, size: 0x8, addend: 0x0, symName: __ZNSt3__14pairINS_16reverse_iteratorIPP6VertexEES5_EC2B8ue170006ERKS5_S8_, symObjAddr: 0x7508, symBinAddr: 0x10000A604, symSize: 0x34 }
  - { offsetInCU: 0x19799, offset: 0x19799, size: 0x8, addend: 0x0, symName: __ZNSt3__118__unwrap_iter_implINS_16reverse_iteratorIPP6VertexEELb0EE8__rewrapB8ue170006ES5_S5_, symObjAddr: 0x753C, symBinAddr: 0x10000A638, symSize: 0x2C }
  - { offsetInCU: 0x197C6, offset: 0x197C6, size: 0x8, addend: 0x0, symName: __ZNSt3__116reverse_iteratorIPP6VertexEC2B8ue170006ES3_, symObjAddr: 0x7568, symBinAddr: 0x10000A664, symSize: 0x28 }
  - { offsetInCU: 0x197FE, offset: 0x197FE, size: 0x8, addend: 0x0, symName: __ZNSt3__114__split_bufferIP6VertexRNS_9allocatorIS2_EEED2Ev, symObjAddr: 0x7590, symBinAddr: 0x10000A68C, symSize: 0x80 }
  - { offsetInCU: 0x1982A, offset: 0x1982A, size: 0x8, addend: 0x0, symName: __ZNSt3__114__split_bufferIP6VertexRNS_9allocatorIS2_EEE5clearB8ue170006Ev, symObjAddr: 0x7610, symBinAddr: 0x10000A70C, symSize: 0x28 }
  - { offsetInCU: 0x19850, offset: 0x19850, size: 0x8, addend: 0x0, symName: __ZNKSt3__114__split_bufferIP6VertexRNS_9allocatorIS2_EEE8capacityB8ue170006Ev, symObjAddr: 0x7638, symBinAddr: 0x10000A734, symSize: 0x40 }
  - { offsetInCU: 0x19876, offset: 0x19876, size: 0x8, addend: 0x0, symName: __ZNSt3__114__split_bufferIP6VertexRNS_9allocatorIS2_EEE17__destruct_at_endB8ue170006EPS2_, symObjAddr: 0x7678, symBinAddr: 0x10000A774, symSize: 0x2C }
  - { offsetInCU: 0x198AA, offset: 0x198AA, size: 0x8, addend: 0x0, symName: __ZNSt3__114__split_bufferIP6VertexRNS_9allocatorIS2_EEE17__destruct_at_endB8ue170006EPS2_NS_17integral_constantIbLb0EEE, symObjAddr: 0x76A4, symBinAddr: 0x10000A7A0, symSize: 0x94 }
  - { offsetInCU: 0x198EA, offset: 0x198EA, size: 0x8, addend: 0x0, symName: __ZNKSt3__114__split_bufferIP6VertexRNS_9allocatorIS2_EEE9__end_capB8ue170006Ev, symObjAddr: 0x7738, symBinAddr: 0x10000A834, symSize: 0x28 }
  - { offsetInCU: 0x19910, offset: 0x19910, size: 0x8, addend: 0x0, symName: __ZNKSt3__117__compressed_pairIPP6VertexRNS_9allocatorIS2_EEE5firstB8ue170006Ev, symObjAddr: 0x7760, symBinAddr: 0x10000A85C, symSize: 0x24 }
  - { offsetInCU: 0x19936, offset: 0x19936, size: 0x8, addend: 0x0, symName: __ZNKSt3__16vectorIP6VertexNS_9allocatorIS2_EEE17__annotate_shrinkB8ue170006Em, symObjAddr: 0x7784, symBinAddr: 0x10000A880, symSize: 0xB4 }
  - { offsetInCU: 0x1996B, offset: 0x1996B, size: 0x8, addend: 0x0, symName: __ZNSt3__16vectorIP5OrderNS_9allocatorIS2_EEE8__appendEmRKS2_, symObjAddr: 0x7838, symBinAddr: 0x10000A934, symSize: 0x11C }
  - { offsetInCU: 0x199D5, offset: 0x199D5, size: 0x8, addend: 0x0, symName: __ZNSt3__16vectorIP5OrderNS_9allocatorIS2_EEE17__destruct_at_endB8ue170006EPS2_, symObjAddr: 0x7954, symBinAddr: 0x10000AA50, symSize: 0x4C }
  - { offsetInCU: 0x19A19, offset: 0x19A19, size: 0x8, addend: 0x0, symName: __ZNSt3__16vectorIP5OrderNS_9allocatorIS2_EEE9__end_capB8ue170006Ev, symObjAddr: 0x79A0, symBinAddr: 0x10000AA9C, symSize: 0x28 }
  - { offsetInCU: 0x19A3F, offset: 0x19A3F, size: 0x8, addend: 0x0, symName: __ZNSt3__16vectorIP5OrderNS_9allocatorIS2_EEE18__construct_at_endEmRKS2_, symObjAddr: 0x79C8, symBinAddr: 0x10000AAC4, symSize: 0xD8 }
  - { offsetInCU: 0x19AC0, offset: 0x19AC0, size: 0x8, addend: 0x0, symName: __ZNKSt3__16vectorIP5OrderNS_9allocatorIS2_EEE11__recommendB8ue170006Em, symObjAddr: 0x7AA0, symBinAddr: 0x10000AB9C, symSize: 0xB4 }
  - { offsetInCU: 0x19B15, offset: 0x19B15, size: 0x8, addend: 0x0, symName: __ZNSt3__114__split_bufferIP5OrderRNS_9allocatorIS2_EEEC1EmmS5_, symObjAddr: 0x7B54, symBinAddr: 0x10000AC50, symSize: 0x44 }
  - { offsetInCU: 0x19B6B, offset: 0x19B6B, size: 0x8, addend: 0x0, symName: __ZNSt3__114__split_bufferIP5OrderRNS_9allocatorIS2_EEE18__construct_at_endEmRKS2_, symObjAddr: 0x7B98, symBinAddr: 0x10000AC94, symSize: 0xC4 }
  - { offsetInCU: 0x19BBE, offset: 0x19BBE, size: 0x8, addend: 0x0, symName: __ZNSt3__114__split_bufferIP5OrderRNS_9allocatorIS2_EEED1Ev, symObjAddr: 0x7D6C, symBinAddr: 0x10000AE68, symSize: 0x2C }
  - { offsetInCU: 0x19BEA, offset: 0x19BEA, size: 0x8, addend: 0x0, symName: __ZNSt3__117__compressed_pairIPP5OrderNS_9allocatorIS2_EEE5firstB8ue170006Ev, symObjAddr: 0x7D98, symBinAddr: 0x10000AE94, symSize: 0x24 }
  - { offsetInCU: 0x19C10, offset: 0x19C10, size: 0x8, addend: 0x0, symName: __ZNSt3__122__compressed_pair_elemIPP5OrderLi0ELb0EE5__getB8ue170006Ev, symObjAddr: 0x7DBC, symBinAddr: 0x10000AEB8, symSize: 0x14 }
  - { offsetInCU: 0x19C4F, offset: 0x19C4F, size: 0x8, addend: 0x0, symName: __ZNSt3__16vectorIP5OrderNS_9allocatorIS2_EEE21_ConstructTransactionC1B8ue170006ERS5_m, symObjAddr: 0x7DD0, symBinAddr: 0x10000AECC, symSize: 0x3C }
  - { offsetInCU: 0x19C97, offset: 0x19C97, size: 0x8, addend: 0x0, symName: __ZNSt3__116allocator_traitsINS_9allocatorIP5OrderEEE9constructB8ue170006IS3_JRKS3_EvEEvRS4_PT_DpOT0_, symObjAddr: 0x7E0C, symBinAddr: 0x10000AF08, symSize: 0x34 }
  - { offsetInCU: 0x19CEE, offset: 0x19CEE, size: 0x8, addend: 0x0, symName: __ZNSt3__16vectorIP5OrderNS_9allocatorIS2_EEE21_ConstructTransactionD1B8ue170006Ev, symObjAddr: 0x7E40, symBinAddr: 0x10000AF3C, symSize: 0x2C }
  - { offsetInCU: 0x19D18, offset: 0x19D18, size: 0x8, addend: 0x0, symName: __ZNSt3__16vectorIP5OrderNS_9allocatorIS2_EEE21_ConstructTransactionC2B8ue170006ERS5_m, symObjAddr: 0x7E6C, symBinAddr: 0x10000AF68, symSize: 0x44 }
  - { offsetInCU: 0x19D60, offset: 0x19D60, size: 0x8, addend: 0x0, symName: __ZNSt3__19allocatorIP5OrderE9constructB8ue170006IS2_JRKS2_EEEvPT_DpOT0_, symObjAddr: 0x7EB0, symBinAddr: 0x10000AFAC, symSize: 0x28 }
  - { offsetInCU: 0x19DB6, offset: 0x19DB6, size: 0x8, addend: 0x0, symName: __ZNSt3__16vectorIP5OrderNS_9allocatorIS2_EEE21_ConstructTransactionD2B8ue170006Ev, symObjAddr: 0x7ED8, symBinAddr: 0x10000AFD4, symSize: 0x20 }
  - { offsetInCU: 0x19DE0, offset: 0x19DE0, size: 0x8, addend: 0x0, symName: __ZNKSt3__16vectorIP5OrderNS_9allocatorIS2_EEE8max_sizeEv, symObjAddr: 0x7EF8, symBinAddr: 0x10000AFF4, symSize: 0x74 }
  - { offsetInCU: 0x19E08, offset: 0x19E08, size: 0x8, addend: 0x0, symName: __ZNKSt3__16vectorIP5OrderNS_9allocatorIS2_EEE20__throw_length_errorB8ue170006Ev, symObjAddr: 0x7F6C, symBinAddr: 0x10000B068, symSize: 0x1C }
  - { offsetInCU: 0x19E38, offset: 0x19E38, size: 0x8, addend: 0x0, symName: __ZNSt3__116allocator_traitsINS_9allocatorIP5OrderEEE8max_sizeB8ue170006IS4_vEEmRKS4_, symObjAddr: 0x7F88, symBinAddr: 0x10000B084, symSize: 0x24 }
  - { offsetInCU: 0x19E66, offset: 0x19E66, size: 0x8, addend: 0x0, symName: __ZNKSt3__16vectorIP5OrderNS_9allocatorIS2_EEE7__allocB8ue170006Ev, symObjAddr: 0x7FAC, symBinAddr: 0x10000B0A8, symSize: 0x28 }
  - { offsetInCU: 0x19E8C, offset: 0x19E8C, size: 0x8, addend: 0x0, symName: __ZNKSt3__19allocatorIP5OrderE8max_sizeB8ue170006Ev, symObjAddr: 0x7FD4, symBinAddr: 0x10000B0D0, symSize: 0x14 }
  - { offsetInCU: 0x19EB2, offset: 0x19EB2, size: 0x8, addend: 0x0, symName: __ZNKSt3__117__compressed_pairIPP5OrderNS_9allocatorIS2_EEE6secondB8ue170006Ev, symObjAddr: 0x7FE8, symBinAddr: 0x10000B0E4, symSize: 0x24 }
  - { offsetInCU: 0x19ED8, offset: 0x19ED8, size: 0x8, addend: 0x0, symName: __ZNKSt3__122__compressed_pair_elemINS_9allocatorIP5OrderEELi1ELb1EE5__getB8ue170006Ev, symObjAddr: 0x800C, symBinAddr: 0x10000B108, symSize: 0x14 }
  - { offsetInCU: 0x19EFE, offset: 0x19EFE, size: 0x8, addend: 0x0, symName: __ZNSt3__114__split_bufferIP5OrderRNS_9allocatorIS2_EEEC2EmmS5_, symObjAddr: 0x8020, symBinAddr: 0x10000B11C, symSize: 0xD4 }
  - { offsetInCU: 0x19F71, offset: 0x19F71, size: 0x8, addend: 0x0, symName: __ZNSt3__117__compressed_pairIPP5OrderRNS_9allocatorIS2_EEEC1B8ue170006IDnS6_EEOT_OT0_, symObjAddr: 0x80F4, symBinAddr: 0x10000B1F0, symSize: 0x3C }
  - { offsetInCU: 0x19FC9, offset: 0x19FC9, size: 0x8, addend: 0x0, symName: __ZNSt3__114__split_bufferIP5OrderRNS_9allocatorIS2_EEE7__allocB8ue170006Ev, symObjAddr: 0x8170, symBinAddr: 0x10000B26C, symSize: 0x28 }
  - { offsetInCU: 0x19FEF, offset: 0x19FEF, size: 0x8, addend: 0x0, symName: __ZNSt3__114__split_bufferIP5OrderRNS_9allocatorIS2_EEE9__end_capB8ue170006Ev, symObjAddr: 0x8198, symBinAddr: 0x10000B294, symSize: 0x28 }
  - { offsetInCU: 0x1A015, offset: 0x1A015, size: 0x8, addend: 0x0, symName: __ZNSt3__117__compressed_pairIPP5OrderRNS_9allocatorIS2_EEEC2B8ue170006IDnS6_EEOT_OT0_, symObjAddr: 0x81C0, symBinAddr: 0x10000B2BC, symSize: 0x48 }
  - { offsetInCU: 0x1A06D, offset: 0x1A06D, size: 0x8, addend: 0x0, symName: __ZNSt3__122__compressed_pair_elemIRNS_9allocatorIP5OrderEELi1ELb0EEC2B8ue170006IS5_vEEOT_, symObjAddr: 0x8208, symBinAddr: 0x10000B304, symSize: 0x20 }
  - { offsetInCU: 0x1A0AF, offset: 0x1A0AF, size: 0x8, addend: 0x0, symName: __ZNSt3__19allocatorIP5OrderE8allocateB8ue170006Em, symObjAddr: 0x8228, symBinAddr: 0x10000B324, symSize: 0x84 }
  - { offsetInCU: 0x1A0E3, offset: 0x1A0E3, size: 0x8, addend: 0x0, symName: __ZNSt3__117__compressed_pairIPP5OrderRNS_9allocatorIS2_EEE6secondB8ue170006Ev, symObjAddr: 0x82AC, symBinAddr: 0x10000B3A8, symSize: 0x28 }
  - { offsetInCU: 0x1A109, offset: 0x1A109, size: 0x8, addend: 0x0, symName: __ZNSt3__122__compressed_pair_elemIRNS_9allocatorIP5OrderEELi1ELb0EE5__getB8ue170006Ev, symObjAddr: 0x82D4, symBinAddr: 0x10000B3D0, symSize: 0x18 }
  - { offsetInCU: 0x1A12F, offset: 0x1A12F, size: 0x8, addend: 0x0, symName: __ZNSt3__117__compressed_pairIPP5OrderRNS_9allocatorIS2_EEE5firstB8ue170006Ev, symObjAddr: 0x82EC, symBinAddr: 0x10000B3E8, symSize: 0x24 }
  - { offsetInCU: 0x1A15F, offset: 0x1A15F, size: 0x8, addend: 0x0, symName: __ZNSt3__114__split_bufferIP5OrderRNS_9allocatorIS2_EEE21_ConstructTransactionC1B8ue170006EPPS2_m, symObjAddr: 0x8310, symBinAddr: 0x10000B40C, symSize: 0x3C }
  - { offsetInCU: 0x1A1A5, offset: 0x1A1A5, size: 0x8, addend: 0x0, symName: __ZNSt3__114__split_bufferIP5OrderRNS_9allocatorIS2_EEE21_ConstructTransactionD1B8ue170006Ev, symObjAddr: 0x834C, symBinAddr: 0x10000B448, symSize: 0x2C }
  - { offsetInCU: 0x1A1CF, offset: 0x1A1CF, size: 0x8, addend: 0x0, symName: __ZNSt3__114__split_bufferIP5OrderRNS_9allocatorIS2_EEE21_ConstructTransactionC2B8ue170006EPPS2_m, symObjAddr: 0x8378, symBinAddr: 0x10000B474, symSize: 0x44 }
  - { offsetInCU: 0x1A215, offset: 0x1A215, size: 0x8, addend: 0x0, symName: __ZNSt3__114__split_bufferIP5OrderRNS_9allocatorIS2_EEE21_ConstructTransactionD2B8ue170006Ev, symObjAddr: 0x83BC, symBinAddr: 0x10000B4B8, symSize: 0x20 }
  - { offsetInCU: 0x1A23F, offset: 0x1A23F, size: 0x8, addend: 0x0, symName: __ZNSt3__116reverse_iteratorIPP5OrderEC1B8ue170006ES3_, symObjAddr: 0x84C4, symBinAddr: 0x10000B5C0, symSize: 0x34 }
  - { offsetInCU: 0x1A277, offset: 0x1A277, size: 0x8, addend: 0x0, symName: __ZNKSt3__116reverse_iteratorIPP5OrderE4baseB8ue170006Ev, symObjAddr: 0x84F8, symBinAddr: 0x10000B5F4, symSize: 0x18 }
  - { offsetInCU: 0x1A29D, offset: 0x1A29D, size: 0x8, addend: 0x0, symName: __ZNKSt3__16vectorIP5OrderNS_9allocatorIS2_EEE14__annotate_newB8ue170006Em, symObjAddr: 0x854C, symBinAddr: 0x10000B648, symSize: 0xAC }
  - { offsetInCU: 0x1A2D2, offset: 0x1A2D2, size: 0x8, addend: 0x0, symName: __ZNKSt3__116reverse_iteratorIPP5OrderEdeB8ue170006Ev, symObjAddr: 0x8690, symBinAddr: 0x10000B78C, symSize: 0x28 }
  - { offsetInCU: 0x1A306, offset: 0x1A306, size: 0x8, addend: 0x0, symName: __ZNSt3__116reverse_iteratorIPP5OrderEppB8ue170006Ev, symObjAddr: 0x86B8, symBinAddr: 0x10000B7B4, symSize: 0x20 }
  - { offsetInCU: 0x1A331, offset: 0x1A331, size: 0x8, addend: 0x0, symName: __ZNSt3__119__to_address_helperINS_16reverse_iteratorIPP5OrderEEvE6__callB8ue170006ERKS5_, symObjAddr: 0x8750, symBinAddr: 0x10000B84C, symSize: 0x4C }
  - { offsetInCU: 0x1A354, offset: 0x1A354, size: 0x8, addend: 0x0, symName: __ZNKSt3__116reverse_iteratorIPP5OrderEptB8ue170006Ev, symObjAddr: 0x879C, symBinAddr: 0x10000B898, symSize: 0x24 }
  - { offsetInCU: 0x1A394, offset: 0x1A394, size: 0x8, addend: 0x0, symName: __ZNKSt3__111__move_loopINS_17_ClassicAlgPolicyEEclB8ue170006INS_16reverse_iteratorIPP5OrderEES8_S8_EENS_4pairIT_T1_EESA_T0_SB_, symObjAddr: 0x8A38, symBinAddr: 0x10000BB34, symSize: 0xA0 }
  - { offsetInCU: 0x1A405, offset: 0x1A405, size: 0x8, addend: 0x0, symName: __ZNSt3__18_IterOpsINS_17_ClassicAlgPolicyEE11__iter_moveB8ue170006IRNS_16reverse_iteratorIPP5OrderEEEENS_9enable_ifIXsr12is_referenceIDTdeclsr3stdE7declvalIRT_EEEEE5valueEDTclsr3stdE4movedeclsr3stdE7declvalISC_EEEEE4typeEOSB_, symObjAddr: 0x8C38, symBinAddr: 0x10000BD34, symSize: 0x28 }
  - { offsetInCU: 0x1A431, offset: 0x1A431, size: 0x8, addend: 0x0, symName: __ZNSt3__18_IterOpsINS_17_ClassicAlgPolicyEE25__validate_iter_referenceB8ue170006IRNS_16reverse_iteratorIPP5OrderEEEEvv, symObjAddr: 0x8C60, symBinAddr: 0x10000BD5C, symSize: 0x4 }
  - { offsetInCU: 0x1A44F, offset: 0x1A44F, size: 0x8, addend: 0x0, symName: __ZNSt3__118__unwrap_iter_implINS_16reverse_iteratorIPP5OrderEELb0EE8__unwrapB8ue170006ES5_, symObjAddr: 0x8C64, symBinAddr: 0x10000BD60, symSize: 0x24 }
  - { offsetInCU: 0x1A472, offset: 0x1A472, size: 0x8, addend: 0x0, symName: __ZNSt3__14pairINS_16reverse_iteratorIPP5OrderEES5_EC1B8ue170006ERKS5_S8_, symObjAddr: 0x8C88, symBinAddr: 0x10000BD84, symSize: 0x3C }
  - { offsetInCU: 0x1A4B8, offset: 0x1A4B8, size: 0x8, addend: 0x0, symName: __ZNSt3__14pairINS_16reverse_iteratorIPP5OrderEES5_EC2B8ue170006ERKS5_S8_, symObjAddr: 0x8CC4, symBinAddr: 0x10000BDC0, symSize: 0x34 }
  - { offsetInCU: 0x1A4FE, offset: 0x1A4FE, size: 0x8, addend: 0x0, symName: __ZNSt3__118__unwrap_iter_implINS_16reverse_iteratorIPP5OrderEELb0EE8__rewrapB8ue170006ES5_S5_, symObjAddr: 0x8CF8, symBinAddr: 0x10000BDF4, symSize: 0x2C }
  - { offsetInCU: 0x1A52B, offset: 0x1A52B, size: 0x8, addend: 0x0, symName: __ZNSt3__116reverse_iteratorIPP5OrderEC2B8ue170006ES3_, symObjAddr: 0x8D24, symBinAddr: 0x10000BE20, symSize: 0x28 }
  - { offsetInCU: 0x1A563, offset: 0x1A563, size: 0x8, addend: 0x0, symName: __ZNSt3__114__split_bufferIP5OrderRNS_9allocatorIS2_EEED2Ev, symObjAddr: 0x8D4C, symBinAddr: 0x10000BE48, symSize: 0x80 }
  - { offsetInCU: 0x1A58F, offset: 0x1A58F, size: 0x8, addend: 0x0, symName: __ZNSt3__114__split_bufferIP5OrderRNS_9allocatorIS2_EEE5clearB8ue170006Ev, symObjAddr: 0x8DCC, symBinAddr: 0x10000BEC8, symSize: 0x28 }
  - { offsetInCU: 0x1A5B5, offset: 0x1A5B5, size: 0x8, addend: 0x0, symName: __ZNKSt3__114__split_bufferIP5OrderRNS_9allocatorIS2_EEE8capacityB8ue170006Ev, symObjAddr: 0x8DF4, symBinAddr: 0x10000BEF0, symSize: 0x40 }
  - { offsetInCU: 0x1A5DB, offset: 0x1A5DB, size: 0x8, addend: 0x0, symName: __ZNSt3__114__split_bufferIP5OrderRNS_9allocatorIS2_EEE17__destruct_at_endB8ue170006EPS2_, symObjAddr: 0x8E34, symBinAddr: 0x10000BF30, symSize: 0x2C }
  - { offsetInCU: 0x1A60F, offset: 0x1A60F, size: 0x8, addend: 0x0, symName: __ZNSt3__114__split_bufferIP5OrderRNS_9allocatorIS2_EEE17__destruct_at_endB8ue170006EPS2_NS_17integral_constantIbLb0EEE, symObjAddr: 0x8E60, symBinAddr: 0x10000BF5C, symSize: 0x94 }
  - { offsetInCU: 0x1A64F, offset: 0x1A64F, size: 0x8, addend: 0x0, symName: __ZNKSt3__114__split_bufferIP5OrderRNS_9allocatorIS2_EEE9__end_capB8ue170006Ev, symObjAddr: 0x8EF4, symBinAddr: 0x10000BFF0, symSize: 0x28 }
  - { offsetInCU: 0x1A675, offset: 0x1A675, size: 0x8, addend: 0x0, symName: __ZNKSt3__117__compressed_pairIPP5OrderRNS_9allocatorIS2_EEE5firstB8ue170006Ev, symObjAddr: 0x8F1C, symBinAddr: 0x10000C018, symSize: 0x24 }
  - { offsetInCU: 0x1A69B, offset: 0x1A69B, size: 0x8, addend: 0x0, symName: __ZNKSt3__16vectorIP5OrderNS_9allocatorIS2_EEE17__annotate_shrinkB8ue170006Em, symObjAddr: 0x8F40, symBinAddr: 0x10000C03C, symSize: 0xB4 }
  - { offsetInCU: 0x1A6D0, offset: 0x1A6D0, size: 0x8, addend: 0x0, symName: __ZNSt3__16vectorIiNS_9allocatorIiEEE9__end_capB8ue170006Ev, symObjAddr: 0x8FF4, symBinAddr: 0x10000C0F0, symSize: 0x28 }
  - { offsetInCU: 0x1A6F6, offset: 0x1A6F6, size: 0x8, addend: 0x0, symName: __ZNSt3__16vectorIiNS_9allocatorIiEEE22__construct_one_at_endB8ue170006IJRKiEEEvDpOT_, symObjAddr: 0x901C, symBinAddr: 0x10000C118, symSize: 0x98 }
  - { offsetInCU: 0x1A745, offset: 0x1A745, size: 0x8, addend: 0x0, symName: __ZNSt3__16vectorIiNS_9allocatorIiEEE21__push_back_slow_pathIRKiEEvOT_, symObjAddr: 0x90B4, symBinAddr: 0x10000C1B0, symSize: 0xE0 }
  - { offsetInCU: 0x1A7A3, offset: 0x1A7A3, size: 0x8, addend: 0x0, symName: __ZNSt3__117__compressed_pairIPiNS_9allocatorIiEEE5firstB8ue170006Ev, symObjAddr: 0x9194, symBinAddr: 0x10000C290, symSize: 0x24 }
  - { offsetInCU: 0x1A7C9, offset: 0x1A7C9, size: 0x8, addend: 0x0, symName: __ZNSt3__122__compressed_pair_elemIPiLi0ELb0EE5__getB8ue170006Ev, symObjAddr: 0x91B8, symBinAddr: 0x10000C2B4, symSize: 0x14 }
  - { offsetInCU: 0x1A808, offset: 0x1A808, size: 0x8, addend: 0x0, symName: __ZNSt3__16vectorIiNS_9allocatorIiEEE21_ConstructTransactionC1B8ue170006ERS3_m, symObjAddr: 0x91CC, symBinAddr: 0x10000C2C8, symSize: 0x3C }
  - { offsetInCU: 0x1A850, offset: 0x1A850, size: 0x8, addend: 0x0, symName: __ZNSt3__116allocator_traitsINS_9allocatorIiEEE9constructB8ue170006IiJRKiEvEEvRS2_PT_DpOT0_, symObjAddr: 0x9208, symBinAddr: 0x10000C304, symSize: 0x34 }
  - { offsetInCU: 0x1A8A7, offset: 0x1A8A7, size: 0x8, addend: 0x0, symName: __ZNSt3__16vectorIiNS_9allocatorIiEEE21_ConstructTransactionD1B8ue170006Ev, symObjAddr: 0x923C, symBinAddr: 0x10000C338, symSize: 0x2C }
  - { offsetInCU: 0x1A8D1, offset: 0x1A8D1, size: 0x8, addend: 0x0, symName: __ZNSt3__16vectorIiNS_9allocatorIiEEE21_ConstructTransactionC2B8ue170006ERS3_m, symObjAddr: 0x9268, symBinAddr: 0x10000C364, symSize: 0x44 }
  - { offsetInCU: 0x1A919, offset: 0x1A919, size: 0x8, addend: 0x0, symName: __ZNSt3__19allocatorIiE9constructB8ue170006IiJRKiEEEvPT_DpOT0_, symObjAddr: 0x92AC, symBinAddr: 0x10000C3A8, symSize: 0x28 }
  - { offsetInCU: 0x1A96F, offset: 0x1A96F, size: 0x8, addend: 0x0, symName: __ZNSt3__16vectorIiNS_9allocatorIiEEE21_ConstructTransactionD2B8ue170006Ev, symObjAddr: 0x92D4, symBinAddr: 0x10000C3D0, symSize: 0x20 }
  - { offsetInCU: 0x1A999, offset: 0x1A999, size: 0x8, addend: 0x0, symName: __ZNKSt3__16vectorIiNS_9allocatorIiEEE11__recommendB8ue170006Em, symObjAddr: 0x92F4, symBinAddr: 0x10000C3F0, symSize: 0xB4 }
  - { offsetInCU: 0x1A9EE, offset: 0x1A9EE, size: 0x8, addend: 0x0, symName: __ZNSt3__114__split_bufferIiRNS_9allocatorIiEEEC1EmmS3_, symObjAddr: 0x93A8, symBinAddr: 0x10000C4A4, symSize: 0x44 }
  - { offsetInCU: 0x1AA44, offset: 0x1AA44, size: 0x8, addend: 0x0, symName: __ZNSt3__114__split_bufferIiRNS_9allocatorIiEEED1Ev, symObjAddr: 0x94FC, symBinAddr: 0x10000C5F8, symSize: 0x2C }
  - { offsetInCU: 0x1AA70, offset: 0x1AA70, size: 0x8, addend: 0x0, symName: __ZNKSt3__16vectorIiNS_9allocatorIiEEE8max_sizeEv, symObjAddr: 0x9528, symBinAddr: 0x10000C624, symSize: 0x74 }
  - { offsetInCU: 0x1AA98, offset: 0x1AA98, size: 0x8, addend: 0x0, symName: __ZNKSt3__16vectorIiNS_9allocatorIiEEE20__throw_length_errorB8ue170006Ev, symObjAddr: 0x959C, symBinAddr: 0x10000C698, symSize: 0x1C }
  - { offsetInCU: 0x1AAC8, offset: 0x1AAC8, size: 0x8, addend: 0x0, symName: __ZNSt3__116allocator_traitsINS_9allocatorIiEEE8max_sizeB8ue170006IS2_vEEmRKS2_, symObjAddr: 0x95B8, symBinAddr: 0x10000C6B4, symSize: 0x24 }
  - { offsetInCU: 0x1AAF6, offset: 0x1AAF6, size: 0x8, addend: 0x0, symName: __ZNKSt3__16vectorIiNS_9allocatorIiEEE7__allocB8ue170006Ev, symObjAddr: 0x95DC, symBinAddr: 0x10000C6D8, symSize: 0x28 }
  - { offsetInCU: 0x1AB1C, offset: 0x1AB1C, size: 0x8, addend: 0x0, symName: __ZNKSt3__19allocatorIiE8max_sizeB8ue170006Ev, symObjAddr: 0x9604, symBinAddr: 0x10000C700, symSize: 0x14 }
  - { offsetInCU: 0x1AB42, offset: 0x1AB42, size: 0x8, addend: 0x0, symName: __ZNKSt3__117__compressed_pairIPiNS_9allocatorIiEEE6secondB8ue170006Ev, symObjAddr: 0x9618, symBinAddr: 0x10000C714, symSize: 0x24 }
  - { offsetInCU: 0x1AB68, offset: 0x1AB68, size: 0x8, addend: 0x0, symName: __ZNKSt3__122__compressed_pair_elemINS_9allocatorIiEELi1ELb1EE5__getB8ue170006Ev, symObjAddr: 0x963C, symBinAddr: 0x10000C738, symSize: 0x14 }
  - { offsetInCU: 0x1AB8E, offset: 0x1AB8E, size: 0x8, addend: 0x0, symName: __ZNSt3__114__split_bufferIiRNS_9allocatorIiEEEC2EmmS3_, symObjAddr: 0x9650, symBinAddr: 0x10000C74C, symSize: 0xD4 }
  - { offsetInCU: 0x1AC01, offset: 0x1AC01, size: 0x8, addend: 0x0, symName: __ZNSt3__117__compressed_pairIPiRNS_9allocatorIiEEEC1B8ue170006IDnS4_EEOT_OT0_, symObjAddr: 0x9724, symBinAddr: 0x10000C820, symSize: 0x3C }
  - { offsetInCU: 0x1AC59, offset: 0x1AC59, size: 0x8, addend: 0x0, symName: __ZNSt3__114__split_bufferIiRNS_9allocatorIiEEE7__allocB8ue170006Ev, symObjAddr: 0x97A0, symBinAddr: 0x10000C89C, symSize: 0x28 }
  - { offsetInCU: 0x1AC7F, offset: 0x1AC7F, size: 0x8, addend: 0x0, symName: __ZNSt3__114__split_bufferIiRNS_9allocatorIiEEE9__end_capB8ue170006Ev, symObjAddr: 0x97C8, symBinAddr: 0x10000C8C4, symSize: 0x28 }
  - { offsetInCU: 0x1ACA5, offset: 0x1ACA5, size: 0x8, addend: 0x0, symName: __ZNSt3__117__compressed_pairIPiRNS_9allocatorIiEEEC2B8ue170006IDnS4_EEOT_OT0_, symObjAddr: 0x97F0, symBinAddr: 0x10000C8EC, symSize: 0x48 }
  - { offsetInCU: 0x1ACFD, offset: 0x1ACFD, size: 0x8, addend: 0x0, symName: __ZNSt3__122__compressed_pair_elemIRNS_9allocatorIiEELi1ELb0EEC2B8ue170006IS3_vEEOT_, symObjAddr: 0x9838, symBinAddr: 0x10000C934, symSize: 0x20 }
  - { offsetInCU: 0x1AD3F, offset: 0x1AD3F, size: 0x8, addend: 0x0, symName: __ZNSt3__19allocatorIiE8allocateB8ue170006Em, symObjAddr: 0x9858, symBinAddr: 0x10000C954, symSize: 0x84 }
  - { offsetInCU: 0x1AD73, offset: 0x1AD73, size: 0x8, addend: 0x0, symName: __ZNSt3__117__compressed_pairIPiRNS_9allocatorIiEEE6secondB8ue170006Ev, symObjAddr: 0x98DC, symBinAddr: 0x10000C9D8, symSize: 0x28 }
  - { offsetInCU: 0x1AD99, offset: 0x1AD99, size: 0x8, addend: 0x0, symName: __ZNSt3__122__compressed_pair_elemIRNS_9allocatorIiEELi1ELb0EE5__getB8ue170006Ev, symObjAddr: 0x9904, symBinAddr: 0x10000CA00, symSize: 0x18 }
  - { offsetInCU: 0x1ADBF, offset: 0x1ADBF, size: 0x8, addend: 0x0, symName: __ZNSt3__117__compressed_pairIPiRNS_9allocatorIiEEE5firstB8ue170006Ev, symObjAddr: 0x991C, symBinAddr: 0x10000CA18, symSize: 0x24 }
  - { offsetInCU: 0x1ADE5, offset: 0x1ADE5, size: 0x8, addend: 0x0, symName: __ZNSt3__116reverse_iteratorIPiEC1B8ue170006ES1_, symObjAddr: 0x9A28, symBinAddr: 0x10000CB24, symSize: 0x34 }
  - { offsetInCU: 0x1AE1D, offset: 0x1AE1D, size: 0x8, addend: 0x0, symName: __ZNKSt3__116reverse_iteratorIPiE4baseB8ue170006Ev, symObjAddr: 0x9A5C, symBinAddr: 0x10000CB58, symSize: 0x18 }
  - { offsetInCU: 0x1AE43, offset: 0x1AE43, size: 0x8, addend: 0x0, symName: __ZNKSt3__16vectorIiNS_9allocatorIiEEE14__annotate_newB8ue170006Em, symObjAddr: 0x9AB0, symBinAddr: 0x10000CBAC, symSize: 0xAC }
  - { offsetInCU: 0x1AE78, offset: 0x1AE78, size: 0x8, addend: 0x0, symName: __ZNKSt3__116reverse_iteratorIPiEdeB8ue170006Ev, symObjAddr: 0x9BF4, symBinAddr: 0x10000CCF0, symSize: 0x28 }
  - { offsetInCU: 0x1AEAC, offset: 0x1AEAC, size: 0x8, addend: 0x0, symName: __ZNSt3__116reverse_iteratorIPiEppB8ue170006Ev, symObjAddr: 0x9C1C, symBinAddr: 0x10000CD18, symSize: 0x20 }
  - { offsetInCU: 0x1AED7, offset: 0x1AED7, size: 0x8, addend: 0x0, symName: __ZNSt3__119__to_address_helperINS_16reverse_iteratorIPiEEvE6__callB8ue170006ERKS3_, symObjAddr: 0x9CB4, symBinAddr: 0x10000CDB0, symSize: 0x4C }
  - { offsetInCU: 0x1AEFA, offset: 0x1AEFA, size: 0x8, addend: 0x0, symName: __ZNKSt3__116reverse_iteratorIPiEptB8ue170006Ev, symObjAddr: 0x9D00, symBinAddr: 0x10000CDFC, symSize: 0x24 }
  - { offsetInCU: 0x1AF3A, offset: 0x1AF3A, size: 0x8, addend: 0x0, symName: __ZNKSt3__111__move_loopINS_17_ClassicAlgPolicyEEclB8ue170006INS_16reverse_iteratorIPiEES6_S6_EENS_4pairIT_T1_EES8_T0_S9_, symObjAddr: 0x9F9C, symBinAddr: 0x10000D098, symSize: 0xA0 }
  - { offsetInCU: 0x1AFAB, offset: 0x1AFAB, size: 0x8, addend: 0x0, symName: __ZNSt3__18_IterOpsINS_17_ClassicAlgPolicyEE11__iter_moveB8ue170006IRNS_16reverse_iteratorIPiEEEENS_9enable_ifIXsr12is_referenceIDTdeclsr3stdE7declvalIRT_EEEEE5valueEDTclsr3stdE4movedeclsr3stdE7declvalISA_EEEEE4typeEOS9_, symObjAddr: 0xA19C, symBinAddr: 0x10000D298, symSize: 0x28 }
  - { offsetInCU: 0x1AFD7, offset: 0x1AFD7, size: 0x8, addend: 0x0, symName: __ZNSt3__18_IterOpsINS_17_ClassicAlgPolicyEE25__validate_iter_referenceB8ue170006IRNS_16reverse_iteratorIPiEEEEvv, symObjAddr: 0xA1C4, symBinAddr: 0x10000D2C0, symSize: 0x4 }
  - { offsetInCU: 0x1AFF5, offset: 0x1AFF5, size: 0x8, addend: 0x0, symName: __ZNSt3__118__unwrap_iter_implINS_16reverse_iteratorIPiEELb0EE8__unwrapB8ue170006ES3_, symObjAddr: 0xA1C8, symBinAddr: 0x10000D2C4, symSize: 0x24 }
  - { offsetInCU: 0x1B018, offset: 0x1B018, size: 0x8, addend: 0x0, symName: __ZNSt3__14pairINS_16reverse_iteratorIPiEES3_EC1B8ue170006ERKS3_S6_, symObjAddr: 0xA1EC, symBinAddr: 0x10000D2E8, symSize: 0x3C }
  - { offsetInCU: 0x1B05E, offset: 0x1B05E, size: 0x8, addend: 0x0, symName: __ZNSt3__14pairINS_16reverse_iteratorIPiEES3_EC2B8ue170006ERKS3_S6_, symObjAddr: 0xA228, symBinAddr: 0x10000D324, symSize: 0x34 }
  - { offsetInCU: 0x1B0A4, offset: 0x1B0A4, size: 0x8, addend: 0x0, symName: __ZNSt3__118__unwrap_iter_implINS_16reverse_iteratorIPiEELb0EE8__rewrapB8ue170006ES3_S3_, symObjAddr: 0xA25C, symBinAddr: 0x10000D358, symSize: 0x2C }
  - { offsetInCU: 0x1B0D1, offset: 0x1B0D1, size: 0x8, addend: 0x0, symName: __ZNSt3__116reverse_iteratorIPiEC2B8ue170006ES1_, symObjAddr: 0xA288, symBinAddr: 0x10000D384, symSize: 0x28 }
  - { offsetInCU: 0x1B109, offset: 0x1B109, size: 0x8, addend: 0x0, symName: __ZNSt3__114__split_bufferIiRNS_9allocatorIiEEED2Ev, symObjAddr: 0xA2B0, symBinAddr: 0x10000D3AC, symSize: 0x80 }
  - { offsetInCU: 0x1B135, offset: 0x1B135, size: 0x8, addend: 0x0, symName: __ZNSt3__114__split_bufferIiRNS_9allocatorIiEEE5clearB8ue170006Ev, symObjAddr: 0xA330, symBinAddr: 0x10000D42C, symSize: 0x28 }
  - { offsetInCU: 0x1B15B, offset: 0x1B15B, size: 0x8, addend: 0x0, symName: __ZNKSt3__114__split_bufferIiRNS_9allocatorIiEEE8capacityB8ue170006Ev, symObjAddr: 0xA358, symBinAddr: 0x10000D454, symSize: 0x40 }
  - { offsetInCU: 0x1B181, offset: 0x1B181, size: 0x8, addend: 0x0, symName: __ZNSt3__114__split_bufferIiRNS_9allocatorIiEEE17__destruct_at_endB8ue170006EPi, symObjAddr: 0xA398, symBinAddr: 0x10000D494, symSize: 0x2C }
  - { offsetInCU: 0x1B1B5, offset: 0x1B1B5, size: 0x8, addend: 0x0, symName: __ZNSt3__114__split_bufferIiRNS_9allocatorIiEEE17__destruct_at_endB8ue170006EPiNS_17integral_constantIbLb0EEE, symObjAddr: 0xA3C4, symBinAddr: 0x10000D4C0, symSize: 0x94 }
  - { offsetInCU: 0x1B1F5, offset: 0x1B1F5, size: 0x8, addend: 0x0, symName: __ZNKSt3__114__split_bufferIiRNS_9allocatorIiEEE9__end_capB8ue170006Ev, symObjAddr: 0xA458, symBinAddr: 0x10000D554, symSize: 0x28 }
  - { offsetInCU: 0x1B21B, offset: 0x1B21B, size: 0x8, addend: 0x0, symName: __ZNKSt3__117__compressed_pairIPiRNS_9allocatorIiEEE5firstB8ue170006Ev, symObjAddr: 0xA480, symBinAddr: 0x10000D57C, symSize: 0x24 }
  - { offsetInCU: 0x1B241, offset: 0x1B241, size: 0x8, addend: 0x0, symName: __ZNSt3__14pairIiiEC2B8ue170006ERKiS3_, symObjAddr: 0xA4A4, symBinAddr: 0x10000D5A0, symSize: 0x34 }
  - { offsetInCU: 0x1B287, offset: 0x1B287, size: 0x8, addend: 0x0, symName: __ZNSt3__16vectorINS_4pairIiiEENS_9allocatorIS2_EEE9__end_capB8ue170006Ev, symObjAddr: 0xA4D8, symBinAddr: 0x10000D5D4, symSize: 0x28 }
  - { offsetInCU: 0x1B2AD, offset: 0x1B2AD, size: 0x8, addend: 0x0, symName: __ZNSt3__16vectorINS_4pairIiiEENS_9allocatorIS2_EEE22__construct_one_at_endB8ue170006IJS2_EEEvDpOT_, symObjAddr: 0xA500, symBinAddr: 0x10000D5FC, symSize: 0x98 }
  - { offsetInCU: 0x1B2FC, offset: 0x1B2FC, size: 0x8, addend: 0x0, symName: __ZNSt3__16vectorINS_4pairIiiEENS_9allocatorIS2_EEE21__push_back_slow_pathIS2_EEvOT_, symObjAddr: 0xA598, symBinAddr: 0x10000D694, symSize: 0xE0 }
  - { offsetInCU: 0x1B35A, offset: 0x1B35A, size: 0x8, addend: 0x0, symName: __ZNSt3__117__compressed_pairIPNS_4pairIiiEENS_9allocatorIS2_EEE5firstB8ue170006Ev, symObjAddr: 0xA678, symBinAddr: 0x10000D774, symSize: 0x24 }
  - { offsetInCU: 0x1B380, offset: 0x1B380, size: 0x8, addend: 0x0, symName: __ZNSt3__122__compressed_pair_elemIPNS_4pairIiiEELi0ELb0EE5__getB8ue170006Ev, symObjAddr: 0xA69C, symBinAddr: 0x10000D798, symSize: 0x14 }
  - { offsetInCU: 0x1B3BF, offset: 0x1B3BF, size: 0x8, addend: 0x0, symName: __ZNSt3__16vectorINS_4pairIiiEENS_9allocatorIS2_EEE21_ConstructTransactionC1B8ue170006ERS5_m, symObjAddr: 0xA6B0, symBinAddr: 0x10000D7AC, symSize: 0x3C }
  - { offsetInCU: 0x1B407, offset: 0x1B407, size: 0x8, addend: 0x0, symName: __ZNSt3__116allocator_traitsINS_9allocatorINS_4pairIiiEEEEE9constructB8ue170006IS3_JS3_EvEEvRS4_PT_DpOT0_, symObjAddr: 0xA6EC, symBinAddr: 0x10000D7E8, symSize: 0x34 }
  - { offsetInCU: 0x1B45E, offset: 0x1B45E, size: 0x8, addend: 0x0, symName: __ZNSt3__16vectorINS_4pairIiiEENS_9allocatorIS2_EEE21_ConstructTransactionD1B8ue170006Ev, symObjAddr: 0xA720, symBinAddr: 0x10000D81C, symSize: 0x2C }
  - { offsetInCU: 0x1B488, offset: 0x1B488, size: 0x8, addend: 0x0, symName: __ZNSt3__16vectorINS_4pairIiiEENS_9allocatorIS2_EEE21_ConstructTransactionC2B8ue170006ERS5_m, symObjAddr: 0xA74C, symBinAddr: 0x10000D848, symSize: 0x44 }
  - { offsetInCU: 0x1B4D0, offset: 0x1B4D0, size: 0x8, addend: 0x0, symName: __ZNSt3__19allocatorINS_4pairIiiEEE9constructB8ue170006IS2_JS2_EEEvPT_DpOT0_, symObjAddr: 0xA790, symBinAddr: 0x10000D88C, symSize: 0x28 }
  - { offsetInCU: 0x1B526, offset: 0x1B526, size: 0x8, addend: 0x0, symName: __ZNSt3__16vectorINS_4pairIiiEENS_9allocatorIS2_EEE21_ConstructTransactionD2B8ue170006Ev, symObjAddr: 0xA7B8, symBinAddr: 0x10000D8B4, symSize: 0x20 }
  - { offsetInCU: 0x1B550, offset: 0x1B550, size: 0x8, addend: 0x0, symName: __ZNKSt3__16vectorINS_4pairIiiEENS_9allocatorIS2_EEE11__recommendB8ue170006Em, symObjAddr: 0xA7D8, symBinAddr: 0x10000D8D4, symSize: 0xB4 }
  - { offsetInCU: 0x1B5A5, offset: 0x1B5A5, size: 0x8, addend: 0x0, symName: __ZNSt3__114__split_bufferINS_4pairIiiEERNS_9allocatorIS2_EEEC1EmmS5_, symObjAddr: 0xA88C, symBinAddr: 0x10000D988, symSize: 0x44 }
  - { offsetInCU: 0x1B5FB, offset: 0x1B5FB, size: 0x8, addend: 0x0, symName: __ZNSt3__114__split_bufferINS_4pairIiiEERNS_9allocatorIS2_EEED1Ev, symObjAddr: 0xA9E0, symBinAddr: 0x10000DADC, symSize: 0x2C }
  - { offsetInCU: 0x1B627, offset: 0x1B627, size: 0x8, addend: 0x0, symName: __ZNKSt3__16vectorINS_4pairIiiEENS_9allocatorIS2_EEE8max_sizeEv, symObjAddr: 0xAA0C, symBinAddr: 0x10000DB08, symSize: 0x74 }
  - { offsetInCU: 0x1B64F, offset: 0x1B64F, size: 0x8, addend: 0x0, symName: __ZNKSt3__16vectorINS_4pairIiiEENS_9allocatorIS2_EEE20__throw_length_errorB8ue170006Ev, symObjAddr: 0xAA80, symBinAddr: 0x10000DB7C, symSize: 0x1C }
  - { offsetInCU: 0x1B67F, offset: 0x1B67F, size: 0x8, addend: 0x0, symName: __ZNSt3__116allocator_traitsINS_9allocatorINS_4pairIiiEEEEE8max_sizeB8ue170006IS4_vEEmRKS4_, symObjAddr: 0xAA9C, symBinAddr: 0x10000DB98, symSize: 0x24 }
  - { offsetInCU: 0x1B6AD, offset: 0x1B6AD, size: 0x8, addend: 0x0, symName: __ZNKSt3__16vectorINS_4pairIiiEENS_9allocatorIS2_EEE7__allocB8ue170006Ev, symObjAddr: 0xAAC0, symBinAddr: 0x10000DBBC, symSize: 0x28 }
  - { offsetInCU: 0x1B6D3, offset: 0x1B6D3, size: 0x8, addend: 0x0, symName: __ZNKSt3__19allocatorINS_4pairIiiEEE8max_sizeB8ue170006Ev, symObjAddr: 0xAAE8, symBinAddr: 0x10000DBE4, symSize: 0x14 }
  - { offsetInCU: 0x1B6F9, offset: 0x1B6F9, size: 0x8, addend: 0x0, symName: __ZNKSt3__117__compressed_pairIPNS_4pairIiiEENS_9allocatorIS2_EEE6secondB8ue170006Ev, symObjAddr: 0xAAFC, symBinAddr: 0x10000DBF8, symSize: 0x24 }
  - { offsetInCU: 0x1B71F, offset: 0x1B71F, size: 0x8, addend: 0x0, symName: __ZNKSt3__122__compressed_pair_elemINS_9allocatorINS_4pairIiiEEEELi1ELb1EE5__getB8ue170006Ev, symObjAddr: 0xAB20, symBinAddr: 0x10000DC1C, symSize: 0x14 }
  - { offsetInCU: 0x1B745, offset: 0x1B745, size: 0x8, addend: 0x0, symName: __ZNSt3__114__split_bufferINS_4pairIiiEERNS_9allocatorIS2_EEEC2EmmS5_, symObjAddr: 0xAB34, symBinAddr: 0x10000DC30, symSize: 0xD4 }
  - { offsetInCU: 0x1B7B8, offset: 0x1B7B8, size: 0x8, addend: 0x0, symName: __ZNSt3__117__compressed_pairIPNS_4pairIiiEERNS_9allocatorIS2_EEEC1B8ue170006IDnS6_EEOT_OT0_, symObjAddr: 0xAC08, symBinAddr: 0x10000DD04, symSize: 0x3C }
  - { offsetInCU: 0x1B810, offset: 0x1B810, size: 0x8, addend: 0x0, symName: __ZNSt3__114__split_bufferINS_4pairIiiEERNS_9allocatorIS2_EEE7__allocB8ue170006Ev, symObjAddr: 0xAC84, symBinAddr: 0x10000DD80, symSize: 0x28 }
  - { offsetInCU: 0x1B836, offset: 0x1B836, size: 0x8, addend: 0x0, symName: __ZNSt3__114__split_bufferINS_4pairIiiEERNS_9allocatorIS2_EEE9__end_capB8ue170006Ev, symObjAddr: 0xACAC, symBinAddr: 0x10000DDA8, symSize: 0x28 }
  - { offsetInCU: 0x1B85C, offset: 0x1B85C, size: 0x8, addend: 0x0, symName: __ZNSt3__117__compressed_pairIPNS_4pairIiiEERNS_9allocatorIS2_EEEC2B8ue170006IDnS6_EEOT_OT0_, symObjAddr: 0xACD4, symBinAddr: 0x10000DDD0, symSize: 0x48 }
  - { offsetInCU: 0x1B8B4, offset: 0x1B8B4, size: 0x8, addend: 0x0, symName: __ZNSt3__122__compressed_pair_elemIRNS_9allocatorINS_4pairIiiEEEELi1ELb0EEC2B8ue170006IS5_vEEOT_, symObjAddr: 0xAD1C, symBinAddr: 0x10000DE18, symSize: 0x20 }
  - { offsetInCU: 0x1B8F6, offset: 0x1B8F6, size: 0x8, addend: 0x0, symName: __ZNSt3__19allocatorINS_4pairIiiEEE8allocateB8ue170006Em, symObjAddr: 0xAD3C, symBinAddr: 0x10000DE38, symSize: 0x84 }
  - { offsetInCU: 0x1B92A, offset: 0x1B92A, size: 0x8, addend: 0x0, symName: __ZNSt3__117__compressed_pairIPNS_4pairIiiEERNS_9allocatorIS2_EEE6secondB8ue170006Ev, symObjAddr: 0xADC0, symBinAddr: 0x10000DEBC, symSize: 0x28 }
  - { offsetInCU: 0x1B950, offset: 0x1B950, size: 0x8, addend: 0x0, symName: __ZNSt3__122__compressed_pair_elemIRNS_9allocatorINS_4pairIiiEEEELi1ELb0EE5__getB8ue170006Ev, symObjAddr: 0xADE8, symBinAddr: 0x10000DEE4, symSize: 0x18 }
  - { offsetInCU: 0x1B976, offset: 0x1B976, size: 0x8, addend: 0x0, symName: __ZNSt3__117__compressed_pairIPNS_4pairIiiEERNS_9allocatorIS2_EEE5firstB8ue170006Ev, symObjAddr: 0xAE00, symBinAddr: 0x10000DEFC, symSize: 0x24 }
  - { offsetInCU: 0x1B99C, offset: 0x1B99C, size: 0x8, addend: 0x0, symName: __ZNSt3__116reverse_iteratorIPNS_4pairIiiEEEC1B8ue170006ES3_, symObjAddr: 0xAF58, symBinAddr: 0x10000E054, symSize: 0x34 }
  - { offsetInCU: 0x1B9D4, offset: 0x1B9D4, size: 0x8, addend: 0x0, symName: __ZNKSt3__116reverse_iteratorIPNS_4pairIiiEEE4baseB8ue170006Ev, symObjAddr: 0xAF8C, symBinAddr: 0x10000E088, symSize: 0x18 }
  - { offsetInCU: 0x1B9FA, offset: 0x1B9FA, size: 0x8, addend: 0x0, symName: __ZNKSt3__16vectorINS_4pairIiiEENS_9allocatorIS2_EEE14__annotate_newB8ue170006Em, symObjAddr: 0xAFE0, symBinAddr: 0x10000E0DC, symSize: 0xAC }
  - { offsetInCU: 0x1BA2F, offset: 0x1BA2F, size: 0x8, addend: 0x0, symName: __ZNSt3__129_AllocatorDestroyRangeReverseINS_9allocatorINS_4pairIiiEEEENS_16reverse_iteratorIPS3_EEEC1B8ue170006ERS4_RS7_SA_, symObjAddr: 0xB0D8, symBinAddr: 0x10000E1D4, symSize: 0x44 }
  - { offsetInCU: 0x1BA86, offset: 0x1BA86, size: 0x8, addend: 0x0, symName: __ZNKSt3__116reverse_iteratorIPNS_4pairIiiEEEdeB8ue170006Ev, symObjAddr: 0xB188, symBinAddr: 0x10000E284, symSize: 0x28 }
  - { offsetInCU: 0x1BABA, offset: 0x1BABA, size: 0x8, addend: 0x0, symName: __ZNSt3__116reverse_iteratorIPNS_4pairIiiEEEppB8ue170006Ev, symObjAddr: 0xB1B0, symBinAddr: 0x10000E2AC, symSize: 0x20 }
  - { offsetInCU: 0x1BAE0, offset: 0x1BAE0, size: 0x8, addend: 0x0, symName: __ZNSt3__128__exception_guard_exceptionsINS_29_AllocatorDestroyRangeReverseINS_9allocatorINS_4pairIiiEEEENS_16reverse_iteratorIPS4_EEEEE10__completeB8ue170006Ev, symObjAddr: 0xB1D0, symBinAddr: 0x10000E2CC, symSize: 0x1C }
  - { offsetInCU: 0x1BB06, offset: 0x1BB06, size: 0x8, addend: 0x0, symName: __ZNSt3__128__exception_guard_exceptionsINS_29_AllocatorDestroyRangeReverseINS_9allocatorINS_4pairIiiEEEENS_16reverse_iteratorIPS4_EEEEED1B8ue170006Ev, symObjAddr: 0xB1EC, symBinAddr: 0x10000E2E8, symSize: 0x2C }
  - { offsetInCU: 0x1BB30, offset: 0x1BB30, size: 0x8, addend: 0x0, symName: __ZNSt3__128__exception_guard_exceptionsINS_29_AllocatorDestroyRangeReverseINS_9allocatorINS_4pairIiiEEEENS_16reverse_iteratorIPS4_EEEEEC1B8ue170006ES9_, symObjAddr: 0xB218, symBinAddr: 0x10000E314, symSize: 0x34 }
  - { offsetInCU: 0x1BB69, offset: 0x1BB69, size: 0x8, addend: 0x0, symName: __ZNSt3__128__exception_guard_exceptionsINS_29_AllocatorDestroyRangeReverseINS_9allocatorINS_4pairIiiEEEENS_16reverse_iteratorIPS4_EEEEEC2B8ue170006ES9_, symObjAddr: 0xB24C, symBinAddr: 0x10000E348, symSize: 0x30 }
  - { offsetInCU: 0x1BBA2, offset: 0x1BBA2, size: 0x8, addend: 0x0, symName: __ZNSt3__129_AllocatorDestroyRangeReverseINS_9allocatorINS_4pairIiiEEEENS_16reverse_iteratorIPS3_EEEC2B8ue170006ERS4_RS7_SA_, symObjAddr: 0xB27C, symBinAddr: 0x10000E378, symSize: 0x38 }
  - { offsetInCU: 0x1BBFE, offset: 0x1BBFE, size: 0x8, addend: 0x0, symName: __ZNSt3__119__to_address_helperINS_16reverse_iteratorIPNS_4pairIiiEEEEvE6__callB8ue170006ERKS5_, symObjAddr: 0xB2B4, symBinAddr: 0x10000E3B0, symSize: 0x4C }
  - { offsetInCU: 0x1BC21, offset: 0x1BC21, size: 0x8, addend: 0x0, symName: __ZNKSt3__116reverse_iteratorIPNS_4pairIiiEEEptB8ue170006Ev, symObjAddr: 0xB300, symBinAddr: 0x10000E3FC, symSize: 0x24 }
  - { offsetInCU: 0x1BC47, offset: 0x1BC47, size: 0x8, addend: 0x0, symName: __ZNSt3__128__exception_guard_exceptionsINS_29_AllocatorDestroyRangeReverseINS_9allocatorINS_4pairIiiEEEENS_16reverse_iteratorIPS4_EEEEED2B8ue170006Ev, symObjAddr: 0xB324, symBinAddr: 0x10000E420, symSize: 0x48 }
  - { offsetInCU: 0x1BC71, offset: 0x1BC71, size: 0x8, addend: 0x0, symName: __ZNKSt3__129_AllocatorDestroyRangeReverseINS_9allocatorINS_4pairIiiEEEENS_16reverse_iteratorIPS3_EEEclB8ue170006Ev, symObjAddr: 0xB36C, symBinAddr: 0x10000E468, symSize: 0xB4 }
  - { offsetInCU: 0x1BC98, offset: 0x1BC98, size: 0x8, addend: 0x0, symName: __ZNSt3__116reverse_iteratorINS0_IPNS_4pairIiiEEEEEC1B8ue170006ES4_, symObjAddr: 0xB490, symBinAddr: 0x10000E58C, symSize: 0x3C }
  - { offsetInCU: 0x1BCD0, offset: 0x1BCD0, size: 0x8, addend: 0x0, symName: __ZNSt3__116reverse_iteratorINS0_IPNS_4pairIiiEEEEEppB8ue170006Ev, symObjAddr: 0xB550, symBinAddr: 0x10000E64C, symSize: 0x30 }
  - { offsetInCU: 0x1BCF6, offset: 0x1BCF6, size: 0x8, addend: 0x0, symName: __ZNKSt3__116reverse_iteratorINS0_IPNS_4pairIiiEEEEE4baseB8ue170006Ev, symObjAddr: 0xB580, symBinAddr: 0x10000E67C, symSize: 0x24 }
  - { offsetInCU: 0x1BD21, offset: 0x1BD21, size: 0x8, addend: 0x0, symName: __ZNSt3__119__to_address_helperINS_16reverse_iteratorINS1_IPNS_4pairIiiEEEEEEvE6__callB8ue170006ERKS6_, symObjAddr: 0xB5A4, symBinAddr: 0x10000E6A0, symSize: 0x4C }
  - { offsetInCU: 0x1BD44, offset: 0x1BD44, size: 0x8, addend: 0x0, symName: __ZNKSt3__116reverse_iteratorINS0_IPNS_4pairIiiEEEEEptB8ue170006Ev, symObjAddr: 0xB5F0, symBinAddr: 0x10000E6EC, symSize: 0x24 }
  - { offsetInCU: 0x1BD6A, offset: 0x1BD6A, size: 0x8, addend: 0x0, symName: __ZNKSt3__116reverse_iteratorINS0_IPNS_4pairIiiEEEEEdeB8ue170006Ev, symObjAddr: 0xB614, symBinAddr: 0x10000E710, symSize: 0x34 }
  - { offsetInCU: 0x1BD9E, offset: 0x1BD9E, size: 0x8, addend: 0x0, symName: __ZNSt3__116reverse_iteratorIPNS_4pairIiiEEEmmB8ue170006Ev, symObjAddr: 0xB648, symBinAddr: 0x10000E744, symSize: 0x20 }
  - { offsetInCU: 0x1BDC4, offset: 0x1BDC4, size: 0x8, addend: 0x0, symName: __ZNSt3__116reverse_iteratorINS0_IPNS_4pairIiiEEEEEC2B8ue170006ES4_, symObjAddr: 0xB668, symBinAddr: 0x10000E764, symSize: 0x2C }
  - { offsetInCU: 0x1BDFC, offset: 0x1BDFC, size: 0x8, addend: 0x0, symName: __ZNSt3__116reverse_iteratorIPNS_4pairIiiEEEC2B8ue170006ES3_, symObjAddr: 0xB694, symBinAddr: 0x10000E790, symSize: 0x28 }
  - { offsetInCU: 0x1BE34, offset: 0x1BE34, size: 0x8, addend: 0x0, symName: __ZNSt3__114__split_bufferINS_4pairIiiEERNS_9allocatorIS2_EEED2Ev, symObjAddr: 0xB6BC, symBinAddr: 0x10000E7B8, symSize: 0x80 }
  - { offsetInCU: 0x1BE60, offset: 0x1BE60, size: 0x8, addend: 0x0, symName: __ZNSt3__114__split_bufferINS_4pairIiiEERNS_9allocatorIS2_EEE5clearB8ue170006Ev, symObjAddr: 0xB73C, symBinAddr: 0x10000E838, symSize: 0x28 }
  - { offsetInCU: 0x1BE86, offset: 0x1BE86, size: 0x8, addend: 0x0, symName: __ZNKSt3__114__split_bufferINS_4pairIiiEERNS_9allocatorIS2_EEE8capacityB8ue170006Ev, symObjAddr: 0xB764, symBinAddr: 0x10000E860, symSize: 0x40 }
  - { offsetInCU: 0x1BEAC, offset: 0x1BEAC, size: 0x8, addend: 0x0, symName: __ZNSt3__114__split_bufferINS_4pairIiiEERNS_9allocatorIS2_EEE17__destruct_at_endB8ue170006EPS2_, symObjAddr: 0xB7A4, symBinAddr: 0x10000E8A0, symSize: 0x2C }
  - { offsetInCU: 0x1BEE0, offset: 0x1BEE0, size: 0x8, addend: 0x0, symName: __ZNSt3__114__split_bufferINS_4pairIiiEERNS_9allocatorIS2_EEE17__destruct_at_endB8ue170006EPS2_NS_17integral_constantIbLb0EEE, symObjAddr: 0xB7D0, symBinAddr: 0x10000E8CC, symSize: 0x94 }
  - { offsetInCU: 0x1BF20, offset: 0x1BF20, size: 0x8, addend: 0x0, symName: __ZNKSt3__114__split_bufferINS_4pairIiiEERNS_9allocatorIS2_EEE9__end_capB8ue170006Ev, symObjAddr: 0xB864, symBinAddr: 0x10000E960, symSize: 0x28 }
  - { offsetInCU: 0x1BF46, offset: 0x1BF46, size: 0x8, addend: 0x0, symName: __ZNKSt3__117__compressed_pairIPNS_4pairIiiEERNS_9allocatorIS2_EEE5firstB8ue170006Ev, symObjAddr: 0xB88C, symBinAddr: 0x10000E988, symSize: 0x24 }
  - { offsetInCU: 0x1BF6C, offset: 0x1BF6C, size: 0x8, addend: 0x0, symName: __ZNSt3__14pairIiP4EdgeEC2B8ue170006ERKiRKS2_, symObjAddr: 0xB8B0, symBinAddr: 0x10000E9AC, symSize: 0x34 }
  - { offsetInCU: 0x1BFB2, offset: 0x1BFB2, size: 0x8, addend: 0x0, symName: __ZNSt3__16vectorINS_4pairIiP4EdgeEENS_9allocatorIS4_EEE9__end_capB8ue170006Ev, symObjAddr: 0xB8E4, symBinAddr: 0x10000E9E0, symSize: 0x28 }
  - { offsetInCU: 0x1BFD8, offset: 0x1BFD8, size: 0x8, addend: 0x0, symName: __ZNSt3__16vectorINS_4pairIiP4EdgeEENS_9allocatorIS4_EEE22__construct_one_at_endB8ue170006IJS4_EEEvDpOT_, symObjAddr: 0xB90C, symBinAddr: 0x10000EA08, symSize: 0x98 }
  - { offsetInCU: 0x1C027, offset: 0x1C027, size: 0x8, addend: 0x0, symName: __ZNSt3__16vectorINS_4pairIiP4EdgeEENS_9allocatorIS4_EEE21__push_back_slow_pathIS4_EEvOT_, symObjAddr: 0xB9A4, symBinAddr: 0x10000EAA0, symSize: 0xE0 }
  - { offsetInCU: 0x1C085, offset: 0x1C085, size: 0x8, addend: 0x0, symName: __ZNSt3__117__compressed_pairIPNS_4pairIiP4EdgeEENS_9allocatorIS4_EEE5firstB8ue170006Ev, symObjAddr: 0xBA84, symBinAddr: 0x10000EB80, symSize: 0x24 }
  - { offsetInCU: 0x1C0AB, offset: 0x1C0AB, size: 0x8, addend: 0x0, symName: __ZNSt3__122__compressed_pair_elemIPNS_4pairIiP4EdgeEELi0ELb0EE5__getB8ue170006Ev, symObjAddr: 0xBAA8, symBinAddr: 0x10000EBA4, symSize: 0x14 }
  - { offsetInCU: 0x1C0EA, offset: 0x1C0EA, size: 0x8, addend: 0x0, symName: __ZNSt3__16vectorINS_4pairIiP4EdgeEENS_9allocatorIS4_EEE21_ConstructTransactionC1B8ue170006ERS7_m, symObjAddr: 0xBABC, symBinAddr: 0x10000EBB8, symSize: 0x3C }
  - { offsetInCU: 0x1C132, offset: 0x1C132, size: 0x8, addend: 0x0, symName: __ZNSt3__116allocator_traitsINS_9allocatorINS_4pairIiP4EdgeEEEEE9constructB8ue170006IS5_JS5_EvEEvRS6_PT_DpOT0_, symObjAddr: 0xBAF8, symBinAddr: 0x10000EBF4, symSize: 0x34 }
  - { offsetInCU: 0x1C189, offset: 0x1C189, size: 0x8, addend: 0x0, symName: __ZNSt3__16vectorINS_4pairIiP4EdgeEENS_9allocatorIS4_EEE7__allocB8ue170006Ev, symObjAddr: 0xBB2C, symBinAddr: 0x10000EC28, symSize: 0x28 }
  - { offsetInCU: 0x1C1AF, offset: 0x1C1AF, size: 0x8, addend: 0x0, symName: __ZNSt3__16vectorINS_4pairIiP4EdgeEENS_9allocatorIS4_EEE21_ConstructTransactionD1B8ue170006Ev, symObjAddr: 0xBB68, symBinAddr: 0x10000EC64, symSize: 0x2C }
  - { offsetInCU: 0x1C1D9, offset: 0x1C1D9, size: 0x8, addend: 0x0, symName: __ZNSt3__16vectorINS_4pairIiP4EdgeEENS_9allocatorIS4_EEE21_ConstructTransactionC2B8ue170006ERS7_m, symObjAddr: 0xBB94, symBinAddr: 0x10000EC90, symSize: 0x44 }
  - { offsetInCU: 0x1C221, offset: 0x1C221, size: 0x8, addend: 0x0, symName: __ZNSt3__19allocatorINS_4pairIiP4EdgeEEE9constructB8ue170006IS4_JS4_EEEvPT_DpOT0_, symObjAddr: 0xBBD8, symBinAddr: 0x10000ECD4, symSize: 0x28 }
  - { offsetInCU: 0x1C277, offset: 0x1C277, size: 0x8, addend: 0x0, symName: __ZNSt3__117__compressed_pairIPNS_4pairIiP4EdgeEENS_9allocatorIS4_EEE6secondB8ue170006Ev, symObjAddr: 0xBC00, symBinAddr: 0x10000ECFC, symSize: 0x24 }
  - { offsetInCU: 0x1C29D, offset: 0x1C29D, size: 0x8, addend: 0x0, symName: __ZNSt3__122__compressed_pair_elemINS_9allocatorINS_4pairIiP4EdgeEEEELi1ELb1EE5__getB8ue170006Ev, symObjAddr: 0xBC24, symBinAddr: 0x10000ED20, symSize: 0x14 }
  - { offsetInCU: 0x1C2C3, offset: 0x1C2C3, size: 0x8, addend: 0x0, symName: __ZNSt3__16vectorINS_4pairIiP4EdgeEENS_9allocatorIS4_EEE21_ConstructTransactionD2B8ue170006Ev, symObjAddr: 0xBC38, symBinAddr: 0x10000ED34, symSize: 0x20 }
  - { offsetInCU: 0x1C2ED, offset: 0x1C2ED, size: 0x8, addend: 0x0, symName: __ZNKSt3__16vectorINS_4pairIiP4EdgeEENS_9allocatorIS4_EEE11__recommendB8ue170006Em, symObjAddr: 0xBC58, symBinAddr: 0x10000ED54, symSize: 0xB4 }
  - { offsetInCU: 0x1C342, offset: 0x1C342, size: 0x8, addend: 0x0, symName: __ZNSt3__114__split_bufferINS_4pairIiP4EdgeEERNS_9allocatorIS4_EEEC1EmmS7_, symObjAddr: 0xBD0C, symBinAddr: 0x10000EE08, symSize: 0x44 }
  - { offsetInCU: 0x1C398, offset: 0x1C398, size: 0x8, addend: 0x0, symName: __ZNSt3__114__split_bufferINS_4pairIiP4EdgeEERNS_9allocatorIS4_EEED1Ev, symObjAddr: 0xBE60, symBinAddr: 0x10000EF5C, symSize: 0x2C }
  - { offsetInCU: 0x1C3C4, offset: 0x1C3C4, size: 0x8, addend: 0x0, symName: __ZNKSt3__16vectorINS_4pairIiP4EdgeEENS_9allocatorIS4_EEE8max_sizeEv, symObjAddr: 0xBE8C, symBinAddr: 0x10000EF88, symSize: 0x74 }
  - { offsetInCU: 0x1C3EC, offset: 0x1C3EC, size: 0x8, addend: 0x0, symName: __ZNKSt3__16vectorINS_4pairIiP4EdgeEENS_9allocatorIS4_EEE20__throw_length_errorB8ue170006Ev, symObjAddr: 0xBF00, symBinAddr: 0x10000EFFC, symSize: 0x1C }
  - { offsetInCU: 0x1C412, offset: 0x1C412, size: 0x8, addend: 0x0, symName: __ZNKSt3__16vectorINS_4pairIiP4EdgeEENS_9allocatorIS4_EEE8capacityB8ue170006Ev, symObjAddr: 0xBF1C, symBinAddr: 0x10000F018, symSize: 0x40 }
  - { offsetInCU: 0x1C442, offset: 0x1C442, size: 0x8, addend: 0x0, symName: __ZNSt3__116allocator_traitsINS_9allocatorINS_4pairIiP4EdgeEEEEE8max_sizeB8ue170006IS6_vEEmRKS6_, symObjAddr: 0xBF5C, symBinAddr: 0x10000F058, symSize: 0x24 }
  - { offsetInCU: 0x1C470, offset: 0x1C470, size: 0x8, addend: 0x0, symName: __ZNKSt3__16vectorINS_4pairIiP4EdgeEENS_9allocatorIS4_EEE7__allocB8ue170006Ev, symObjAddr: 0xBF80, symBinAddr: 0x10000F07C, symSize: 0x28 }
  - { offsetInCU: 0x1C496, offset: 0x1C496, size: 0x8, addend: 0x0, symName: __ZNKSt3__19allocatorINS_4pairIiP4EdgeEEE8max_sizeB8ue170006Ev, symObjAddr: 0xBFA8, symBinAddr: 0x10000F0A4, symSize: 0x14 }
  - { offsetInCU: 0x1C4BC, offset: 0x1C4BC, size: 0x8, addend: 0x0, symName: __ZNKSt3__117__compressed_pairIPNS_4pairIiP4EdgeEENS_9allocatorIS4_EEE6secondB8ue170006Ev, symObjAddr: 0xBFBC, symBinAddr: 0x10000F0B8, symSize: 0x24 }
  - { offsetInCU: 0x1C4E2, offset: 0x1C4E2, size: 0x8, addend: 0x0, symName: __ZNKSt3__122__compressed_pair_elemINS_9allocatorINS_4pairIiP4EdgeEEEELi1ELb1EE5__getB8ue170006Ev, symObjAddr: 0xBFE0, symBinAddr: 0x10000F0DC, symSize: 0x14 }
  - { offsetInCU: 0x1C508, offset: 0x1C508, size: 0x8, addend: 0x0, symName: __ZNKSt3__16vectorINS_4pairIiP4EdgeEENS_9allocatorIS4_EEE9__end_capB8ue170006Ev, symObjAddr: 0xBFF4, symBinAddr: 0x10000F0F0, symSize: 0x28 }
  - { offsetInCU: 0x1C52E, offset: 0x1C52E, size: 0x8, addend: 0x0, symName: __ZNKSt3__117__compressed_pairIPNS_4pairIiP4EdgeEENS_9allocatorIS4_EEE5firstB8ue170006Ev, symObjAddr: 0xC01C, symBinAddr: 0x10000F118, symSize: 0x24 }
  - { offsetInCU: 0x1C554, offset: 0x1C554, size: 0x8, addend: 0x0, symName: __ZNKSt3__122__compressed_pair_elemIPNS_4pairIiP4EdgeEELi0ELb0EE5__getB8ue170006Ev, symObjAddr: 0xC040, symBinAddr: 0x10000F13C, symSize: 0x14 }
  - { offsetInCU: 0x1C57A, offset: 0x1C57A, size: 0x8, addend: 0x0, symName: __ZNSt3__114__split_bufferINS_4pairIiP4EdgeEERNS_9allocatorIS4_EEEC2EmmS7_, symObjAddr: 0xC054, symBinAddr: 0x10000F150, symSize: 0xD4 }
  - { offsetInCU: 0x1C5ED, offset: 0x1C5ED, size: 0x8, addend: 0x0, symName: __ZNSt3__117__compressed_pairIPNS_4pairIiP4EdgeEERNS_9allocatorIS4_EEEC1B8ue170006IDnS8_EEOT_OT0_, symObjAddr: 0xC128, symBinAddr: 0x10000F224, symSize: 0x3C }
  - { offsetInCU: 0x1C645, offset: 0x1C645, size: 0x8, addend: 0x0, symName: __ZNSt3__114__split_bufferINS_4pairIiP4EdgeEERNS_9allocatorIS4_EEE7__allocB8ue170006Ev, symObjAddr: 0xC1A4, symBinAddr: 0x10000F2A0, symSize: 0x28 }
  - { offsetInCU: 0x1C66B, offset: 0x1C66B, size: 0x8, addend: 0x0, symName: __ZNSt3__114__split_bufferINS_4pairIiP4EdgeEERNS_9allocatorIS4_EEE9__end_capB8ue170006Ev, symObjAddr: 0xC1CC, symBinAddr: 0x10000F2C8, symSize: 0x28 }
  - { offsetInCU: 0x1C691, offset: 0x1C691, size: 0x8, addend: 0x0, symName: __ZNSt3__117__compressed_pairIPNS_4pairIiP4EdgeEERNS_9allocatorIS4_EEEC2B8ue170006IDnS8_EEOT_OT0_, symObjAddr: 0xC1F4, symBinAddr: 0x10000F2F0, symSize: 0x48 }
  - { offsetInCU: 0x1C6E9, offset: 0x1C6E9, size: 0x8, addend: 0x0, symName: __ZNSt3__122__compressed_pair_elemIRNS_9allocatorINS_4pairIiP4EdgeEEEELi1ELb0EEC2B8ue170006IS7_vEEOT_, symObjAddr: 0xC23C, symBinAddr: 0x10000F338, symSize: 0x20 }
  - { offsetInCU: 0x1C72B, offset: 0x1C72B, size: 0x8, addend: 0x0, symName: __ZNSt3__19allocatorINS_4pairIiP4EdgeEEE8allocateB8ue170006Em, symObjAddr: 0xC25C, symBinAddr: 0x10000F358, symSize: 0x84 }
  - { offsetInCU: 0x1C75F, offset: 0x1C75F, size: 0x8, addend: 0x0, symName: __ZNSt3__117__compressed_pairIPNS_4pairIiP4EdgeEERNS_9allocatorIS4_EEE6secondB8ue170006Ev, symObjAddr: 0xC2E0, symBinAddr: 0x10000F3DC, symSize: 0x28 }
  - { offsetInCU: 0x1C785, offset: 0x1C785, size: 0x8, addend: 0x0, symName: __ZNSt3__122__compressed_pair_elemIRNS_9allocatorINS_4pairIiP4EdgeEEEELi1ELb0EE5__getB8ue170006Ev, symObjAddr: 0xC308, symBinAddr: 0x10000F404, symSize: 0x18 }
  - { offsetInCU: 0x1C7AB, offset: 0x1C7AB, size: 0x8, addend: 0x0, symName: __ZNSt3__117__compressed_pairIPNS_4pairIiP4EdgeEERNS_9allocatorIS4_EEE5firstB8ue170006Ev, symObjAddr: 0xC320, symBinAddr: 0x10000F41C, symSize: 0x24 }
  - { offsetInCU: 0x1C7D1, offset: 0x1C7D1, size: 0x8, addend: 0x0, symName: __ZNKSt3__16vectorINS_4pairIiP4EdgeEENS_9allocatorIS4_EEE17__annotate_deleteB8ue170006Ev, symObjAddr: 0xC344, symBinAddr: 0x10000F440, symSize: 0xB8 }
  - { offsetInCU: 0x1C7F7, offset: 0x1C7F7, size: 0x8, addend: 0x0, symName: __ZNSt3__116reverse_iteratorIPNS_4pairIiP4EdgeEEEC1B8ue170006ES5_, symObjAddr: 0xC530, symBinAddr: 0x10000F62C, symSize: 0x34 }
  - { offsetInCU: 0x1C82F, offset: 0x1C82F, size: 0x8, addend: 0x0, symName: __ZNKSt3__116reverse_iteratorIPNS_4pairIiP4EdgeEEE4baseB8ue170006Ev, symObjAddr: 0xC564, symBinAddr: 0x10000F660, symSize: 0x18 }
  - { offsetInCU: 0x1C855, offset: 0x1C855, size: 0x8, addend: 0x0, symName: __ZNKSt3__16vectorINS_4pairIiP4EdgeEENS_9allocatorIS4_EEE14__annotate_newB8ue170006Em, symObjAddr: 0xC5B8, symBinAddr: 0x10000F6B4, symSize: 0xAC }
  - { offsetInCU: 0x1C88A, offset: 0x1C88A, size: 0x8, addend: 0x0, symName: __ZNKSt3__16vectorINS_4pairIiP4EdgeEENS_9allocatorIS4_EEE31__annotate_contiguous_containerB8ue170006EPKvS9_S9_S9_, symObjAddr: 0xC664, symBinAddr: 0x10000F760, symSize: 0x20 }
  - { offsetInCU: 0x1C8DC, offset: 0x1C8DC, size: 0x8, addend: 0x0, symName: __ZNKSt3__16vectorINS_4pairIiP4EdgeEENS_9allocatorIS4_EEE4dataB8ue170006Ev, symObjAddr: 0xC684, symBinAddr: 0x10000F780, symSize: 0x28 }
  - { offsetInCU: 0x1C902, offset: 0x1C902, size: 0x8, addend: 0x0, symName: __ZNSt3__129_AllocatorDestroyRangeReverseINS_9allocatorINS_4pairIiP4EdgeEEEENS_16reverse_iteratorIPS5_EEEC1B8ue170006ERS6_RS9_SC_, symObjAddr: 0xC6F8, symBinAddr: 0x10000F7F4, symSize: 0x44 }
  - { offsetInCU: 0x1C959, offset: 0x1C959, size: 0x8, addend: 0x0, symName: __ZNKSt3__116reverse_iteratorIPNS_4pairIiP4EdgeEEEdeB8ue170006Ev, symObjAddr: 0xC7A8, symBinAddr: 0x10000F8A4, symSize: 0x28 }
  - { offsetInCU: 0x1C98D, offset: 0x1C98D, size: 0x8, addend: 0x0, symName: __ZNSt3__116reverse_iteratorIPNS_4pairIiP4EdgeEEEppB8ue170006Ev, symObjAddr: 0xC7D0, symBinAddr: 0x10000F8CC, symSize: 0x20 }
  - { offsetInCU: 0x1C9B3, offset: 0x1C9B3, size: 0x8, addend: 0x0, symName: __ZNSt3__128__exception_guard_exceptionsINS_29_AllocatorDestroyRangeReverseINS_9allocatorINS_4pairIiP4EdgeEEEENS_16reverse_iteratorIPS6_EEEEE10__completeB8ue170006Ev, symObjAddr: 0xC7F0, symBinAddr: 0x10000F8EC, symSize: 0x1C }
  - { offsetInCU: 0x1C9D9, offset: 0x1C9D9, size: 0x8, addend: 0x0, symName: __ZNSt3__128__exception_guard_exceptionsINS_29_AllocatorDestroyRangeReverseINS_9allocatorINS_4pairIiP4EdgeEEEENS_16reverse_iteratorIPS6_EEEEED1B8ue170006Ev, symObjAddr: 0xC80C, symBinAddr: 0x10000F908, symSize: 0x2C }
  - { offsetInCU: 0x1CA03, offset: 0x1CA03, size: 0x8, addend: 0x0, symName: __ZNSt3__128__exception_guard_exceptionsINS_29_AllocatorDestroyRangeReverseINS_9allocatorINS_4pairIiP4EdgeEEEENS_16reverse_iteratorIPS6_EEEEEC1B8ue170006ESB_, symObjAddr: 0xC838, symBinAddr: 0x10000F934, symSize: 0x34 }
  - { offsetInCU: 0x1CA3C, offset: 0x1CA3C, size: 0x8, addend: 0x0, symName: __ZNSt3__128__exception_guard_exceptionsINS_29_AllocatorDestroyRangeReverseINS_9allocatorINS_4pairIiP4EdgeEEEENS_16reverse_iteratorIPS6_EEEEEC2B8ue170006ESB_, symObjAddr: 0xC86C, symBinAddr: 0x10000F968, symSize: 0x30 }
  - { offsetInCU: 0x1CA75, offset: 0x1CA75, size: 0x8, addend: 0x0, symName: __ZNSt3__129_AllocatorDestroyRangeReverseINS_9allocatorINS_4pairIiP4EdgeEEEENS_16reverse_iteratorIPS5_EEEC2B8ue170006ERS6_RS9_SC_, symObjAddr: 0xC89C, symBinAddr: 0x10000F998, symSize: 0x38 }
  - { offsetInCU: 0x1CAD1, offset: 0x1CAD1, size: 0x8, addend: 0x0, symName: __ZNSt3__119__to_address_helperINS_16reverse_iteratorIPNS_4pairIiP4EdgeEEEEvE6__callB8ue170006ERKS7_, symObjAddr: 0xC8D4, symBinAddr: 0x10000F9D0, symSize: 0x4C }
  - { offsetInCU: 0x1CAF4, offset: 0x1CAF4, size: 0x8, addend: 0x0, symName: __ZNKSt3__116reverse_iteratorIPNS_4pairIiP4EdgeEEEptB8ue170006Ev, symObjAddr: 0xC920, symBinAddr: 0x10000FA1C, symSize: 0x24 }
  - { offsetInCU: 0x1CB1A, offset: 0x1CB1A, size: 0x8, addend: 0x0, symName: __ZNSt3__128__exception_guard_exceptionsINS_29_AllocatorDestroyRangeReverseINS_9allocatorINS_4pairIiP4EdgeEEEENS_16reverse_iteratorIPS6_EEEEED2B8ue170006Ev, symObjAddr: 0xC944, symBinAddr: 0x10000FA40, symSize: 0x48 }
  - { offsetInCU: 0x1CB44, offset: 0x1CB44, size: 0x8, addend: 0x0, symName: __ZNKSt3__129_AllocatorDestroyRangeReverseINS_9allocatorINS_4pairIiP4EdgeEEEENS_16reverse_iteratorIPS5_EEEclB8ue170006Ev, symObjAddr: 0xC98C, symBinAddr: 0x10000FA88, symSize: 0xB4 }
  - { offsetInCU: 0x1CB6B, offset: 0x1CB6B, size: 0x8, addend: 0x0, symName: __ZNSt3__116reverse_iteratorINS0_IPNS_4pairIiP4EdgeEEEEEC1B8ue170006ES6_, symObjAddr: 0xCAB0, symBinAddr: 0x10000FBAC, symSize: 0x3C }
  - { offsetInCU: 0x1CBA3, offset: 0x1CBA3, size: 0x8, addend: 0x0, symName: __ZNSt3__116allocator_traitsINS_9allocatorINS_4pairIiP4EdgeEEEEE7destroyB8ue170006IS5_vEEvRS6_PT_, symObjAddr: 0xCB4C, symBinAddr: 0x10000FC48, symSize: 0x2C }
  - { offsetInCU: 0x1CBE0, offset: 0x1CBE0, size: 0x8, addend: 0x0, symName: __ZNSt3__116reverse_iteratorINS0_IPNS_4pairIiP4EdgeEEEEEppB8ue170006Ev, symObjAddr: 0xCB9C, symBinAddr: 0x10000FC98, symSize: 0x30 }
  - { offsetInCU: 0x1CC06, offset: 0x1CC06, size: 0x8, addend: 0x0, symName: __ZNKSt3__116reverse_iteratorINS0_IPNS_4pairIiP4EdgeEEEEE4baseB8ue170006Ev, symObjAddr: 0xCBCC, symBinAddr: 0x10000FCC8, symSize: 0x24 }
  - { offsetInCU: 0x1CC2C, offset: 0x1CC2C, size: 0x8, addend: 0x0, symName: __ZNSt3__19allocatorINS_4pairIiP4EdgeEEE7destroyB8ue170006EPS4_, symObjAddr: 0xCBF0, symBinAddr: 0x10000FCEC, symSize: 0x14 }
  - { offsetInCU: 0x1CC65, offset: 0x1CC65, size: 0x8, addend: 0x0, symName: __ZNSt3__119__to_address_helperINS_16reverse_iteratorINS1_IPNS_4pairIiP4EdgeEEEEEEvE6__callB8ue170006ERKS8_, symObjAddr: 0xCC04, symBinAddr: 0x10000FD00, symSize: 0x4C }
  - { offsetInCU: 0x1CC88, offset: 0x1CC88, size: 0x8, addend: 0x0, symName: __ZNKSt3__116reverse_iteratorINS0_IPNS_4pairIiP4EdgeEEEEEptB8ue170006Ev, symObjAddr: 0xCC50, symBinAddr: 0x10000FD4C, symSize: 0x24 }
  - { offsetInCU: 0x1CCAE, offset: 0x1CCAE, size: 0x8, addend: 0x0, symName: __ZNKSt3__116reverse_iteratorINS0_IPNS_4pairIiP4EdgeEEEEEdeB8ue170006Ev, symObjAddr: 0xCC74, symBinAddr: 0x10000FD70, symSize: 0x34 }
  - { offsetInCU: 0x1CCE2, offset: 0x1CCE2, size: 0x8, addend: 0x0, symName: __ZNSt3__116reverse_iteratorIPNS_4pairIiP4EdgeEEEmmB8ue170006Ev, symObjAddr: 0xCCA8, symBinAddr: 0x10000FDA4, symSize: 0x20 }
  - { offsetInCU: 0x1CD08, offset: 0x1CD08, size: 0x8, addend: 0x0, symName: __ZNSt3__116reverse_iteratorINS0_IPNS_4pairIiP4EdgeEEEEEC2B8ue170006ES6_, symObjAddr: 0xCCC8, symBinAddr: 0x10000FDC4, symSize: 0x2C }
  - { offsetInCU: 0x1CD40, offset: 0x1CD40, size: 0x8, addend: 0x0, symName: __ZNSt3__116reverse_iteratorIPNS_4pairIiP4EdgeEEEC2B8ue170006ES5_, symObjAddr: 0xCCF4, symBinAddr: 0x10000FDF0, symSize: 0x28 }
  - { offsetInCU: 0x1CD78, offset: 0x1CD78, size: 0x8, addend: 0x0, symName: __ZNSt3__114__split_bufferINS_4pairIiP4EdgeEERNS_9allocatorIS4_EEED2Ev, symObjAddr: 0xCD1C, symBinAddr: 0x10000FE18, symSize: 0x80 }
  - { offsetInCU: 0x1CDA4, offset: 0x1CDA4, size: 0x8, addend: 0x0, symName: __ZNSt3__114__split_bufferINS_4pairIiP4EdgeEERNS_9allocatorIS4_EEE5clearB8ue170006Ev, symObjAddr: 0xCD9C, symBinAddr: 0x10000FE98, symSize: 0x28 }
  - { offsetInCU: 0x1CDCA, offset: 0x1CDCA, size: 0x8, addend: 0x0, symName: __ZNSt3__116allocator_traitsINS_9allocatorINS_4pairIiP4EdgeEEEEE10deallocateB8ue170006ERS6_PS5_m, symObjAddr: 0xCDC4, symBinAddr: 0x10000FEC0, symSize: 0x34 }
  - { offsetInCU: 0x1CE0C, offset: 0x1CE0C, size: 0x8, addend: 0x0, symName: __ZNKSt3__114__split_bufferINS_4pairIiP4EdgeEERNS_9allocatorIS4_EEE8capacityB8ue170006Ev, symObjAddr: 0xCDF8, symBinAddr: 0x10000FEF4, symSize: 0x40 }
  - { offsetInCU: 0x1CE32, offset: 0x1CE32, size: 0x8, addend: 0x0, symName: __ZNSt3__114__split_bufferINS_4pairIiP4EdgeEERNS_9allocatorIS4_EEE17__destruct_at_endB8ue170006EPS4_, symObjAddr: 0xCE38, symBinAddr: 0x10000FF34, symSize: 0x2C }
  - { offsetInCU: 0x1CE66, offset: 0x1CE66, size: 0x8, addend: 0x0, symName: __ZNSt3__114__split_bufferINS_4pairIiP4EdgeEERNS_9allocatorIS4_EEE17__destruct_at_endB8ue170006EPS4_NS_17integral_constantIbLb0EEE, symObjAddr: 0xCE64, symBinAddr: 0x10000FF60, symSize: 0x94 }
  - { offsetInCU: 0x1CEA6, offset: 0x1CEA6, size: 0x8, addend: 0x0, symName: __ZNSt3__19allocatorINS_4pairIiP4EdgeEEE10deallocateB8ue170006EPS4_m, symObjAddr: 0xCEF8, symBinAddr: 0x10000FFF4, symSize: 0x70 }
  - { offsetInCU: 0x1CEE8, offset: 0x1CEE8, size: 0x8, addend: 0x0, symName: __ZNKSt3__114__split_bufferINS_4pairIiP4EdgeEERNS_9allocatorIS4_EEE9__end_capB8ue170006Ev, symObjAddr: 0xCF68, symBinAddr: 0x100010064, symSize: 0x28 }
  - { offsetInCU: 0x1CF0E, offset: 0x1CF0E, size: 0x8, addend: 0x0, symName: __ZNKSt3__117__compressed_pairIPNS_4pairIiP4EdgeEERNS_9allocatorIS4_EEE5firstB8ue170006Ev, symObjAddr: 0xCF90, symBinAddr: 0x10001008C, symSize: 0x24 }
  - { offsetInCU: 0x1CF52, offset: 0x1CF52, size: 0x8, addend: 0x0, symName: __ZNKSt3__113basic_ostreamIcNS_11char_traitsIcEEE6sentrycvbB8ue170006Ev, symObjAddr: 0xD1A8, symBinAddr: 0x1000102A4, symSize: 0x1C }
  - { offsetInCU: 0x1CF78, offset: 0x1CF78, size: 0x8, addend: 0x0, symName: __ZNSt3__119ostreambuf_iteratorIcNS_11char_traitsIcEEEC1B8ue170006ERNS_13basic_ostreamIcS2_EE, symObjAddr: 0xD40C, symBinAddr: 0x100010508, symSize: 0x34 }
  - { offsetInCU: 0x1CFB0, offset: 0x1CFB0, size: 0x8, addend: 0x0, symName: __ZNKSt3__18ios_base5flagsB8ue170006Ev, symObjAddr: 0xD440, symBinAddr: 0x10001053C, symSize: 0x18 }
  - { offsetInCU: 0x1CFD8, offset: 0x1CFD8, size: 0x8, addend: 0x0, symName: __ZNKSt3__19basic_iosIcNS_11char_traitsIcEEE4fillB8ue170006Ev, symObjAddr: 0xD458, symBinAddr: 0x100010554, symSize: 0x64 }
  - { offsetInCU: 0x1D000, offset: 0x1D000, size: 0x8, addend: 0x0, symName: __ZNKSt3__119ostreambuf_iteratorIcNS_11char_traitsIcEEE6failedB8ue170006Ev, symObjAddr: 0xD4BC, symBinAddr: 0x1000105B8, symSize: 0x24 }
  - { offsetInCU: 0x1D026, offset: 0x1D026, size: 0x8, addend: 0x0, symName: __ZNSt3__115basic_streambufIcNS_11char_traitsIcEEE5sputnB8ue170006EPKcl, symObjAddr: 0xD4E0, symBinAddr: 0x1000105DC, symSize: 0x3C }
  - { offsetInCU: 0x1D068, offset: 0x1D068, size: 0x8, addend: 0x0, symName: __ZNSt3__112basic_stringIcNS_11char_traitsIcEENS_9allocatorIcEEEC1B8ue170006Emc, symObjAddr: 0xD51C, symBinAddr: 0x100010618, symSize: 0x3C }
  - { offsetInCU: 0x1D0B0, offset: 0x1D0B0, size: 0x8, addend: 0x0, symName: __ZNSt3__112basic_stringIcNS_11char_traitsIcEENS_9allocatorIcEEEC2B8ue170006Emc, symObjAddr: 0xD558, symBinAddr: 0x100010654, symSize: 0x4C }
  - { offsetInCU: 0x1D0F8, offset: 0x1D0F8, size: 0x8, addend: 0x0, symName: __ZNSt3__119ostreambuf_iteratorIcNS_11char_traitsIcEEEC2B8ue170006ERNS_13basic_ostreamIcS2_EE, symObjAddr: 0xD5A4, symBinAddr: 0x1000106A0, symSize: 0x68 }
  - { offsetInCU: 0x1D130, offset: 0x1D130, size: 0x8, addend: 0x0, symName: __ZNKSt3__19basic_iosIcNS_11char_traitsIcEEE5widenB8ue170006Ec, symObjAddr: 0xD60C, symBinAddr: 0x100010708, symSize: 0x8C }
  - { offsetInCU: 0x1D167, offset: 0x1D167, size: 0x8, addend: 0x0, symName: __ZNKSt3__15ctypeIcE5widenB8ue170006Ec, symObjAddr: 0xD698, symBinAddr: 0x100010794, symSize: 0x38 }
  - { offsetInCU: 0x1D19C, offset: 0x1D19C, size: 0x8, addend: 0x0, symName: __ZNSt3__16vectorIiNS_9allocatorIiEEEC2EmRKi, symObjAddr: 0xD6D0, symBinAddr: 0x1000107CC, symSize: 0xE4 }
  - { offsetInCU: 0x1D1FB, offset: 0x1D1FB, size: 0x8, addend: 0x0, symName: __ZNSt3__16vectorIiNS_9allocatorIiEEE11__vallocateB8ue170006Em, symObjAddr: 0xD7F4, symBinAddr: 0x1000108F0, symSize: 0xAC }
  - { offsetInCU: 0x1D23F, offset: 0x1D23F, size: 0x8, addend: 0x0, symName: __ZNSt3__16vectorIiNS_9allocatorIiEEE18__construct_at_endEmRKi, symObjAddr: 0xD8A0, symBinAddr: 0x10001099C, symSize: 0xD8 }
  - { offsetInCU: 0x1D2C0, offset: 0x1D2C0, size: 0x8, addend: 0x0, symName: __ZNSt3__128__exception_guard_exceptionsINS_6vectorIiNS_9allocatorIiEEE16__destroy_vectorEE10__completeB8ue170006Ev, symObjAddr: 0xD978, symBinAddr: 0x100010A74, symSize: 0x1C }
  - { offsetInCU: 0x1D2E6, offset: 0x1D2E6, size: 0x8, addend: 0x0, symName: __ZNSt3__128__exception_guard_exceptionsINS_6vectorIiNS_9allocatorIiEEE16__destroy_vectorEED1B8ue170006Ev, symObjAddr: 0xD994, symBinAddr: 0x100010A90, symSize: 0x2C }
  - { offsetInCU: 0x1D310, offset: 0x1D310, size: 0x8, addend: 0x0, symName: __ZNSt3__128__exception_guard_exceptionsINS_6vectorIiNS_9allocatorIiEEE16__destroy_vectorEEC1B8ue170006ES5_, symObjAddr: 0xD9C0, symBinAddr: 0x100010ABC, symSize: 0x34 }
  - { offsetInCU: 0x1D348, offset: 0x1D348, size: 0x8, addend: 0x0, symName: __ZNSt3__128__exception_guard_exceptionsINS_6vectorIiNS_9allocatorIiEEE16__destroy_vectorEEC2B8ue170006ES5_, symObjAddr: 0xD9F4, symBinAddr: 0x100010AF0, symSize: 0x24 }
  - { offsetInCU: 0x1D380, offset: 0x1D380, size: 0x8, addend: 0x0, symName: __ZNSt3__128__exception_guard_exceptionsINS_6vectorIiNS_9allocatorIiEEE16__destroy_vectorEED2B8ue170006Ev, symObjAddr: 0xDA18, symBinAddr: 0x100010B14, symSize: 0x48 }
  - { offsetInCU: 0x1D3AA, offset: 0x1D3AA, size: 0x8, addend: 0x0, symName: __ZNSt3__114priority_queueINS_4pairIiiEENS_6vectorIS2_NS_9allocatorIS2_EEEENS_7greaterIS2_EEEC2B8ue170006Ev, symObjAddr: 0xDA60, symBinAddr: 0x100010B5C, symSize: 0x2C }
  - { offsetInCU: 0x1D3D4, offset: 0x1D3D4, size: 0x8, addend: 0x0, symName: __ZNSt3__16vectorINS_4pairIiiEENS_9allocatorIS2_EEE9push_backB8ue170006ERKS2_, symObjAddr: 0xDA8C, symBinAddr: 0x100010B88, symSize: 0x6C }
  - { offsetInCU: 0x1D40B, offset: 0x1D40B, size: 0x8, addend: 0x0, symName: __ZNSt3__16vectorINS_4pairIiiEENS_9allocatorIS2_EEE22__construct_one_at_endB8ue170006IJRKS2_EEEvDpOT_, symObjAddr: 0xDB38, symBinAddr: 0x100010C34, symSize: 0x98 }
  - { offsetInCU: 0x1D45A, offset: 0x1D45A, size: 0x8, addend: 0x0, symName: __ZNSt3__16vectorINS_4pairIiiEENS_9allocatorIS2_EEE21__push_back_slow_pathIRKS2_EEvOT_, symObjAddr: 0xDBD0, symBinAddr: 0x100010CCC, symSize: 0xE0 }
  - { offsetInCU: 0x1D4B8, offset: 0x1D4B8, size: 0x8, addend: 0x0, symName: __ZNSt3__116allocator_traitsINS_9allocatorINS_4pairIiiEEEEE9constructB8ue170006IS3_JRKS3_EvEEvRS4_PT_DpOT0_, symObjAddr: 0xDCB0, symBinAddr: 0x100010DAC, symSize: 0x34 }
  - { offsetInCU: 0x1D50F, offset: 0x1D50F, size: 0x8, addend: 0x0, symName: __ZNSt3__19allocatorINS_4pairIiiEEE9constructB8ue170006IS2_JRKS2_EEEvPT_DpOT0_, symObjAddr: 0xDCE4, symBinAddr: 0x100010DE0, symSize: 0x28 }
  - { offsetInCU: 0x1D565, offset: 0x1D565, size: 0x8, addend: 0x0, symName: __ZNKSt3__111__wrap_iterIPNS_4pairIiiEEE4baseB8ue170006Ev, symObjAddr: 0xDF0C, symBinAddr: 0x100011008, symSize: 0x18 }
  - { offsetInCU: 0x1D58B, offset: 0x1D58B, size: 0x8, addend: 0x0, symName: __ZNKSt3__111__wrap_iterIPNS_4pairIiiEEEplB8ue170006El, symObjAddr: 0xDF24, symBinAddr: 0x100011020, symSize: 0x3C }
  - { offsetInCU: 0x1D5CD, offset: 0x1D5CD, size: 0x8, addend: 0x0, symName: __ZNKSt3__17greaterINS_4pairIiiEEEclB8ue170006ERKS2_S5_, symObjAddr: 0xDF60, symBinAddr: 0x10001105C, symSize: 0x34 }
  - { offsetInCU: 0x1D611, offset: 0x1D611, size: 0x8, addend: 0x0, symName: __ZNSt3__111__wrap_iterIPNS_4pairIiiEEEmmB8ue170006Ev, symObjAddr: 0xDF94, symBinAddr: 0x100011090, symSize: 0x20 }
  - { offsetInCU: 0x1D637, offset: 0x1D637, size: 0x8, addend: 0x0, symName: __ZNSt3__18_IterOpsINS_17_ClassicAlgPolicyEE11__iter_moveB8ue170006IRNS_11__wrap_iterIPNS_4pairIiiEEEEEENS_9enable_ifIXsr12is_referenceIDTdeclsr3stdE7declvalIRT_EEEEE5valueEDTclsr3stdE4movedeclsr3stdE7declvalISC_EEEEE4typeEOSB_, symObjAddr: 0xDFB4, symBinAddr: 0x1000110B0, symSize: 0x28 }
  - { offsetInCU: 0x1D663, offset: 0x1D663, size: 0x8, addend: 0x0, symName: __ZNSt3__14pairIiiEaSB8ue170006ERKS1_, symObjAddr: 0xDFDC, symBinAddr: 0x1000110D8, symSize: 0x30 }
  - { offsetInCU: 0x1D697, offset: 0x1D697, size: 0x8, addend: 0x0, symName: __ZNSt3__111__wrap_iterIPNS_4pairIiiEEEpLB8ue170006El, symObjAddr: 0xE00C, symBinAddr: 0x100011108, symSize: 0x28 }
  - { offsetInCU: 0x1D6CB, offset: 0x1D6CB, size: 0x8, addend: 0x0, symName: __ZNSt3__18_IterOpsINS_17_ClassicAlgPolicyEE25__validate_iter_referenceB8ue170006IRNS_11__wrap_iterIPNS_4pairIiiEEEEEEvv, symObjAddr: 0xE0FC, symBinAddr: 0x1000111F8, symSize: 0x4 }
  - { offsetInCU: 0x1D6E9, offset: 0x1D6E9, size: 0x8, addend: 0x0, symName: __ZNKSt3__16vectorINS_4pairIiiEENS_9allocatorIS2_EEE5frontB8ue170006Ev, symObjAddr: 0xE100, symBinAddr: 0x1000111FC, symSize: 0x18 }
  - { offsetInCU: 0x1D70F, offset: 0x1D70F, size: 0x8, addend: 0x0, symName: __ZNSt3__110__get_pairILm0EE3getB8ue170006IiiEEOT_ONS_4pairIS3_T0_EE, symObjAddr: 0xE118, symBinAddr: 0x100011214, symSize: 0x14 }
  - { offsetInCU: 0x1D745, offset: 0x1D745, size: 0x8, addend: 0x0, symName: __ZNSt3__110__get_pairILm1EE3getB8ue170006IiiEEOT0_ONS_4pairIT_S3_EE, symObjAddr: 0xE12C, symBinAddr: 0x100011228, symSize: 0x18 }
  - { offsetInCU: 0x1D77B, offset: 0x1D77B, size: 0x8, addend: 0x0, symName: __ZNSt3__16vectorINS_4pairIiiEENS_9allocatorIS2_EEE8pop_backEv, symObjAddr: 0xE19C, symBinAddr: 0x100011298, symSize: 0x2C }
  - { offsetInCU: 0x1D7A3, offset: 0x1D7A3, size: 0x8, addend: 0x0, symName: __ZNSt3__16vectorINS_4pairIiiEENS_9allocatorIS2_EEE17__destruct_at_endB8ue170006EPS2_, symObjAddr: 0xE480, symBinAddr: 0x10001157C, symSize: 0x4C }
  - { offsetInCU: 0x1D7E7, offset: 0x1D7E7, size: 0x8, addend: 0x0, symName: __ZNKSt3__16vectorINS_4pairIiiEENS_9allocatorIS2_EEE17__annotate_shrinkB8ue170006Em, symObjAddr: 0xE4CC, symBinAddr: 0x1000115C8, symSize: 0xB4 }
  - { offsetInCU: 0x1D81C, offset: 0x1D81C, size: 0x8, addend: 0x0, symName: __ZNSt3__16vectorINS_4pairIiiEENS_9allocatorIS2_EEE11__make_iterB8ue170006EPS2_, symObjAddr: 0xE580, symBinAddr: 0x10001167C, symSize: 0x30 }
  - { offsetInCU: 0x1D851, offset: 0x1D851, size: 0x8, addend: 0x0, symName: __ZNSt3__111__wrap_iterIPNS_4pairIiiEEEC1B8ue170006ES3_, symObjAddr: 0xE5B0, symBinAddr: 0x1000116AC, symSize: 0x34 }
  - { offsetInCU: 0x1D889, offset: 0x1D889, size: 0x8, addend: 0x0, symName: __ZNSt3__111__wrap_iterIPNS_4pairIiiEEEC2B8ue170006ES3_, symObjAddr: 0xE5E4, symBinAddr: 0x1000116E0, symSize: 0x20 }
  - { offsetInCU: 0x1D8C1, offset: 0x1D8C1, size: 0x8, addend: 0x0, symName: __ZNSt3__14pairINS0_IiiEENS_6vectorIiNS_9allocatorIiEEEEEC2B8ue170006ERKS1_RKS5_, symObjAddr: 0xE604, symBinAddr: 0x100011700, symSize: 0x48 }
  - { offsetInCU: 0x1D907, offset: 0x1D907, size: 0x8, addend: 0x0, symName: __ZNSt3__16vectorIiNS_9allocatorIiEEEC1ERKS3_, symObjAddr: 0xE64C, symBinAddr: 0x100011748, symSize: 0x34 }
  - { offsetInCU: 0x1D942, offset: 0x1D942, size: 0x8, addend: 0x0, symName: __ZNSt3__16vectorIiNS_9allocatorIiEEEC2ERKS3_, symObjAddr: 0xE680, symBinAddr: 0x10001177C, symSize: 0x94 }
  - { offsetInCU: 0x1D97D, offset: 0x1D97D, size: 0x8, addend: 0x0, symName: __ZNSt3__116allocator_traitsINS_9allocatorIiEEE37select_on_container_copy_constructionB8ue170006IS2_vvEES2_RKS2_, symObjAddr: 0xE714, symBinAddr: 0x100011810, symSize: 0x10 }
  - { offsetInCU: 0x1D9B2, offset: 0x1D9B2, size: 0x8, addend: 0x0, symName: __ZNSt3__117__compressed_pairIPiNS_9allocatorIiEEEC1B8ue170006IDnS3_EEOT_OT0_, symObjAddr: 0xE724, symBinAddr: 0x100011820, symSize: 0x3C }
  - { offsetInCU: 0x1DA0A, offset: 0x1DA0A, size: 0x8, addend: 0x0, symName: __ZNSt3__16vectorIiNS_9allocatorIiEEE16__init_with_sizeB8ue170006IPiS5_EEvT_T0_m, symObjAddr: 0xE760, symBinAddr: 0x10001185C, symSize: 0xC0 }
  - { offsetInCU: 0x1DA7E, offset: 0x1DA7E, size: 0x8, addend: 0x0, symName: __ZNSt3__117__compressed_pairIPiNS_9allocatorIiEEEC2B8ue170006IDnS3_EEOT_OT0_, symObjAddr: 0xE820, symBinAddr: 0x10001191C, symSize: 0x44 }
  - { offsetInCU: 0x1DAD6, offset: 0x1DAD6, size: 0x8, addend: 0x0, symName: __ZNSt3__122__compressed_pair_elemINS_9allocatorIiEELi1ELb1EEC2B8ue170006IS2_vEEOT_, symObjAddr: 0xE864, symBinAddr: 0x100011960, symSize: 0x18 }
  - { offsetInCU: 0x1DB18, offset: 0x1DB18, size: 0x8, addend: 0x0, symName: __ZNSt3__16vectorIiNS_9allocatorIiEEE18__construct_at_endIPiS5_EEvT_T0_m, symObjAddr: 0xE87C, symBinAddr: 0x100011978, symSize: 0x94 }
  - { offsetInCU: 0x1DBA8, offset: 0x1DBA8, size: 0x8, addend: 0x0, symName: __ZNSt3__14pairIPiS1_EC1B8ue170006ERKS1_S4_, symObjAddr: 0xEB98, symBinAddr: 0x100011C94, symSize: 0x3C }
  - { offsetInCU: 0x1DBEE, offset: 0x1DBEE, size: 0x8, addend: 0x0, symName: __ZNSt3__14pairIPiS1_EC2B8ue170006ERKS1_S4_, symObjAddr: 0xEBD4, symBinAddr: 0x100011CD0, symSize: 0x34 }
  - { offsetInCU: 0x1DC34, offset: 0x1DC34, size: 0x8, addend: 0x0, symName: __ZNSt3__129_AllocatorDestroyRangeReverseINS_9allocatorIiEEPiEC1B8ue170006ERS2_RS3_S6_, symObjAddr: 0xEC54, symBinAddr: 0x100011D50, symSize: 0x44 }
  - { offsetInCU: 0x1DC8B, offset: 0x1DC8B, size: 0x8, addend: 0x0, symName: __ZNSt3__116allocator_traitsINS_9allocatorIiEEE9constructB8ue170006IiJRiEvEEvRS2_PT_DpOT0_, symObjAddr: 0xEC98, symBinAddr: 0x100011D94, symSize: 0x34 }
  - { offsetInCU: 0x1DCE2, offset: 0x1DCE2, size: 0x8, addend: 0x0, symName: __ZNSt3__128__exception_guard_exceptionsINS_29_AllocatorDestroyRangeReverseINS_9allocatorIiEEPiEEE10__completeB8ue170006Ev, symObjAddr: 0xECCC, symBinAddr: 0x100011DC8, symSize: 0x1C }
  - { offsetInCU: 0x1DD08, offset: 0x1DD08, size: 0x8, addend: 0x0, symName: __ZNSt3__128__exception_guard_exceptionsINS_29_AllocatorDestroyRangeReverseINS_9allocatorIiEEPiEEED1B8ue170006Ev, symObjAddr: 0xECE8, symBinAddr: 0x100011DE4, symSize: 0x2C }
  - { offsetInCU: 0x1DD32, offset: 0x1DD32, size: 0x8, addend: 0x0, symName: __ZNSt3__128__exception_guard_exceptionsINS_29_AllocatorDestroyRangeReverseINS_9allocatorIiEEPiEEEC1B8ue170006ES5_, symObjAddr: 0xED14, symBinAddr: 0x100011E10, symSize: 0x34 }
  - { offsetInCU: 0x1DD6B, offset: 0x1DD6B, size: 0x8, addend: 0x0, symName: __ZNSt3__128__exception_guard_exceptionsINS_29_AllocatorDestroyRangeReverseINS_9allocatorIiEEPiEEEC2B8ue170006ES5_, symObjAddr: 0xED48, symBinAddr: 0x100011E44, symSize: 0x30 }
  - { offsetInCU: 0x1DDA4, offset: 0x1DDA4, size: 0x8, addend: 0x0, symName: __ZNSt3__129_AllocatorDestroyRangeReverseINS_9allocatorIiEEPiEC2B8ue170006ERS2_RS3_S6_, symObjAddr: 0xED78, symBinAddr: 0x100011E74, symSize: 0x38 }
  - { offsetInCU: 0x1DDFB, offset: 0x1DDFB, size: 0x8, addend: 0x0, symName: __ZNSt3__19allocatorIiE9constructB8ue170006IiJRiEEEvPT_DpOT0_, symObjAddr: 0xEDB0, symBinAddr: 0x100011EAC, symSize: 0x28 }
  - { offsetInCU: 0x1DE51, offset: 0x1DE51, size: 0x8, addend: 0x0, symName: __ZNSt3__128__exception_guard_exceptionsINS_29_AllocatorDestroyRangeReverseINS_9allocatorIiEEPiEEED2B8ue170006Ev, symObjAddr: 0xEDD8, symBinAddr: 0x100011ED4, symSize: 0x48 }
  - { offsetInCU: 0x1DE7B, offset: 0x1DE7B, size: 0x8, addend: 0x0, symName: __ZNKSt3__129_AllocatorDestroyRangeReverseINS_9allocatorIiEEPiEclB8ue170006Ev, symObjAddr: 0xEE20, symBinAddr: 0x100011F1C, symSize: 0x68 }
  - { offsetInCU: 0x1DEA1, offset: 0x1DEA1, size: 0x8, addend: 0x0, symName: __ZNSt3__118__unwrap_iter_implIPiLb1EE8__unwrapB8ue170006ES1_, symObjAddr: 0xEEF8, symBinAddr: 0x100011FF4, symSize: 0x24 }
  - { offsetInCU: 0x1DEC4, offset: 0x1DEC4, size: 0x8, addend: 0x0, symName: __ZNSt3__118__unwrap_iter_implIPiLb1EE8__rewrapB8ue170006ES1_S1_, symObjAddr: 0xEF1C, symBinAddr: 0x100012018, symSize: 0x50 }
  - { offsetInCU: 0x1DEF5, offset: 0x1DEF5, size: 0x8, addend: 0x0, symName: __ZNSt3__16vectorIiNS_9allocatorIiEEE19__copy_assign_allocB8ue170006ERKS3_, symObjAddr: 0xEF6C, symBinAddr: 0x100012068, symSize: 0x2C }
  - { offsetInCU: 0x1DF2A, offset: 0x1DF2A, size: 0x8, addend: 0x0, symName: __ZNSt3__16vectorIiNS_9allocatorIiEEE6assignIPiLi0EEEvT_S6_, symObjAddr: 0xEF98, symBinAddr: 0x100012094, symSize: 0x5C }
  - { offsetInCU: 0x1DF7F, offset: 0x1DF7F, size: 0x8, addend: 0x0, symName: __ZNSt3__16vectorIiNS_9allocatorIiEEE19__copy_assign_allocB8ue170006ERKS3_NS_17integral_constantIbLb0EEE, symObjAddr: 0xEFF4, symBinAddr: 0x1000120F0, symSize: 0x14 }
  - { offsetInCU: 0x1DFBB, offset: 0x1DFBB, size: 0x8, addend: 0x0, symName: __ZNSt3__16vectorIiNS_9allocatorIiEEE18__assign_with_sizeB8ue170006IPiS5_EEvT_T0_l, symObjAddr: 0xF008, symBinAddr: 0x100012104, symSize: 0x164 }
  - { offsetInCU: 0x1E06B, offset: 0x1E06B, size: 0x8, addend: 0x0, symName: __ZNSt3__16vectorIiNS_9allocatorIiEEE17__destruct_at_endB8ue170006EPi, symObjAddr: 0xF250, symBinAddr: 0x10001234C, symSize: 0x4C }
  - { offsetInCU: 0x1E0AF, offset: 0x1E0AF, size: 0x8, addend: 0x0, symName: __ZNSt3__16vectorIiNS_9allocatorIiEEE13__vdeallocateEv, symObjAddr: 0xF29C, symBinAddr: 0x100012398, symSize: 0x94 }
  - { offsetInCU: 0x1E0E1, offset: 0x1E0E1, size: 0x8, addend: 0x0, symName: __ZNKSt3__114__copy_trivialclB8ue170006IiiLi0EEENS_4pairIPT_PT0_EES4_S4_S6_, symObjAddr: 0xF49C, symBinAddr: 0x100012598, symSize: 0x48 }
  - { offsetInCU: 0x1E149, offset: 0x1E149, size: 0x8, addend: 0x0, symName: __ZNKSt3__16vectorIiNS_9allocatorIiEEE17__annotate_shrinkB8ue170006Em, symObjAddr: 0xF668, symBinAddr: 0x100012764, symSize: 0xB4 }
  - { offsetInCU: 0x1E17E, offset: 0x1E17E, size: 0x8, addend: 0x0, symName: __ZNSt3__16vectorIiNS_9allocatorIiEEE5clearB8ue170006Ev, symObjAddr: 0xF71C, symBinAddr: 0x100012818, symSize: 0x44 }
...
