---
triple:          'arm64-apple-darwin'
binary-path:     '/Users/justinshih/college/Data_Structure/HW3/output/quiz3'
relocations:
  - { offsetInCU: 0x52, offset: 0x52, size: 0x8, addend: 0x0, symName: __ZL8mode_pre, symObjAddr: 0x43DB8, symBinAddr: 0x100010000, symSize: 0x0 }
  - { offsetInCU: 0x4897, offset: 0x4897, size: 0x8, addend: 0x0, symName: __ZNSt3__17advanceB8ue170006IPP4NodellvEEvRT_T0_, symObjAddr: 0x40C4, symBinAddr: 0x100006D54, symSize: 0x38 }
  - { offsetInCU: 0x4A44, offset: 0x4A44, size: 0x8, addend: 0x0, symName: __ZNSt3__124__put_character_sequenceB8ue170006IcNS_11char_traitsIcEEEERNS_13basic_ostreamIT_T0_EES7_PKS4_m, symObjAddr: 0x4CB0, symBinAddr: 0x100007940, symSize: 0x1F4 }
  - { offsetInCU: 0x858D, offset: 0x858D, size: 0x8, addend: 0x0, symName: __ZNSt3__1rsB8ue170006IcNS_11char_traitsIcEENS_9allocatorIcEEEERNS_13basic_istreamIT_T0_EES9_RNS_12basic_stringIS6_S7_T1_EE, symObjAddr: 0x850, symBinAddr: 0x1000034E0, symSize: 0x314 }
  - { offsetInCU: 0x865A, offset: 0x865A, size: 0x8, addend: 0x0, symName: __ZNSt3__1eqB8ue170006INS_9allocatorIcEEEEbRKNS_12basic_stringIcNS_11char_traitsIcEET_EES9_, symObjAddr: 0xB64, symBinAddr: 0x1000037F4, symSize: 0x148 }
  - { offsetInCU: 0x86CD, offset: 0x86CD, size: 0x8, addend: 0x0, symName: __ZNSt3__1lsB8ue170006INS_11char_traitsIcEEEERNS_13basic_ostreamIcT_EES6_PKc, symObjAddr: 0x14BC, symBinAddr: 0x10000414C, symSize: 0x48 }
  - { offsetInCU: 0x8713, offset: 0x8713, size: 0x8, addend: 0x0, symName: __ZNSt3__112__to_addressB8ue170006IP4NodeEEPT_S4_, symObjAddr: 0x21FC, symBinAddr: 0x100004E8C, symSize: 0x14 }
  - { offsetInCU: 0x8748, offset: 0x8748, size: 0x8, addend: 0x0, symName: __ZNSt3__13maxB8ue170006ImEERKT_S3_S3_, symObjAddr: 0x23D0, symBinAddr: 0x100005060, symSize: 0x2C }
  - { offsetInCU: 0x878B, offset: 0x878B, size: 0x8, addend: 0x0, symName: __ZNSt3__13minB8ue170006ImEERKT_S3_S3_, symObjAddr: 0x23FC, symBinAddr: 0x10000508C, symSize: 0x2C }
  - { offsetInCU: 0x89CF, offset: 0x89CF, size: 0x8, addend: 0x0, symName: __ZNSt3__13minB8ue170006ImNS_6__lessIvvEEEERKT_S5_S5_T0_, symObjAddr: 0x2488, symBinAddr: 0x100005118, symSize: 0x54 }
  - { offsetInCU: 0x8A6E, offset: 0x8A6E, size: 0x8, addend: 0x0, symName: __ZNSt3__120__throw_length_errorB8ue170006EPKc, symObjAddr: 0x2564, symBinAddr: 0x1000051F4, symSize: 0x64 }
  - { offsetInCU: 0x8A98, offset: 0x8A98, size: 0x8, addend: 0x0, symName: __ZNSt3__13maxB8ue170006ImNS_6__lessIvvEEEERKT_S5_S5_T0_, symObjAddr: 0x26A8, symBinAddr: 0x100005338, symSize: 0x54 }
  - { offsetInCU: 0x8AF2, offset: 0x8AF2, size: 0x8, addend: 0x0, symName: __ZNSt3__119__allocate_at_leastB8ue170006INS_9allocatorIP4NodeEEEENS_19__allocation_resultINS_16allocator_traitsIT_E7pointerEEERS7_m, symObjAddr: 0x280C, symBinAddr: 0x10000549C, symSize: 0x40 }
  - { offsetInCU: 0x8B35, offset: 0x8B35, size: 0x8, addend: 0x0, symName: __ZNSt3__130__libcpp_is_constant_evaluatedB8ue170006Ev, symObjAddr: 0x29BC, symBinAddr: 0x10000564C, symSize: 0xC }
  - { offsetInCU: 0x8B52, offset: 0x8B52, size: 0x8, addend: 0x0, symName: __ZNSt3__117__libcpp_allocateB8ue170006Emm, symObjAddr: 0x29C8, symBinAddr: 0x100005658, symSize: 0x28 }
  - { offsetInCU: 0x8B8F, offset: 0x8B8F, size: 0x8, addend: 0x0, symName: __ZNSt3__121__libcpp_operator_newB8ue170006IJmEEEPvDpT_, symObjAddr: 0x29F0, symBinAddr: 0x100005680, symSize: 0x24 }
  - { offsetInCU: 0x8BC8, offset: 0x8BC8, size: 0x8, addend: 0x0, symName: __ZNSt3__142__uninitialized_allocator_move_if_noexceptB8ue170006INS_9allocatorIP4NodeEENS_16reverse_iteratorIPS3_EES7_S3_vEET1_RT_T0_SB_S8_, symObjAddr: 0x2BFC, symBinAddr: 0x10000588C, symSize: 0xE8 }
  - { offsetInCU: 0x8C45, offset: 0x8C45, size: 0x8, addend: 0x0, symName: __ZNSt3__14swapB8ue170006IPP4NodeEEvRT_S5_, symObjAddr: 0x2D30, symBinAddr: 0x1000059C0, symSize: 0x3C }
  - { offsetInCU: 0x8C96, offset: 0x8C96, size: 0x8, addend: 0x0, symName: __ZNSt3__1neB8ue170006IPP4NodeS3_EEbRKNS_16reverse_iteratorIT_EERKNS4_IT0_EE, symObjAddr: 0x2E60, symBinAddr: 0x100005AF0, symSize: 0x48 }
  - { offsetInCU: 0x8D07, offset: 0x8D07, size: 0x8, addend: 0x0, symName: __ZNSt3__114__construct_atB8ue170006IP4NodeJS2_EPS2_EEPT_S5_DpOT0_, symObjAddr: 0x2EA8, symBinAddr: 0x100005B38, symSize: 0x2C }
  - { offsetInCU: 0x8D77, offset: 0x8D77, size: 0x8, addend: 0x0, symName: __ZNSt3__112__to_addressB8ue170006INS_16reverse_iteratorIPP4NodeEEvEEu7__decayIDTclsr19__to_address_helperIT_EE6__callclsr3stdE7declvalIRKS6_EEEEES8_, symObjAddr: 0x2ED4, symBinAddr: 0x100005B64, symSize: 0x24 }
  - { offsetInCU: 0x8DAD, offset: 0x8DAD, size: 0x8, addend: 0x0, symName: __ZNSt3__14moveB8ue170006INS_16reverse_iteratorIPP4NodeEES5_EET0_T_S7_S6_, symObjAddr: 0x2F40, symBinAddr: 0x100005BD0, symSize: 0x78 }
  - { offsetInCU: 0x8E30, offset: 0x8E30, size: 0x8, addend: 0x0, symName: __ZNSt3__16__moveB8ue170006INS_17_ClassicAlgPolicyENS_16reverse_iteratorIPP4NodeEES6_S6_EENS_4pairIT0_T2_EES8_T1_S9_, symObjAddr: 0x3028, symBinAddr: 0x100005CB8, symSize: 0x64 }
  - { offsetInCU: 0x8E9C, offset: 0x8E9C, size: 0x8, addend: 0x0, symName: __ZNSt3__123__dispatch_copy_or_moveB8ue170006INS_17_ClassicAlgPolicyENS_11__move_loopIS1_EENS_14__move_trivialENS_16reverse_iteratorIPP4NodeEES9_S9_EENS_4pairIT2_T4_EESB_T3_SC_, symObjAddr: 0x308C, symBinAddr: 0x100005D1C, symSize: 0x64 }
  - { offsetInCU: 0x8F1A, offset: 0x8F1A, size: 0x8, addend: 0x0, symName: __ZNSt3__121__unwrap_and_dispatchB8ue170006INS_10__overloadINS_11__move_loopINS_17_ClassicAlgPolicyEEENS_14__move_trivialEEENS_16reverse_iteratorIPP4NodeEESB_SB_Li0EEENS_4pairIT0_T2_EESD_T1_SE_, symObjAddr: 0x30F0, symBinAddr: 0x100005D80, symSize: 0x12C }
  - { offsetInCU: 0x8FAA, offset: 0x8FAA, size: 0x8, addend: 0x0, symName: __ZNSt3__114__unwrap_rangeB8ue170006INS_16reverse_iteratorIPP4NodeEES5_EENS_4pairIT0_S7_EET_S9_, symObjAddr: 0x321C, symBinAddr: 0x100005EAC, symSize: 0x84 }
  - { offsetInCU: 0x90FE, offset: 0x90FE, size: 0x8, addend: 0x0, symName: __ZNSt3__113__unwrap_iterB8ue170006INS_16reverse_iteratorIPP4NodeEENS_18__unwrap_iter_implIS5_Lb0EEELi0EEEDTclsrT0_8__unwrapclsr3stdE7declvalIT_EEEES9_, symObjAddr: 0x3340, symBinAddr: 0x100005FD0, symSize: 0x44 }
  - { offsetInCU: 0x9142, offset: 0x9142, size: 0x8, addend: 0x0, symName: __ZNSt3__19make_pairB8ue170006INS_16reverse_iteratorIPP4NodeEES5_EENS_4pairINS_18__unwrap_ref_decayIT_E4typeENS7_IT0_E4typeEEEOS8_OSB_, symObjAddr: 0x3384, symBinAddr: 0x100006014, symSize: 0x38 }
  - { offsetInCU: 0x9191, offset: 0x9191, size: 0x8, addend: 0x0, symName: __ZNSt3__114__rewrap_rangeB8ue170006INS_16reverse_iteratorIPP4NodeEES5_EET_S6_T0_, symObjAddr: 0x33BC, symBinAddr: 0x10000604C, symSize: 0x5C }
  - { offsetInCU: 0x91DD, offset: 0x91DD, size: 0x8, addend: 0x0, symName: __ZNSt3__113__rewrap_iterB8ue170006INS_16reverse_iteratorIPP4NodeEES5_NS_18__unwrap_iter_implIS5_Lb0EEEEET_S8_T0_, symObjAddr: 0x3418, symBinAddr: 0x1000060A8, symSize: 0x88 }
  - { offsetInCU: 0x92E4, offset: 0x92E4, size: 0x8, addend: 0x0, symName: __ZNSt3__119__libcpp_deallocateB8ue170006EPvmm, symObjAddr: 0x3840, symBinAddr: 0x1000064D0, symSize: 0x30 }
  - { offsetInCU: 0x932C, offset: 0x932C, size: 0x8, addend: 0x0, symName: __ZNSt3__127__do_deallocate_handle_sizeB8ue170006IJEEEvPvmDpT_, symObjAddr: 0x3870, symBinAddr: 0x100006500, symSize: 0x28 }
  - { offsetInCU: 0x936A, offset: 0x936A, size: 0x8, addend: 0x0, symName: __ZNSt3__124__libcpp_operator_deleteB8ue170006IJPvEEEvDpT_, symObjAddr: 0x3898, symBinAddr: 0x100006528, symSize: 0x24 }
  - { offsetInCU: 0x939F, offset: 0x939F, size: 0x8, addend: 0x0, symName: __ZNSt3__18distanceB8ue170006IPP4NodeEENS_15iterator_traitsIT_E15difference_typeES5_S5_, symObjAddr: 0x3E0C, symBinAddr: 0x100006A9C, symSize: 0x2C }
  - { offsetInCU: 0x93E2, offset: 0x93E2, size: 0x8, addend: 0x0, symName: __ZNSt3__14nextB8ue170006IPP4NodeEENS_9enable_ifIXsr29__has_input_iterator_categoryIT_EE5valueES5_E4typeES5_NS_15iterator_traitsIS5_E15difference_typeE, symObjAddr: 0x3E38, symBinAddr: 0x100006AC8, symSize: 0x34 }
  - { offsetInCU: 0x9425, offset: 0x9425, size: 0x8, addend: 0x0, symName: __ZNSt3__14copyB8ue170006IPP4NodeS3_EET0_T_S5_S4_, symObjAddr: 0x3E6C, symBinAddr: 0x100006AFC, symSize: 0x40 }
  - { offsetInCU: 0x947F, offset: 0x947F, size: 0x8, addend: 0x0, symName: __ZNSt3__16__copyB8ue170006INS_17_ClassicAlgPolicyEPP4NodeS4_S4_EENS_4pairIT0_T2_EES6_T1_S7_, symObjAddr: 0x3F40, symBinAddr: 0x100006BD0, symSize: 0x44 }
  - { offsetInCU: 0x94EB, offset: 0x94EB, size: 0x8, addend: 0x0, symName: __ZNSt3__121__convert_to_integralB8ue170006El, symObjAddr: 0x40FC, symBinAddr: 0x100006D8C, symSize: 0x14 }
  - { offsetInCU: 0x9517, offset: 0x9517, size: 0x8, addend: 0x0, symName: __ZNSt3__19__advanceB8ue170006IPP4NodeEEvRT_NS_15iterator_traitsIS4_E15difference_typeENS_26random_access_iterator_tagE, symObjAddr: 0x4110, symBinAddr: 0x100006DA0, symSize: 0x28 }
  - { offsetInCU: 0x9560, offset: 0x9560, size: 0x8, addend: 0x0, symName: __ZNSt3__130__uninitialized_allocator_copyB8ue170006INS_9allocatorIP4NodeEEPS3_S5_S5_EET2_RT_T0_T1_S6_, symObjAddr: 0x4138, symBinAddr: 0x100006DC8, symSize: 0x80 }
  - { offsetInCU: 0x95FD, offset: 0x95FD, size: 0x8, addend: 0x0, symName: __ZNSt3__114__unwrap_rangeB8ue170006IPP4NodeS3_EENS_4pairIT0_S5_EET_S7_, symObjAddr: 0x41B8, symBinAddr: 0x100006E48, symSize: 0x60 }
  - { offsetInCU: 0x9649, offset: 0x9649, size: 0x8, addend: 0x0, symName: __ZNSt3__135__uninitialized_allocator_copy_implB8ue170006INS_9allocatorIP4NodeEEPS3_S5_S5_EET2_RT_T0_T1_S6_, symObjAddr: 0x4218, symBinAddr: 0x100006EA8, symSize: 0xFC }
  - { offsetInCU: 0x96E7, offset: 0x96E7, size: 0x8, addend: 0x0, symName: __ZNSt3__113__unwrap_iterB8ue170006IPP4NodeNS_18__unwrap_iter_implIS3_Lb1EEELi0EEEDTclsrT0_8__unwrapclsr3stdE7declvalIT_EEEES7_, symObjAddr: 0x4314, symBinAddr: 0x100006FA4, symSize: 0x24 }
  - { offsetInCU: 0x972B, offset: 0x972B, size: 0x8, addend: 0x0, symName: __ZNSt3__113__rewrap_iterB8ue170006IPP4NodeS3_NS_18__unwrap_iter_implIS3_Lb1EEEEET_S6_T0_, symObjAddr: 0x4338, symBinAddr: 0x100006FC8, symSize: 0x50 }
  - { offsetInCU: 0x9780, offset: 0x9780, size: 0x8, addend: 0x0, symName: __ZNSt3__19make_pairB8ue170006IPP4NodeS3_EENS_4pairINS_18__unwrap_ref_decayIT_E4typeENS5_IT0_E4typeEEEOS6_OS9_, symObjAddr: 0x4388, symBinAddr: 0x100007018, symSize: 0x38 }
  - { offsetInCU: 0x987C, offset: 0x987C, size: 0x8, addend: 0x0, symName: __ZNSt3__122__make_exception_guardB8ue170006INS_29_AllocatorDestroyRangeReverseINS_9allocatorIP4NodeEEPS4_EEEENS_28__exception_guard_exceptionsIT_EES9_, symObjAddr: 0x4430, symBinAddr: 0x1000070C0, symSize: 0x4C }
  - { offsetInCU: 0x98B2, offset: 0x98B2, size: 0x8, addend: 0x0, symName: __ZNSt3__119__allocator_destroyB8ue170006INS_9allocatorIP4NodeEENS_16reverse_iteratorIPS3_EES7_EEvRT_T0_T1_, symObjAddr: 0x46B0, symBinAddr: 0x100007340, symSize: 0x70 }
  - { offsetInCU: 0x9968, offset: 0x9968, size: 0x8, addend: 0x0, symName: __ZNSt3__123__dispatch_copy_or_moveB8ue170006INS_17_ClassicAlgPolicyENS_11__copy_loopIS1_EENS_14__copy_trivialEPP4NodeS7_S7_EENS_4pairIT2_T4_EES9_T3_SA_, symObjAddr: 0x4794, symBinAddr: 0x100007424, symSize: 0x44 }
  - { offsetInCU: 0x99E6, offset: 0x99E6, size: 0x8, addend: 0x0, symName: __ZNSt3__121__unwrap_and_dispatchB8ue170006INS_10__overloadINS_11__copy_loopINS_17_ClassicAlgPolicyEEENS_14__copy_trivialEEEPP4NodeS9_S9_Li0EEENS_4pairIT0_T2_EESB_T1_SC_, symObjAddr: 0x47D8, symBinAddr: 0x100007468, symSize: 0xB4 }
  - { offsetInCU: 0x9ABA, offset: 0x9ABA, size: 0x8, addend: 0x0, symName: __ZNSt3__114__rewrap_rangeB8ue170006IPP4NodeS3_EET_S4_T0_, symObjAddr: 0x48D4, symBinAddr: 0x100007564, symSize: 0x2C }
  - { offsetInCU: 0x9B06, offset: 0x9B06, size: 0x8, addend: 0x0, symName: __ZNSt3__119__copy_trivial_implB8ue170006IP4NodeS2_EENS_4pairIPT_PT0_EES5_S5_S7_, symObjAddr: 0x4900, symBinAddr: 0x100007590, symSize: 0x80 }
  - { offsetInCU: 0x9B6E, offset: 0x9B6E, size: 0x8, addend: 0x0, symName: __ZNSt3__119__constexpr_memmoveB8ue170006IP4NodeS2_Li0EEEPT_S4_PT0_NS_15__element_countE, symObjAddr: 0x4980, symBinAddr: 0x100007610, symSize: 0xA0 }
  - { offsetInCU: 0x9BDC, offset: 0x9BDC, size: 0x8, addend: 0x0, symName: __ZNSt3__19make_pairB8ue170006IRPP4NodeS3_EENS_4pairINS_18__unwrap_ref_decayIT_E4typeENS6_IT0_E4typeEEEOS7_OSA_, symObjAddr: 0x4A20, symBinAddr: 0x1000076B0, symSize: 0x38 }
  - { offsetInCU: 0x9C2B, offset: 0x9C2B, size: 0x8, addend: 0x0, symName: __ZNSt3__110__distanceB8ue170006IPP4NodeEENS_15iterator_traitsIT_E15difference_typeES5_S5_NS_26random_access_iterator_tagE, symObjAddr: 0x4A9C, symBinAddr: 0x10000772C, symSize: 0x28 }
  - { offsetInCU: 0x9C78, offset: 0x9C78, size: 0x8, addend: 0x0, symName: __ZNSt3__118__constexpr_strlenB8ue170006EPKc, symObjAddr: 0x4C8C, symBinAddr: 0x10000791C, symSize: 0x24 }
  - { offsetInCU: 0x9CA4, offset: 0x9CA4, size: 0x8, addend: 0x0, symName: __ZNSt3__116__pad_and_outputB8ue170006IcNS_11char_traitsIcEEEENS_19ostreambuf_iteratorIT_T0_EES6_PKS4_S8_S8_RNS_8ios_baseES4_, symObjAddr: 0x4EC0, symBinAddr: 0x100007B50, symSize: 0x248 }
  - { offsetInCU: 0x9D73, offset: 0x9D73, size: 0x8, addend: 0x0, symName: __ZNSt3__112__to_addressB8ue170006IKcEEPT_S3_, symObjAddr: 0x5338, symBinAddr: 0x100007FC8, symSize: 0x14 }
  - { offsetInCU: 0x9DDB, offset: 0x9DDB, size: 0x8, addend: 0x0, symName: __ZNSt3__19use_facetB8ue170006INS_5ctypeIcEEEERKT_RKNS_6localeE, symObjAddr: 0x5610, symBinAddr: 0x1000082A0, symSize: 0x2C }
  - { offsetInCU: 0xA1B9, offset: 0xA1B9, size: 0x8, addend: 0x0, symName: __ZNSt3__122__make_exception_guardB8ue170006INS_6vectorI4TreeNS_9allocatorIS2_EEE16__destroy_vectorEEENS_28__exception_guard_exceptionsIT_EES8_, symObjAddr: 0x58D4, symBinAddr: 0x100008564, symSize: 0x40 }
  - { offsetInCU: 0xA1EE, offset: 0xA1EE, size: 0x8, addend: 0x0, symName: __ZNSt3__119__allocate_at_leastB8ue170006INS_9allocatorI4TreeEEEENS_19__allocation_resultINS_16allocator_traitsIT_E7pointerEEERS6_m, symObjAddr: 0x5CE4, symBinAddr: 0x100008974, symSize: 0x40 }
  - { offsetInCU: 0xA231, offset: 0xA231, size: 0x8, addend: 0x0, symName: __ZNSt3__112__to_addressB8ue170006I4TreeEEPT_S3_, symObjAddr: 0x605C, symBinAddr: 0x100008CEC, symSize: 0x14 }
  - { offsetInCU: 0xAA26, offset: 0xAA26, size: 0x8, addend: 0x0, symName: __ZNSt3__122__make_exception_guardB8ue170006INS_6vectorIP4NodeNS_9allocatorIS3_EEE16__destroy_vectorEEENS_28__exception_guard_exceptionsIT_EES9_, symObjAddr: 0x7380, symBinAddr: 0x10000A010, symSize: 0x40 }
  - { offsetInCU: 0xAA5B, offset: 0xAA5B, size: 0x8, addend: 0x0, symName: __ZNSt3__142__uninitialized_allocator_move_if_noexceptB8ue170006INS_9allocatorI4TreeEENS_16reverse_iteratorIPS2_EES6_S6_EET2_RT_T0_T1_S7_, symObjAddr: 0x7914, symBinAddr: 0x10000A5A4, symSize: 0x134 }
  - { offsetInCU: 0xAAFB, offset: 0xAAFB, size: 0x8, addend: 0x0, symName: __ZNSt3__14swapB8ue170006IP4TreeEEvRT_S4_, symObjAddr: 0x7A94, symBinAddr: 0x10000A724, symSize: 0x3C }
  - { offsetInCU: 0xAB4C, offset: 0xAB4C, size: 0x8, addend: 0x0, symName: __ZNSt3__122__make_exception_guardB8ue170006INS_29_AllocatorDestroyRangeReverseINS_9allocatorI4TreeEENS_16reverse_iteratorIPS3_EEEEEENS_28__exception_guard_exceptionsIT_EESA_, symObjAddr: 0x7AD0, symBinAddr: 0x10000A760, symSize: 0x4C }
  - { offsetInCU: 0xAB82, offset: 0xAB82, size: 0x8, addend: 0x0, symName: __ZNSt3__1neB8ue170006IP4TreeS2_EEbRKNS_16reverse_iteratorIT_EERKNS3_IT0_EE, symObjAddr: 0x7B60, symBinAddr: 0x10000A7F0, symSize: 0x48 }
  - { offsetInCU: 0xABCE, offset: 0xABCE, size: 0x8, addend: 0x0, symName: __ZNSt3__112__to_addressB8ue170006INS_16reverse_iteratorIP4TreeEEvEEu7__decayIDTclsr19__to_address_helperIT_EE6__callclsr3stdE7declvalIRKS5_EEEEES7_, symObjAddr: 0x7BDC, symBinAddr: 0x10000A86C, symSize: 0x24 }
  - { offsetInCU: 0xAC2D, offset: 0xAC2D, size: 0x8, addend: 0x0, symName: __ZNSt3__119__allocator_destroyB8ue170006INS_9allocatorI4TreeEENS_16reverse_iteratorINS4_IPS2_EEEES7_EEvRT_T0_T1_, symObjAddr: 0x7EC8, symBinAddr: 0x10000AB58, symSize: 0x70 }
  - { offsetInCU: 0xAC92, offset: 0xAC92, size: 0x8, addend: 0x0, symName: __ZNSt3__1neB8ue170006INS_16reverse_iteratorIP4TreeEES4_EEbRKNS1_IT_EERKNS1_IT0_EE, symObjAddr: 0x7F74, symBinAddr: 0x10000AC04, symSize: 0x60 }
  - { offsetInCU: 0xACDE, offset: 0xACDE, size: 0x8, addend: 0x0, symName: __ZNSt3__112__to_addressB8ue170006INS_16reverse_iteratorINS1_IP4TreeEEEEvEEu7__decayIDTclsr19__to_address_helperIT_EE6__callclsr3stdE7declvalIRKS6_EEEEES8_, symObjAddr: 0x7FD4, symBinAddr: 0x10000AC64, symSize: 0x24 }
  - { offsetInCU: 0xAFAC, offset: 0xAFAC, size: 0x8, addend: 0x0, symName: __ZSt28__throw_bad_array_new_lengthB8ue170006v, symObjAddr: 0x2988, symBinAddr: 0x100005618, symSize: 0x34 }
  - { offsetInCU: 0xB16E, offset: 0xB16E, size: 0x8, addend: 0x0, symName: __ZL7mode_in, symObjAddr: 0x43DD0, symBinAddr: 0x100010018, symSize: 0x0 }
  - { offsetInCU: 0xB187, offset: 0xB187, size: 0x8, addend: 0x0, symName: __ZL9mode_post, symObjAddr: 0x43DE8, symBinAddr: 0x100010030, symSize: 0x0 }
  - { offsetInCU: 0xB1A0, offset: 0xB1A0, size: 0x8, addend: 0x0, symName: __ZL10com_insert, symObjAddr: 0x43E00, symBinAddr: 0x100010048, symSize: 0x0 }
  - { offsetInCU: 0xB1B9, offset: 0xB1B9, size: 0x8, addend: 0x0, symName: __ZL10com_delete, symObjAddr: 0x43E18, symBinAddr: 0x100010060, symSize: 0x0 }
  - { offsetInCU: 0xB1D2, offset: 0xB1D2, size: 0x8, addend: 0x0, symName: __ZL9com_print, symObjAddr: 0x43E30, symBinAddr: 0x100010078, symSize: 0x0 }
  - { offsetInCU: 0xB1EB, offset: 0xB1EB, size: 0x8, addend: 0x0, symName: __ZL7com_max, symObjAddr: 0x43E48, symBinAddr: 0x100010090, symSize: 0x0 }
  - { offsetInCU: 0xB204, offset: 0xB204, size: 0x8, addend: 0x0, symName: __ZL9com_merge, symObjAddr: 0x43E60, symBinAddr: 0x1000100A8, symSize: 0x0 }
  - { offsetInCU: 0xB21D, offset: 0xB21D, size: 0x8, addend: 0x0, symName: __ZL12com_disjoint, symObjAddr: 0x43E78, symBinAddr: 0x1000100C0, symSize: 0x0 }
  - { offsetInCU: 0xB574, offset: 0xB574, size: 0x8, addend: 0x0, symName: __ZNSt3__16vectorIP4NodeNS_9allocatorIS2_EEE26__swap_out_circular_bufferERNS_14__split_bufferIS2_RS4_EE, symObjAddr: 0x2018, symBinAddr: 0x100004CA8, symSize: 0x110 }
  - { offsetInCU: 0xBA1E, offset: 0xBA1E, size: 0x8, addend: 0x0, symName: __ZNSt3__16vectorI4TreeNS_9allocatorIS1_EEE26__swap_out_circular_bufferERNS_14__split_bufferIS1_RS3_EE, symObjAddr: 0x75A0, symBinAddr: 0x10000A230, symSize: 0x110 }
  - { offsetInCU: 0xDE36, offset: 0xDE36, size: 0x8, addend: 0x0, symName: __ZNSt3__112basic_stringIcNS_11char_traitsIcEENS_9allocatorIcEEEC1B8ue170006ILi0EEEPKc, symObjAddr: 0x0, symBinAddr: 0x100002C90, symSize: 0x34 }
  - { offsetInCU: 0xDE75, offset: 0xDE75, size: 0x8, addend: 0x0, symName: _main, symObjAddr: 0x34, symBinAddr: 0x100002CC4, symSize: 0x7BC }
  - { offsetInCU: 0xE03A, offset: 0xE03A, size: 0x8, addend: 0x0, symName: __ZNSt3__16vectorI4TreeNS_9allocatorIS1_EEEC1Em, symObjAddr: 0x7F0, symBinAddr: 0x100003480, symSize: 0x34 }
  - { offsetInCU: 0xE075, offset: 0xE075, size: 0x8, addend: 0x0, symName: __ZNSt3__112basic_stringIcNS_11char_traitsIcEENS_9allocatorIcEEEC1B8ue170006Ev, symObjAddr: 0x824, symBinAddr: 0x1000034B4, symSize: 0x2C }
  - { offsetInCU: 0xE09F, offset: 0xE09F, size: 0x8, addend: 0x0, symName: __ZNSt3__16vectorI4TreeNS_9allocatorIS1_EEEixB8ue170006Em, symObjAddr: 0xCAC, symBinAddr: 0x10000393C, symSize: 0x2C }
  - { offsetInCU: 0xE0D6, offset: 0xE0D6, size: 0x8, addend: 0x0, symName: __ZN4Tree6insertEii, symObjAddr: 0xCD8, symBinAddr: 0x100003968, symSize: 0x1F8 }
  - { offsetInCU: 0xE126, offset: 0xE126, size: 0x8, addend: 0x0, symName: __ZN4Tree10deleteNodeEi, symObjAddr: 0xED0, symBinAddr: 0x100003B60, symSize: 0xE0 }
  - { offsetInCU: 0xE15A, offset: 0xE15A, size: 0x8, addend: 0x0, symName: __ZN4Tree5printENSt3__112basic_stringIcNS0_11char_traitsIcEENS0_9allocatorIcEEEE, symObjAddr: 0xFB0, symBinAddr: 0x100003C40, symSize: 0xF0 }
  - { offsetInCU: 0xE18F, offset: 0xE18F, size: 0x8, addend: 0x0, symName: __ZN4Tree9print_maxEv, symObjAddr: 0x10AC, symBinAddr: 0x100003D3C, symSize: 0x5C }
  - { offsetInCU: 0xE1B5, offset: 0xE1B5, size: 0x8, addend: 0x0, symName: __ZN4TreeC1Ev, symObjAddr: 0x1108, symBinAddr: 0x100003D98, symSize: 0x2C }
  - { offsetInCU: 0xE1DF, offset: 0xE1DF, size: 0x8, addend: 0x0, symName: __ZN4Tree10setSubtreeERS_i, symObjAddr: 0x1134, symBinAddr: 0x100003DC4, symSize: 0x174 }
  - { offsetInCU: 0xE23E, offset: 0xE23E, size: 0x8, addend: 0x0, symName: __ZN4TreeaSERKS_, symObjAddr: 0x12A8, symBinAddr: 0x100003F38, symSize: 0x54 }
  - { offsetInCU: 0xE26F, offset: 0xE26F, size: 0x8, addend: 0x0, symName: __ZN4TreeD1Ev, symObjAddr: 0x12FC, symBinAddr: 0x100003F8C, symSize: 0x2C }
  - { offsetInCU: 0xE29B, offset: 0xE29B, size: 0x8, addend: 0x0, symName: __ZNSt3__16vectorIP4NodeNS_9allocatorIS2_EEEixB8ue170006Em, symObjAddr: 0x1328, symBinAddr: 0x100003FB8, symSize: 0x24 }
  - { offsetInCU: 0xE2D2, offset: 0xE2D2, size: 0x8, addend: 0x0, symName: __ZNSt3__16vectorI4TreeNS_9allocatorIS1_EEE9push_backB8ue170006EOS1_, symObjAddr: 0x134C, symBinAddr: 0x100003FDC, symSize: 0x6C }
  - { offsetInCU: 0xE309, offset: 0xE309, size: 0x8, addend: 0x0, symName: __ZN4Tree11setDisjointEP4Node, symObjAddr: 0x13B8, symBinAddr: 0x100004048, symSize: 0x98 }
  - { offsetInCU: 0xE33D, offset: 0xE33D, size: 0x8, addend: 0x0, symName: __ZN4Node11deleteChildEPS_, symObjAddr: 0x1450, symBinAddr: 0x1000040E0, symSize: 0x6C }
  - { offsetInCU: 0xE371, offset: 0xE371, size: 0x8, addend: 0x0, symName: __ZNSt3__16vectorI4TreeNS_9allocatorIS1_EEED1B8ue170006Ev, symObjAddr: 0x1504, symBinAddr: 0x100004194, symSize: 0x2C }
  - { offsetInCU: 0xE39B, offset: 0xE39B, size: 0x8, addend: 0x0, symName: __ZN4NodeC1Ei, symObjAddr: 0x1530, symBinAddr: 0x1000041C0, symSize: 0x34 }
  - { offsetInCU: 0xE3D3, offset: 0xE3D3, size: 0x8, addend: 0x0, symName: __ZN4NodeC2Ei, symObjAddr: 0x1564, symBinAddr: 0x1000041F4, symSize: 0x2C }
  - { offsetInCU: 0xE40B, offset: 0xE40B, size: 0x8, addend: 0x0, symName: __ZN4Tree9delete_opEP4Node, symObjAddr: 0x1590, symBinAddr: 0x100004220, symSize: 0xF8 }
  - { offsetInCU: 0xE43F, offset: 0xE43F, size: 0x8, addend: 0x0, symName: __ZN4Tree6setMaxEv, symObjAddr: 0x1688, symBinAddr: 0x100004318, symSize: 0xD0 }
  - { offsetInCU: 0xE482, offset: 0xE482, size: 0x8, addend: 0x0, symName: __ZN4Tree7inorderEP4Node, symObjAddr: 0x1758, symBinAddr: 0x1000043E8, symSize: 0x84 }
  - { offsetInCU: 0xE4B6, offset: 0xE4B6, size: 0x8, addend: 0x0, symName: __ZN4Tree8perorderEP4Node, symObjAddr: 0x17DC, symBinAddr: 0x10000446C, symSize: 0x80 }
  - { offsetInCU: 0xE4EA, offset: 0xE4EA, size: 0x8, addend: 0x0, symName: __ZN4Tree9postorderEP4Node, symObjAddr: 0x185C, symBinAddr: 0x1000044EC, symSize: 0x80 }
  - { offsetInCU: 0xE51E, offset: 0xE51E, size: 0x8, addend: 0x0, symName: __ZN4TreeC2Ev, symObjAddr: 0x18DC, symBinAddr: 0x10000456C, symSize: 0x8C }
  - { offsetInCU: 0xE548, offset: 0xE548, size: 0x8, addend: 0x0, symName: __ZNSt3__16vectorIP4NodeNS_9allocatorIS2_EEEC1B8ue170006Ev, symObjAddr: 0x1968, symBinAddr: 0x1000045F8, symSize: 0x2C }
  - { offsetInCU: 0xE572, offset: 0xE572, size: 0x8, addend: 0x0, symName: __ZNSt3__16vectorIP4NodeNS_9allocatorIS2_EEE6resizeEmRKS2_, symObjAddr: 0x1994, symBinAddr: 0x100004624, symSize: 0x9C }
  - { offsetInCU: 0xE5C7, offset: 0xE5C7, size: 0x8, addend: 0x0, symName: __ZNSt3__16vectorIP4NodeNS_9allocatorIS2_EEED1B8ue170006Ev, symObjAddr: 0x1A30, symBinAddr: 0x1000046C0, symSize: 0x2C }
  - { offsetInCU: 0xE5F1, offset: 0xE5F1, size: 0x8, addend: 0x0, symName: __ZNSt3__16vectorIP4NodeNS_9allocatorIS2_EEEC2B8ue170006Ev, symObjAddr: 0x1A5C, symBinAddr: 0x1000046EC, symSize: 0x44 }
  - { offsetInCU: 0xE627, offset: 0xE627, size: 0x8, addend: 0x0, symName: __ZNSt3__117__compressed_pairIPP4NodeNS_9allocatorIS2_EEEC1B8ue170006IDnNS_18__default_init_tagEEEOT_OT0_, symObjAddr: 0x1AA0, symBinAddr: 0x100004730, symSize: 0x3C }
  - { offsetInCU: 0xE67F, offset: 0xE67F, size: 0x8, addend: 0x0, symName: __ZNSt3__117__compressed_pairIPP4NodeNS_9allocatorIS2_EEEC2B8ue170006IDnNS_18__default_init_tagEEEOT_OT0_, symObjAddr: 0x1ADC, symBinAddr: 0x10000476C, symSize: 0x40 }
  - { offsetInCU: 0xE6D7, offset: 0xE6D7, size: 0x8, addend: 0x0, symName: __ZNSt3__122__compressed_pair_elemIPP4NodeLi0ELb0EEC2B8ue170006IDnvEEOT_, symObjAddr: 0x1B1C, symBinAddr: 0x1000047AC, symSize: 0x1C }
  - { offsetInCU: 0xE719, offset: 0xE719, size: 0x8, addend: 0x0, symName: __ZNSt3__122__compressed_pair_elemINS_9allocatorIP4NodeEELi1ELb1EEC2B8ue170006ENS_18__default_init_tagE, symObjAddr: 0x1B38, symBinAddr: 0x1000047C8, symSize: 0x2C }
  - { offsetInCU: 0xE74D, offset: 0xE74D, size: 0x8, addend: 0x0, symName: __ZNSt3__19allocatorIP4NodeEC2B8ue170006Ev, symObjAddr: 0x1B64, symBinAddr: 0x1000047F4, symSize: 0x2C }
  - { offsetInCU: 0xE777, offset: 0xE777, size: 0x8, addend: 0x0, symName: __ZNSt3__116__non_trivial_ifILb1ENS_9allocatorIP4NodeEEEC2B8ue170006Ev, symObjAddr: 0x1B90, symBinAddr: 0x100004820, symSize: 0x14 }
  - { offsetInCU: 0xE7A1, offset: 0xE7A1, size: 0x8, addend: 0x0, symName: __ZNKSt3__16vectorIP4NodeNS_9allocatorIS2_EEE4sizeB8ue170006Ev, symObjAddr: 0x1BA4, symBinAddr: 0x100004834, symSize: 0x28 }
  - { offsetInCU: 0xE7C7, offset: 0xE7C7, size: 0x8, addend: 0x0, symName: __ZNSt3__16vectorIP4NodeNS_9allocatorIS2_EEE8__appendEmRKS2_, symObjAddr: 0x1BCC, symBinAddr: 0x10000485C, symSize: 0x11C }
  - { offsetInCU: 0xE831, offset: 0xE831, size: 0x8, addend: 0x0, symName: __ZNSt3__16vectorIP4NodeNS_9allocatorIS2_EEE17__destruct_at_endB8ue170006EPS2_, symObjAddr: 0x1CE8, symBinAddr: 0x100004978, symSize: 0x4C }
  - { offsetInCU: 0xE875, offset: 0xE875, size: 0x8, addend: 0x0, symName: __ZNSt3__16vectorIP4NodeNS_9allocatorIS2_EEE9__end_capB8ue170006Ev, symObjAddr: 0x1D34, symBinAddr: 0x1000049C4, symSize: 0x28 }
  - { offsetInCU: 0xE89B, offset: 0xE89B, size: 0x8, addend: 0x0, symName: __ZNSt3__16vectorIP4NodeNS_9allocatorIS2_EEE18__construct_at_endEmRKS2_, symObjAddr: 0x1D5C, symBinAddr: 0x1000049EC, symSize: 0xD8 }
  - { offsetInCU: 0xE91D, offset: 0xE91D, size: 0x8, addend: 0x0, symName: __ZNSt3__16vectorIP4NodeNS_9allocatorIS2_EEE7__allocB8ue170006Ev, symObjAddr: 0x1E34, symBinAddr: 0x100004AC4, symSize: 0x28 }
  - { offsetInCU: 0xE943, offset: 0xE943, size: 0x8, addend: 0x0, symName: __ZNKSt3__16vectorIP4NodeNS_9allocatorIS2_EEE11__recommendB8ue170006Em, symObjAddr: 0x1E5C, symBinAddr: 0x100004AEC, symSize: 0xB4 }
  - { offsetInCU: 0xE998, offset: 0xE998, size: 0x8, addend: 0x0, symName: __ZNSt3__114__split_bufferIP4NodeRNS_9allocatorIS2_EEEC1EmmS5_, symObjAddr: 0x1F10, symBinAddr: 0x100004BA0, symSize: 0x44 }
  - { offsetInCU: 0xE9EE, offset: 0xE9EE, size: 0x8, addend: 0x0, symName: __ZNSt3__114__split_bufferIP4NodeRNS_9allocatorIS2_EEE18__construct_at_endEmRKS2_, symObjAddr: 0x1F54, symBinAddr: 0x100004BE4, symSize: 0xC4 }
  - { offsetInCU: 0xEA41, offset: 0xEA41, size: 0x8, addend: 0x0, symName: __ZNSt3__114__split_bufferIP4NodeRNS_9allocatorIS2_EEED1Ev, symObjAddr: 0x2128, symBinAddr: 0x100004DB8, symSize: 0x2C }
  - { offsetInCU: 0xEA6D, offset: 0xEA6D, size: 0x8, addend: 0x0, symName: __ZNSt3__117__compressed_pairIPP4NodeNS_9allocatorIS2_EEE5firstB8ue170006Ev, symObjAddr: 0x2154, symBinAddr: 0x100004DE4, symSize: 0x24 }
  - { offsetInCU: 0xEA93, offset: 0xEA93, size: 0x8, addend: 0x0, symName: __ZNSt3__122__compressed_pair_elemIPP4NodeLi0ELb0EE5__getB8ue170006Ev, symObjAddr: 0x2178, symBinAddr: 0x100004E08, symSize: 0x14 }
  - { offsetInCU: 0xEAD2, offset: 0xEAD2, size: 0x8, addend: 0x0, symName: __ZNSt3__16vectorIP4NodeNS_9allocatorIS2_EEE21_ConstructTransactionC1B8ue170006ERS5_m, symObjAddr: 0x218C, symBinAddr: 0x100004E1C, symSize: 0x3C }
  - { offsetInCU: 0xEB1A, offset: 0xEB1A, size: 0x8, addend: 0x0, symName: __ZNSt3__116allocator_traitsINS_9allocatorIP4NodeEEE9constructB8ue170006IS3_JRKS3_EvEEvRS4_PT_DpOT0_, symObjAddr: 0x21C8, symBinAddr: 0x100004E58, symSize: 0x34 }
  - { offsetInCU: 0xEB71, offset: 0xEB71, size: 0x8, addend: 0x0, symName: __ZNSt3__16vectorIP4NodeNS_9allocatorIS2_EEE21_ConstructTransactionD1B8ue170006Ev, symObjAddr: 0x2210, symBinAddr: 0x100004EA0, symSize: 0x2C }
  - { offsetInCU: 0xEB9B, offset: 0xEB9B, size: 0x8, addend: 0x0, symName: __ZNSt3__16vectorIP4NodeNS_9allocatorIS2_EEE21_ConstructTransactionC2B8ue170006ERS5_m, symObjAddr: 0x223C, symBinAddr: 0x100004ECC, symSize: 0x44 }
  - { offsetInCU: 0xEBE3, offset: 0xEBE3, size: 0x8, addend: 0x0, symName: __ZNSt3__19allocatorIP4NodeE9constructB8ue170006IS2_JRKS2_EEEvPT_DpOT0_, symObjAddr: 0x2280, symBinAddr: 0x100004F10, symSize: 0x28 }
  - { offsetInCU: 0xEC39, offset: 0xEC39, size: 0x8, addend: 0x0, symName: __ZNSt3__16vectorIP4NodeNS_9allocatorIS2_EEE21_ConstructTransactionD2B8ue170006Ev, symObjAddr: 0x22A8, symBinAddr: 0x100004F38, symSize: 0x20 }
  - { offsetInCU: 0xEC63, offset: 0xEC63, size: 0x8, addend: 0x0, symName: __ZNSt3__117__compressed_pairIPP4NodeNS_9allocatorIS2_EEE6secondB8ue170006Ev, symObjAddr: 0x22C8, symBinAddr: 0x100004F58, symSize: 0x24 }
  - { offsetInCU: 0xEC89, offset: 0xEC89, size: 0x8, addend: 0x0, symName: __ZNSt3__122__compressed_pair_elemINS_9allocatorIP4NodeEELi1ELb1EE5__getB8ue170006Ev, symObjAddr: 0x22EC, symBinAddr: 0x100004F7C, symSize: 0x14 }
  - { offsetInCU: 0xECAF, offset: 0xECAF, size: 0x8, addend: 0x0, symName: __ZNKSt3__16vectorIP4NodeNS_9allocatorIS2_EEE8max_sizeEv, symObjAddr: 0x2300, symBinAddr: 0x100004F90, symSize: 0x74 }
  - { offsetInCU: 0xECD7, offset: 0xECD7, size: 0x8, addend: 0x0, symName: __ZNKSt3__16vectorIP4NodeNS_9allocatorIS2_EEE20__throw_length_errorB8ue170006Ev, symObjAddr: 0x2374, symBinAddr: 0x100005004, symSize: 0x1C }
  - { offsetInCU: 0xECFD, offset: 0xECFD, size: 0x8, addend: 0x0, symName: __ZNKSt3__16vectorIP4NodeNS_9allocatorIS2_EEE8capacityB8ue170006Ev, symObjAddr: 0x2390, symBinAddr: 0x100005020, symSize: 0x40 }
  - { offsetInCU: 0xED2D, offset: 0xED2D, size: 0x8, addend: 0x0, symName: __ZNSt3__116allocator_traitsINS_9allocatorIP4NodeEEE8max_sizeB8ue170006IS4_vEEmRKS4_, symObjAddr: 0x2428, symBinAddr: 0x1000050B8, symSize: 0x24 }
  - { offsetInCU: 0xED5B, offset: 0xED5B, size: 0x8, addend: 0x0, symName: __ZNKSt3__16vectorIP4NodeNS_9allocatorIS2_EEE7__allocB8ue170006Ev, symObjAddr: 0x244C, symBinAddr: 0x1000050DC, symSize: 0x28 }
  - { offsetInCU: 0xED81, offset: 0xED81, size: 0x8, addend: 0x0, symName: __ZNSt3__114numeric_limitsIlE3maxB8ue170006Ev, symObjAddr: 0x2474, symBinAddr: 0x100005104, symSize: 0x14 }
  - { offsetInCU: 0xEDA9, offset: 0xEDA9, size: 0x8, addend: 0x0, symName: __ZNKSt3__16__lessIvvEclB8ue170006ImmEEbRKT_RKT0_, symObjAddr: 0x24DC, symBinAddr: 0x10000516C, symSize: 0x34 }
  - { offsetInCU: 0xEDFD, offset: 0xEDFD, size: 0x8, addend: 0x0, symName: __ZNKSt3__19allocatorIP4NodeE8max_sizeB8ue170006Ev, symObjAddr: 0x2510, symBinAddr: 0x1000051A0, symSize: 0x14 }
  - { offsetInCU: 0xEE23, offset: 0xEE23, size: 0x8, addend: 0x0, symName: __ZNKSt3__117__compressed_pairIPP4NodeNS_9allocatorIS2_EEE6secondB8ue170006Ev, symObjAddr: 0x2524, symBinAddr: 0x1000051B4, symSize: 0x24 }
  - { offsetInCU: 0xEE49, offset: 0xEE49, size: 0x8, addend: 0x0, symName: __ZNKSt3__122__compressed_pair_elemINS_9allocatorIP4NodeEELi1ELb1EE5__getB8ue170006Ev, symObjAddr: 0x2548, symBinAddr: 0x1000051D8, symSize: 0x14 }
  - { offsetInCU: 0xEE6F, offset: 0xEE6F, size: 0x8, addend: 0x0, symName: __ZNSt3__123__libcpp_numeric_limitsIlLb1EE3maxB8ue170006Ev, symObjAddr: 0x255C, symBinAddr: 0x1000051EC, symSize: 0x8 }
  - { offsetInCU: 0xEE83, offset: 0xEE83, size: 0x8, addend: 0x0, symName: __ZNSt12length_errorC1B8ue170006EPKc, symObjAddr: 0x25C8, symBinAddr: 0x100005258, symSize: 0x34 }
  - { offsetInCU: 0xEEBB, offset: 0xEEBB, size: 0x8, addend: 0x0, symName: __ZNSt12length_errorC2B8ue170006EPKc, symObjAddr: 0x25FC, symBinAddr: 0x10000528C, symSize: 0x4C }
  - { offsetInCU: 0xEEF3, offset: 0xEEF3, size: 0x8, addend: 0x0, symName: __ZNKSt3__16vectorIP4NodeNS_9allocatorIS2_EEE9__end_capB8ue170006Ev, symObjAddr: 0x2648, symBinAddr: 0x1000052D8, symSize: 0x28 }
  - { offsetInCU: 0xEF19, offset: 0xEF19, size: 0x8, addend: 0x0, symName: __ZNKSt3__117__compressed_pairIPP4NodeNS_9allocatorIS2_EEE5firstB8ue170006Ev, symObjAddr: 0x2670, symBinAddr: 0x100005300, symSize: 0x24 }
  - { offsetInCU: 0xEF3F, offset: 0xEF3F, size: 0x8, addend: 0x0, symName: __ZNKSt3__122__compressed_pair_elemIPP4NodeLi0ELb0EE5__getB8ue170006Ev, symObjAddr: 0x2694, symBinAddr: 0x100005324, symSize: 0x14 }
  - { offsetInCU: 0xEF65, offset: 0xEF65, size: 0x8, addend: 0x0, symName: __ZNSt3__114__split_bufferIP4NodeRNS_9allocatorIS2_EEEC2EmmS5_, symObjAddr: 0x26FC, symBinAddr: 0x10000538C, symSize: 0xD4 }
  - { offsetInCU: 0xEFD9, offset: 0xEFD9, size: 0x8, addend: 0x0, symName: __ZNSt3__117__compressed_pairIPP4NodeRNS_9allocatorIS2_EEEC1B8ue170006IDnS6_EEOT_OT0_, symObjAddr: 0x27D0, symBinAddr: 0x100005460, symSize: 0x3C }
  - { offsetInCU: 0xF031, offset: 0xF031, size: 0x8, addend: 0x0, symName: __ZNSt3__114__split_bufferIP4NodeRNS_9allocatorIS2_EEE7__allocB8ue170006Ev, symObjAddr: 0x284C, symBinAddr: 0x1000054DC, symSize: 0x28 }
  - { offsetInCU: 0xF057, offset: 0xF057, size: 0x8, addend: 0x0, symName: __ZNSt3__114__split_bufferIP4NodeRNS_9allocatorIS2_EEE9__end_capB8ue170006Ev, symObjAddr: 0x2874, symBinAddr: 0x100005504, symSize: 0x28 }
  - { offsetInCU: 0xF07D, offset: 0xF07D, size: 0x8, addend: 0x0, symName: __ZNSt3__117__compressed_pairIPP4NodeRNS_9allocatorIS2_EEEC2B8ue170006IDnS6_EEOT_OT0_, symObjAddr: 0x289C, symBinAddr: 0x10000552C, symSize: 0x48 }
  - { offsetInCU: 0xF0D5, offset: 0xF0D5, size: 0x8, addend: 0x0, symName: __ZNSt3__122__compressed_pair_elemIRNS_9allocatorIP4NodeEELi1ELb0EEC2B8ue170006IS5_vEEOT_, symObjAddr: 0x28E4, symBinAddr: 0x100005574, symSize: 0x20 }
  - { offsetInCU: 0xF117, offset: 0xF117, size: 0x8, addend: 0x0, symName: __ZNSt3__19allocatorIP4NodeE8allocateB8ue170006Em, symObjAddr: 0x2904, symBinAddr: 0x100005594, symSize: 0x84 }
  - { offsetInCU: 0xF14B, offset: 0xF14B, size: 0x8, addend: 0x0, symName: __ZNSt3__117__compressed_pairIPP4NodeRNS_9allocatorIS2_EEE6secondB8ue170006Ev, symObjAddr: 0x2A14, symBinAddr: 0x1000056A4, symSize: 0x28 }
  - { offsetInCU: 0xF171, offset: 0xF171, size: 0x8, addend: 0x0, symName: __ZNSt3__122__compressed_pair_elemIRNS_9allocatorIP4NodeEELi1ELb0EE5__getB8ue170006Ev, symObjAddr: 0x2A3C, symBinAddr: 0x1000056CC, symSize: 0x18 }
  - { offsetInCU: 0xF197, offset: 0xF197, size: 0x8, addend: 0x0, symName: __ZNSt3__117__compressed_pairIPP4NodeRNS_9allocatorIS2_EEE5firstB8ue170006Ev, symObjAddr: 0x2A54, symBinAddr: 0x1000056E4, symSize: 0x24 }
  - { offsetInCU: 0xF1C7, offset: 0xF1C7, size: 0x8, addend: 0x0, symName: __ZNSt3__114__split_bufferIP4NodeRNS_9allocatorIS2_EEE21_ConstructTransactionC1B8ue170006EPPS2_m, symObjAddr: 0x2A78, symBinAddr: 0x100005708, symSize: 0x3C }
  - { offsetInCU: 0xF20D, offset: 0xF20D, size: 0x8, addend: 0x0, symName: __ZNSt3__114__split_bufferIP4NodeRNS_9allocatorIS2_EEE21_ConstructTransactionD1B8ue170006Ev, symObjAddr: 0x2AB4, symBinAddr: 0x100005744, symSize: 0x2C }
  - { offsetInCU: 0xF237, offset: 0xF237, size: 0x8, addend: 0x0, symName: __ZNSt3__114__split_bufferIP4NodeRNS_9allocatorIS2_EEE21_ConstructTransactionC2B8ue170006EPPS2_m, symObjAddr: 0x2AE0, symBinAddr: 0x100005770, symSize: 0x44 }
  - { offsetInCU: 0xF27D, offset: 0xF27D, size: 0x8, addend: 0x0, symName: __ZNSt3__114__split_bufferIP4NodeRNS_9allocatorIS2_EEE21_ConstructTransactionD2B8ue170006Ev, symObjAddr: 0x2B24, symBinAddr: 0x1000057B4, symSize: 0x20 }
  - { offsetInCU: 0xF2A7, offset: 0xF2A7, size: 0x8, addend: 0x0, symName: __ZNKSt3__16vectorIP4NodeNS_9allocatorIS2_EEE17__annotate_deleteB8ue170006Ev, symObjAddr: 0x2B44, symBinAddr: 0x1000057D4, symSize: 0xB8 }
  - { offsetInCU: 0xF2CD, offset: 0xF2CD, size: 0x8, addend: 0x0, symName: __ZNSt3__116reverse_iteratorIPP4NodeEC1B8ue170006ES3_, symObjAddr: 0x2CE4, symBinAddr: 0x100005974, symSize: 0x34 }
  - { offsetInCU: 0xF305, offset: 0xF305, size: 0x8, addend: 0x0, symName: __ZNKSt3__116reverse_iteratorIPP4NodeE4baseB8ue170006Ev, symObjAddr: 0x2D18, symBinAddr: 0x1000059A8, symSize: 0x18 }
  - { offsetInCU: 0xF32B, offset: 0xF32B, size: 0x8, addend: 0x0, symName: __ZNKSt3__16vectorIP4NodeNS_9allocatorIS2_EEE14__annotate_newB8ue170006Em, symObjAddr: 0x2D6C, symBinAddr: 0x1000059FC, symSize: 0xAC }
  - { offsetInCU: 0xF360, offset: 0xF360, size: 0x8, addend: 0x0, symName: __ZNKSt3__16vectorIP4NodeNS_9allocatorIS2_EEE31__annotate_contiguous_containerB8ue170006EPKvS7_S7_S7_, symObjAddr: 0x2E18, symBinAddr: 0x100005AA8, symSize: 0x20 }
  - { offsetInCU: 0xF3B2, offset: 0xF3B2, size: 0x8, addend: 0x0, symName: __ZNKSt3__16vectorIP4NodeNS_9allocatorIS2_EEE4dataB8ue170006Ev, symObjAddr: 0x2E38, symBinAddr: 0x100005AC8, symSize: 0x28 }
  - { offsetInCU: 0xF3D8, offset: 0xF3D8, size: 0x8, addend: 0x0, symName: __ZNKSt3__116reverse_iteratorIPP4NodeEdeB8ue170006Ev, symObjAddr: 0x2EF8, symBinAddr: 0x100005B88, symSize: 0x28 }
  - { offsetInCU: 0xF40C, offset: 0xF40C, size: 0x8, addend: 0x0, symName: __ZNSt3__116reverse_iteratorIPP4NodeEppB8ue170006Ev, symObjAddr: 0x2F20, symBinAddr: 0x100005BB0, symSize: 0x20 }
  - { offsetInCU: 0xF437, offset: 0xF437, size: 0x8, addend: 0x0, symName: __ZNSt3__119__to_address_helperINS_16reverse_iteratorIPP4NodeEEvE6__callB8ue170006ERKS5_, symObjAddr: 0x2FB8, symBinAddr: 0x100005C48, symSize: 0x4C }
  - { offsetInCU: 0xF45A, offset: 0xF45A, size: 0x8, addend: 0x0, symName: __ZNKSt3__116reverse_iteratorIPP4NodeEptB8ue170006Ev, symObjAddr: 0x3004, symBinAddr: 0x100005C94, symSize: 0x24 }
  - { offsetInCU: 0xF4A4, offset: 0xF4A4, size: 0x8, addend: 0x0, symName: __ZNKSt3__111__move_loopINS_17_ClassicAlgPolicyEEclB8ue170006INS_16reverse_iteratorIPP4NodeEES8_S8_EENS_4pairIT_T1_EESA_T0_SB_, symObjAddr: 0x32A0, symBinAddr: 0x100005F30, symSize: 0xA0 }
  - { offsetInCU: 0xF515, offset: 0xF515, size: 0x8, addend: 0x0, symName: __ZNSt3__18_IterOpsINS_17_ClassicAlgPolicyEE11__iter_moveB8ue170006IRNS_16reverse_iteratorIPP4NodeEEEENS_9enable_ifIXsr12is_referenceIDTdeclsr3stdE7declvalIRT_EEEEE5valueEDTclsr3stdE4movedeclsr3stdE7declvalISC_EEEEE4typeEOSB_, symObjAddr: 0x34A0, symBinAddr: 0x100006130, symSize: 0x28 }
  - { offsetInCU: 0xF541, offset: 0xF541, size: 0x8, addend: 0x0, symName: __ZNSt3__18_IterOpsINS_17_ClassicAlgPolicyEE25__validate_iter_referenceB8ue170006IRNS_16reverse_iteratorIPP4NodeEEEEvv, symObjAddr: 0x34C8, symBinAddr: 0x100006158, symSize: 0x4 }
  - { offsetInCU: 0xF55F, offset: 0xF55F, size: 0x8, addend: 0x0, symName: __ZNSt3__118__unwrap_iter_implINS_16reverse_iteratorIPP4NodeEELb0EE8__unwrapB8ue170006ES5_, symObjAddr: 0x34CC, symBinAddr: 0x10000615C, symSize: 0x24 }
  - { offsetInCU: 0xF582, offset: 0xF582, size: 0x8, addend: 0x0, symName: __ZNSt3__14pairINS_16reverse_iteratorIPP4NodeEES5_EC1B8ue170006ERKS5_S8_, symObjAddr: 0x34F0, symBinAddr: 0x100006180, symSize: 0x3C }
  - { offsetInCU: 0xF5C8, offset: 0xF5C8, size: 0x8, addend: 0x0, symName: __ZNSt3__14pairINS_16reverse_iteratorIPP4NodeEES5_EC2B8ue170006ERKS5_S8_, symObjAddr: 0x352C, symBinAddr: 0x1000061BC, symSize: 0x34 }
  - { offsetInCU: 0xF60E, offset: 0xF60E, size: 0x8, addend: 0x0, symName: __ZNSt3__118__unwrap_iter_implINS_16reverse_iteratorIPP4NodeEELb0EE8__rewrapB8ue170006ES5_S5_, symObjAddr: 0x3560, symBinAddr: 0x1000061F0, symSize: 0x2C }
  - { offsetInCU: 0xF63B, offset: 0xF63B, size: 0x8, addend: 0x0, symName: __ZNSt3__116reverse_iteratorIPP4NodeEC2B8ue170006ES3_, symObjAddr: 0x358C, symBinAddr: 0x10000621C, symSize: 0x28 }
  - { offsetInCU: 0xF673, offset: 0xF673, size: 0x8, addend: 0x0, symName: __ZNSt3__114__split_bufferIP4NodeRNS_9allocatorIS2_EEED2Ev, symObjAddr: 0x35B4, symBinAddr: 0x100006244, symSize: 0x80 }
  - { offsetInCU: 0xF69F, offset: 0xF69F, size: 0x8, addend: 0x0, symName: __ZNSt3__114__split_bufferIP4NodeRNS_9allocatorIS2_EEE5clearB8ue170006Ev, symObjAddr: 0x3634, symBinAddr: 0x1000062C4, symSize: 0x28 }
  - { offsetInCU: 0xF6C5, offset: 0xF6C5, size: 0x8, addend: 0x0, symName: __ZNSt3__116allocator_traitsINS_9allocatorIP4NodeEEE10deallocateB8ue170006ERS4_PS3_m, symObjAddr: 0x365C, symBinAddr: 0x1000062EC, symSize: 0x34 }
  - { offsetInCU: 0xF707, offset: 0xF707, size: 0x8, addend: 0x0, symName: __ZNKSt3__114__split_bufferIP4NodeRNS_9allocatorIS2_EEE8capacityB8ue170006Ev, symObjAddr: 0x3690, symBinAddr: 0x100006320, symSize: 0x40 }
  - { offsetInCU: 0xF72D, offset: 0xF72D, size: 0x8, addend: 0x0, symName: __ZNSt3__114__split_bufferIP4NodeRNS_9allocatorIS2_EEE17__destruct_at_endB8ue170006EPS2_, symObjAddr: 0x36D0, symBinAddr: 0x100006360, symSize: 0x2C }
  - { offsetInCU: 0xF761, offset: 0xF761, size: 0x8, addend: 0x0, symName: __ZNSt3__114__split_bufferIP4NodeRNS_9allocatorIS2_EEE17__destruct_at_endB8ue170006EPS2_NS_17integral_constantIbLb0EEE, symObjAddr: 0x36FC, symBinAddr: 0x10000638C, symSize: 0x94 }
  - { offsetInCU: 0xF7A1, offset: 0xF7A1, size: 0x8, addend: 0x0, symName: __ZNSt3__116allocator_traitsINS_9allocatorIP4NodeEEE7destroyB8ue170006IS3_vEEvRS4_PT_, symObjAddr: 0x3790, symBinAddr: 0x100006420, symSize: 0x2C }
  - { offsetInCU: 0xF7DE, offset: 0xF7DE, size: 0x8, addend: 0x0, symName: __ZNSt3__19allocatorIP4NodeE7destroyB8ue170006EPS2_, symObjAddr: 0x37BC, symBinAddr: 0x10000644C, symSize: 0x14 }
  - { offsetInCU: 0xF812, offset: 0xF812, size: 0x8, addend: 0x0, symName: __ZNSt3__19allocatorIP4NodeE10deallocateB8ue170006EPS2_m, symObjAddr: 0x37D0, symBinAddr: 0x100006460, symSize: 0x70 }
  - { offsetInCU: 0xF854, offset: 0xF854, size: 0x8, addend: 0x0, symName: __ZNKSt3__114__split_bufferIP4NodeRNS_9allocatorIS2_EEE9__end_capB8ue170006Ev, symObjAddr: 0x38BC, symBinAddr: 0x10000654C, symSize: 0x28 }
  - { offsetInCU: 0xF87A, offset: 0xF87A, size: 0x8, addend: 0x0, symName: __ZNKSt3__117__compressed_pairIPP4NodeRNS_9allocatorIS2_EEE5firstB8ue170006Ev, symObjAddr: 0x38E4, symBinAddr: 0x100006574, symSize: 0x24 }
  - { offsetInCU: 0xF8A0, offset: 0xF8A0, size: 0x8, addend: 0x0, symName: __ZNSt3__16vectorIP4NodeNS_9allocatorIS2_EEE22__base_destruct_at_endB8ue170006EPS2_, symObjAddr: 0x3908, symBinAddr: 0x100006598, symSize: 0xA0 }
  - { offsetInCU: 0xF8E4, offset: 0xF8E4, size: 0x8, addend: 0x0, symName: __ZNKSt3__16vectorIP4NodeNS_9allocatorIS2_EEE17__annotate_shrinkB8ue170006Em, symObjAddr: 0x39A8, symBinAddr: 0x100006638, symSize: 0xB4 }
  - { offsetInCU: 0xF919, offset: 0xF919, size: 0x8, addend: 0x0, symName: __ZNSt3__16vectorIP4NodeNS_9allocatorIS2_EEED2B8ue170006Ev, symObjAddr: 0x3A5C, symBinAddr: 0x1000066EC, symSize: 0x3C }
  - { offsetInCU: 0xF943, offset: 0xF943, size: 0x8, addend: 0x0, symName: __ZNSt3__16vectorIP4NodeNS_9allocatorIS2_EEE16__destroy_vectorC1B8ue170006ERS5_, symObjAddr: 0x3A98, symBinAddr: 0x100006728, symSize: 0x34 }
  - { offsetInCU: 0xF97C, offset: 0xF97C, size: 0x8, addend: 0x0, symName: __ZNSt3__16vectorIP4NodeNS_9allocatorIS2_EEE16__destroy_vectorclB8ue170006Ev, symObjAddr: 0x3ACC, symBinAddr: 0x10000675C, symSize: 0x90 }
  - { offsetInCU: 0xF9A2, offset: 0xF9A2, size: 0x8, addend: 0x0, symName: __ZNSt3__16vectorIP4NodeNS_9allocatorIS2_EEE16__destroy_vectorC2B8ue170006ERS5_, symObjAddr: 0x3B5C, symBinAddr: 0x1000067EC, symSize: 0x20 }
  - { offsetInCU: 0xF9DB, offset: 0xF9DB, size: 0x8, addend: 0x0, symName: __ZNSt3__16vectorIP4NodeNS_9allocatorIS2_EEE7__clearB8ue170006Ev, symObjAddr: 0x3B7C, symBinAddr: 0x10000680C, symSize: 0x28 }
  - { offsetInCU: 0xFA01, offset: 0xFA01, size: 0x8, addend: 0x0, symName: __ZNSt3__16vectorIP4NodeNS_9allocatorIS2_EEEaSB8ue170006ERKS5_, symObjAddr: 0x3BA4, symBinAddr: 0x100006834, symSize: 0x68 }
  - { offsetInCU: 0xFA38, offset: 0xFA38, size: 0x8, addend: 0x0, symName: __ZNSt3__16vectorIP4NodeNS_9allocatorIS2_EEE19__copy_assign_allocB8ue170006ERKS5_, symObjAddr: 0x3C0C, symBinAddr: 0x10000689C, symSize: 0x2C }
  - { offsetInCU: 0xFA6D, offset: 0xFA6D, size: 0x8, addend: 0x0, symName: __ZNSt3__16vectorIP4NodeNS_9allocatorIS2_EEE6assignIPS2_Li0EEEvT_S8_, symObjAddr: 0x3C38, symBinAddr: 0x1000068C8, symSize: 0x5C }
  - { offsetInCU: 0xFAC2, offset: 0xFAC2, size: 0x8, addend: 0x0, symName: __ZNSt3__16vectorIP4NodeNS_9allocatorIS2_EEE19__copy_assign_allocB8ue170006ERKS5_NS_17integral_constantIbLb0EEE, symObjAddr: 0x3C94, symBinAddr: 0x100006924, symSize: 0x14 }
  - { offsetInCU: 0xFAFE, offset: 0xFAFE, size: 0x8, addend: 0x0, symName: __ZNSt3__16vectorIP4NodeNS_9allocatorIS2_EEE18__assign_with_sizeB8ue170006IPS2_S7_EEvT_T0_l, symObjAddr: 0x3CA8, symBinAddr: 0x100006938, symSize: 0x164 }
  - { offsetInCU: 0xFBB0, offset: 0xFBB0, size: 0x8, addend: 0x0, symName: __ZNSt3__16vectorIP4NodeNS_9allocatorIS2_EEE18__construct_at_endIPS2_S7_EEvT_T0_m, symObjAddr: 0x3EAC, symBinAddr: 0x100006B3C, symSize: 0x94 }
  - { offsetInCU: 0xFC26, offset: 0xFC26, size: 0x8, addend: 0x0, symName: __ZNSt3__16vectorIP4NodeNS_9allocatorIS2_EEE13__vdeallocateEv, symObjAddr: 0x3F84, symBinAddr: 0x100006C14, symSize: 0x94 }
  - { offsetInCU: 0xFC4E, offset: 0xFC4E, size: 0x8, addend: 0x0, symName: __ZNSt3__16vectorIP4NodeNS_9allocatorIS2_EEE11__vallocateB8ue170006Em, symObjAddr: 0x4018, symBinAddr: 0x100006CA8, symSize: 0xAC }
  - { offsetInCU: 0xFCAC, offset: 0xFCAC, size: 0x8, addend: 0x0, symName: __ZNSt3__14pairIPP4NodeS3_EC1B8ue170006ERKS3_S6_, symObjAddr: 0x43C0, symBinAddr: 0x100007050, symSize: 0x3C }
  - { offsetInCU: 0xFCF2, offset: 0xFCF2, size: 0x8, addend: 0x0, symName: __ZNSt3__14pairIPP4NodeS3_EC2B8ue170006ERKS3_S6_, symObjAddr: 0x43FC, symBinAddr: 0x10000708C, symSize: 0x34 }
  - { offsetInCU: 0xFD38, offset: 0xFD38, size: 0x8, addend: 0x0, symName: __ZNSt3__129_AllocatorDestroyRangeReverseINS_9allocatorIP4NodeEEPS3_EC1B8ue170006ERS4_RS5_S8_, symObjAddr: 0x447C, symBinAddr: 0x10000710C, symSize: 0x44 }
  - { offsetInCU: 0xFD8F, offset: 0xFD8F, size: 0x8, addend: 0x0, symName: __ZNSt3__116allocator_traitsINS_9allocatorIP4NodeEEE9constructB8ue170006IS3_JRS3_EvEEvRS4_PT_DpOT0_, symObjAddr: 0x44C0, symBinAddr: 0x100007150, symSize: 0x34 }
  - { offsetInCU: 0xFDE6, offset: 0xFDE6, size: 0x8, addend: 0x0, symName: __ZNSt3__128__exception_guard_exceptionsINS_29_AllocatorDestroyRangeReverseINS_9allocatorIP4NodeEEPS4_EEE10__completeB8ue170006Ev, symObjAddr: 0x44F4, symBinAddr: 0x100007184, symSize: 0x1C }
  - { offsetInCU: 0xFE0C, offset: 0xFE0C, size: 0x8, addend: 0x0, symName: __ZNSt3__128__exception_guard_exceptionsINS_29_AllocatorDestroyRangeReverseINS_9allocatorIP4NodeEEPS4_EEED1B8ue170006Ev, symObjAddr: 0x4510, symBinAddr: 0x1000071A0, symSize: 0x2C }
  - { offsetInCU: 0xFE36, offset: 0xFE36, size: 0x8, addend: 0x0, symName: __ZNSt3__128__exception_guard_exceptionsINS_29_AllocatorDestroyRangeReverseINS_9allocatorIP4NodeEEPS4_EEEC1B8ue170006ES7_, symObjAddr: 0x453C, symBinAddr: 0x1000071CC, symSize: 0x34 }
  - { offsetInCU: 0xFE6F, offset: 0xFE6F, size: 0x8, addend: 0x0, symName: __ZNSt3__128__exception_guard_exceptionsINS_29_AllocatorDestroyRangeReverseINS_9allocatorIP4NodeEEPS4_EEEC2B8ue170006ES7_, symObjAddr: 0x4570, symBinAddr: 0x100007200, symSize: 0x30 }
  - { offsetInCU: 0xFEA8, offset: 0xFEA8, size: 0x8, addend: 0x0, symName: __ZNSt3__129_AllocatorDestroyRangeReverseINS_9allocatorIP4NodeEEPS3_EC2B8ue170006ERS4_RS5_S8_, symObjAddr: 0x45A0, symBinAddr: 0x100007230, symSize: 0x38 }
  - { offsetInCU: 0xFEFF, offset: 0xFEFF, size: 0x8, addend: 0x0, symName: __ZNSt3__19allocatorIP4NodeE9constructB8ue170006IS2_JRS2_EEEvPT_DpOT0_, symObjAddr: 0x45D8, symBinAddr: 0x100007268, symSize: 0x28 }
  - { offsetInCU: 0xFF55, offset: 0xFF55, size: 0x8, addend: 0x0, symName: __ZNSt3__128__exception_guard_exceptionsINS_29_AllocatorDestroyRangeReverseINS_9allocatorIP4NodeEEPS4_EEED2B8ue170006Ev, symObjAddr: 0x4600, symBinAddr: 0x100007290, symSize: 0x48 }
  - { offsetInCU: 0xFF7F, offset: 0xFF7F, size: 0x8, addend: 0x0, symName: __ZNKSt3__129_AllocatorDestroyRangeReverseINS_9allocatorIP4NodeEEPS3_EclB8ue170006Ev, symObjAddr: 0x4648, symBinAddr: 0x1000072D8, symSize: 0x68 }
  - { offsetInCU: 0xFFA5, offset: 0xFFA5, size: 0x8, addend: 0x0, symName: __ZNSt3__118__unwrap_iter_implIPP4NodeLb1EE8__unwrapB8ue170006ES3_, symObjAddr: 0x4720, symBinAddr: 0x1000073B0, symSize: 0x24 }
  - { offsetInCU: 0xFFC8, offset: 0xFFC8, size: 0x8, addend: 0x0, symName: __ZNSt3__118__unwrap_iter_implIPP4NodeLb1EE8__rewrapB8ue170006ES3_S3_, symObjAddr: 0x4744, symBinAddr: 0x1000073D4, symSize: 0x50 }
  - { offsetInCU: 0x10003, offset: 0x10003, size: 0x8, addend: 0x0, symName: __ZNKSt3__114__copy_trivialclB8ue170006IP4NodeS3_Li0EEENS_4pairIPT_PT0_EES6_S6_S8_, symObjAddr: 0x488C, symBinAddr: 0x10000751C, symSize: 0x48 }
  - { offsetInCU: 0x1006B, offset: 0x1006B, size: 0x8, addend: 0x0, symName: __ZNSt3__16vectorIP4NodeNS_9allocatorIS2_EEE5clearB8ue170006Ev, symObjAddr: 0x4A58, symBinAddr: 0x1000076E8, symSize: 0x44 }
  - { offsetInCU: 0x100A0, offset: 0x100A0, size: 0x8, addend: 0x0, symName: __ZN4TreeD2Ev, symObjAddr: 0x4AC4, symBinAddr: 0x100007754, symSize: 0x30 }
  - { offsetInCU: 0x100CC, offset: 0x100CC, size: 0x8, addend: 0x0, symName: __ZNSt3__112basic_stringIcNS_11char_traitsIcEENS_9allocatorIcEEEC2B8ue170006ILi0EEEPKc, symObjAddr: 0x4AF4, symBinAddr: 0x100007784, symSize: 0x58 }
  - { offsetInCU: 0x1010B, offset: 0x1010B, size: 0x8, addend: 0x0, symName: __ZNSt3__117__compressed_pairINS_12basic_stringIcNS_11char_traitsIcEENS_9allocatorIcEEE5__repES5_EC1B8ue170006INS_18__default_init_tagESA_EEOT_OT0_, symObjAddr: 0x4B4C, symBinAddr: 0x1000077DC, symSize: 0x3C }
  - { offsetInCU: 0x10163, offset: 0x10163, size: 0x8, addend: 0x0, symName: __ZNSt3__111char_traitsIcE6lengthB8ue170006EPKc, symObjAddr: 0x4B88, symBinAddr: 0x100007818, symSize: 0x48 }
  - { offsetInCU: 0x10186, offset: 0x10186, size: 0x8, addend: 0x0, symName: __ZNSt3__117__compressed_pairINS_12basic_stringIcNS_11char_traitsIcEENS_9allocatorIcEEE5__repES5_EC2B8ue170006INS_18__default_init_tagESA_EEOT_OT0_, symObjAddr: 0x4BD0, symBinAddr: 0x100007860, symSize: 0x3C }
  - { offsetInCU: 0x101DE, offset: 0x101DE, size: 0x8, addend: 0x0, symName: __ZNSt3__122__compressed_pair_elemINS_12basic_stringIcNS_11char_traitsIcEENS_9allocatorIcEEE5__repELi0ELb0EEC2B8ue170006ENS_18__default_init_tagE, symObjAddr: 0x4C0C, symBinAddr: 0x10000789C, symSize: 0x14 }
  - { offsetInCU: 0x10212, offset: 0x10212, size: 0x8, addend: 0x0, symName: __ZNSt3__122__compressed_pair_elemINS_9allocatorIcEELi1ELb1EEC2B8ue170006ENS_18__default_init_tagE, symObjAddr: 0x4C20, symBinAddr: 0x1000078B0, symSize: 0x2C }
  - { offsetInCU: 0x10246, offset: 0x10246, size: 0x8, addend: 0x0, symName: __ZNSt3__19allocatorIcEC2B8ue170006Ev, symObjAddr: 0x4C4C, symBinAddr: 0x1000078DC, symSize: 0x2C }
  - { offsetInCU: 0x10270, offset: 0x10270, size: 0x8, addend: 0x0, symName: __ZNSt3__116__non_trivial_ifILb1ENS_9allocatorIcEEEC2B8ue170006Ev, symObjAddr: 0x4C78, symBinAddr: 0x100007908, symSize: 0x14 }
  - { offsetInCU: 0x102B8, offset: 0x102B8, size: 0x8, addend: 0x0, symName: __ZNKSt3__113basic_ostreamIcNS_11char_traitsIcEEE6sentrycvbB8ue170006Ev, symObjAddr: 0x4EA4, symBinAddr: 0x100007B34, symSize: 0x1C }
  - { offsetInCU: 0x102DE, offset: 0x102DE, size: 0x8, addend: 0x0, symName: __ZNSt3__119ostreambuf_iteratorIcNS_11char_traitsIcEEEC1B8ue170006ERNS_13basic_ostreamIcS2_EE, symObjAddr: 0x5108, symBinAddr: 0x100007D98, symSize: 0x34 }
  - { offsetInCU: 0x10316, offset: 0x10316, size: 0x8, addend: 0x0, symName: __ZNKSt3__18ios_base5flagsB8ue170006Ev, symObjAddr: 0x513C, symBinAddr: 0x100007DCC, symSize: 0x18 }
  - { offsetInCU: 0x1033E, offset: 0x1033E, size: 0x8, addend: 0x0, symName: __ZNKSt3__19basic_iosIcNS_11char_traitsIcEEE4fillB8ue170006Ev, symObjAddr: 0x5154, symBinAddr: 0x100007DE4, symSize: 0x64 }
  - { offsetInCU: 0x10366, offset: 0x10366, size: 0x8, addend: 0x0, symName: __ZNKSt3__119ostreambuf_iteratorIcNS_11char_traitsIcEEE6failedB8ue170006Ev, symObjAddr: 0x51B8, symBinAddr: 0x100007E48, symSize: 0x24 }
  - { offsetInCU: 0x1038C, offset: 0x1038C, size: 0x8, addend: 0x0, symName: __ZNSt3__19basic_iosIcNS_11char_traitsIcEEE8setstateB8ue170006Ej, symObjAddr: 0x51DC, symBinAddr: 0x100007E6C, symSize: 0x2C }
  - { offsetInCU: 0x103C1, offset: 0x103C1, size: 0x8, addend: 0x0, symName: __ZNKSt3__18ios_base5widthB8ue170006Ev, symObjAddr: 0x5208, symBinAddr: 0x100007E98, symSize: 0x18 }
  - { offsetInCU: 0x103E9, offset: 0x103E9, size: 0x8, addend: 0x0, symName: __ZNSt3__115basic_streambufIcNS_11char_traitsIcEEE5sputnB8ue170006EPKcl, symObjAddr: 0x5220, symBinAddr: 0x100007EB0, symSize: 0x3C }
  - { offsetInCU: 0x1042B, offset: 0x1042B, size: 0x8, addend: 0x0, symName: __ZNSt3__112basic_stringIcNS_11char_traitsIcEENS_9allocatorIcEEEC1B8ue170006Emc, symObjAddr: 0x525C, symBinAddr: 0x100007EEC, symSize: 0x3C }
  - { offsetInCU: 0x10473, offset: 0x10473, size: 0x8, addend: 0x0, symName: __ZNKSt3__112basic_stringIcNS_11char_traitsIcEENS_9allocatorIcEEE4dataB8ue170006Ev, symObjAddr: 0x5298, symBinAddr: 0x100007F28, symSize: 0x28 }
  - { offsetInCU: 0x10499, offset: 0x10499, size: 0x8, addend: 0x0, symName: __ZNSt3__18ios_base5widthB8ue170006El, symObjAddr: 0x52C0, symBinAddr: 0x100007F50, symSize: 0x2C }
  - { offsetInCU: 0x104DF, offset: 0x104DF, size: 0x8, addend: 0x0, symName: __ZNSt3__112basic_stringIcNS_11char_traitsIcEENS_9allocatorIcEEEC2B8ue170006Emc, symObjAddr: 0x52EC, symBinAddr: 0x100007F7C, symSize: 0x4C }
  - { offsetInCU: 0x10527, offset: 0x10527, size: 0x8, addend: 0x0, symName: __ZNKSt3__112basic_stringIcNS_11char_traitsIcEENS_9allocatorIcEEE13__get_pointerB8ue170006Ev, symObjAddr: 0x534C, symBinAddr: 0x100007FDC, symSize: 0x54 }
  - { offsetInCU: 0x1054D, offset: 0x1054D, size: 0x8, addend: 0x0, symName: __ZNKSt3__112basic_stringIcNS_11char_traitsIcEENS_9allocatorIcEEE9__is_longB8ue170006Ev, symObjAddr: 0x53A0, symBinAddr: 0x100008030, symSize: 0x74 }
  - { offsetInCU: 0x10573, offset: 0x10573, size: 0x8, addend: 0x0, symName: __ZNKSt3__112basic_stringIcNS_11char_traitsIcEENS_9allocatorIcEEE18__get_long_pointerB8ue170006Ev, symObjAddr: 0x5414, symBinAddr: 0x1000080A4, symSize: 0x28 }
  - { offsetInCU: 0x10599, offset: 0x10599, size: 0x8, addend: 0x0, symName: __ZNKSt3__112basic_stringIcNS_11char_traitsIcEENS_9allocatorIcEEE19__get_short_pointerB8ue170006Ev, symObjAddr: 0x543C, symBinAddr: 0x1000080CC, symSize: 0x28 }
  - { offsetInCU: 0x105BF, offset: 0x105BF, size: 0x8, addend: 0x0, symName: __ZNKSt3__117__compressed_pairINS_12basic_stringIcNS_11char_traitsIcEENS_9allocatorIcEEE5__repES5_E5firstB8ue170006Ev, symObjAddr: 0x5464, symBinAddr: 0x1000080F4, symSize: 0x24 }
  - { offsetInCU: 0x105E5, offset: 0x105E5, size: 0x8, addend: 0x0, symName: __ZNKSt3__122__compressed_pair_elemINS_12basic_stringIcNS_11char_traitsIcEENS_9allocatorIcEEE5__repELi0ELb0EE5__getB8ue170006Ev, symObjAddr: 0x5488, symBinAddr: 0x100008118, symSize: 0x14 }
  - { offsetInCU: 0x1060B, offset: 0x1060B, size: 0x8, addend: 0x0, symName: __ZNSt3__114pointer_traitsIPKcE10pointer_toB8ue170006ERS1_, symObjAddr: 0x549C, symBinAddr: 0x10000812C, symSize: 0x14 }
  - { offsetInCU: 0x1062E, offset: 0x1062E, size: 0x8, addend: 0x0, symName: __ZNSt3__119ostreambuf_iteratorIcNS_11char_traitsIcEEEC2B8ue170006ERNS_13basic_ostreamIcS2_EE, symObjAddr: 0x54B0, symBinAddr: 0x100008140, symSize: 0x68 }
  - { offsetInCU: 0x10666, offset: 0x10666, size: 0x8, addend: 0x0, symName: __ZNKSt3__19basic_iosIcNS_11char_traitsIcEEE5rdbufB8ue170006Ev, symObjAddr: 0x5518, symBinAddr: 0x1000081A8, symSize: 0x24 }
  - { offsetInCU: 0x1068E, offset: 0x1068E, size: 0x8, addend: 0x0, symName: __ZNKSt3__18ios_base5rdbufB8ue170006Ev, symObjAddr: 0x553C, symBinAddr: 0x1000081CC, symSize: 0x18 }
  - { offsetInCU: 0x106B4, offset: 0x106B4, size: 0x8, addend: 0x0, symName: __ZNSt3__111char_traitsIcE11eq_int_typeB8ue170006Eii, symObjAddr: 0x5554, symBinAddr: 0x1000081E4, symSize: 0x28 }
  - { offsetInCU: 0x106E7, offset: 0x106E7, size: 0x8, addend: 0x0, symName: __ZNSt3__111char_traitsIcE3eofB8ue170006Ev, symObjAddr: 0x557C, symBinAddr: 0x10000820C, symSize: 0x8 }
  - { offsetInCU: 0x106FB, offset: 0x106FB, size: 0x8, addend: 0x0, symName: __ZNKSt3__19basic_iosIcNS_11char_traitsIcEEE5widenB8ue170006Ec, symObjAddr: 0x5584, symBinAddr: 0x100008214, symSize: 0x8C }
  - { offsetInCU: 0x1075A, offset: 0x1075A, size: 0x8, addend: 0x0, symName: __ZNKSt3__15ctypeIcE5widenB8ue170006Ec, symObjAddr: 0x563C, symBinAddr: 0x1000082CC, symSize: 0x38 }
  - { offsetInCU: 0x1078F, offset: 0x1078F, size: 0x8, addend: 0x0, symName: __ZNSt3__18ios_base8setstateB8ue170006Ej, symObjAddr: 0x5674, symBinAddr: 0x100008304, symSize: 0x34 }
  - { offsetInCU: 0x107C6, offset: 0x107C6, size: 0x8, addend: 0x0, symName: __ZNKSt3__112basic_stringIcNS_11char_traitsIcEENS_9allocatorIcEEE4sizeB8ue170006Ev, symObjAddr: 0x56A8, symBinAddr: 0x100008338, symSize: 0x54 }
  - { offsetInCU: 0x107EC, offset: 0x107EC, size: 0x8, addend: 0x0, symName: __ZNSt3__111char_traitsIcE7compareB8ue170006EPKcS3_m, symObjAddr: 0x56FC, symBinAddr: 0x10000838C, symSize: 0x64 }
  - { offsetInCU: 0x1082B, offset: 0x1082B, size: 0x8, addend: 0x0, symName: __ZNKSt3__112basic_stringIcNS_11char_traitsIcEENS_9allocatorIcEEE15__get_long_sizeB8ue170006Ev, symObjAddr: 0x5760, symBinAddr: 0x1000083F0, symSize: 0x28 }
  - { offsetInCU: 0x10851, offset: 0x10851, size: 0x8, addend: 0x0, symName: __ZNKSt3__112basic_stringIcNS_11char_traitsIcEENS_9allocatorIcEEE16__get_short_sizeB8ue170006Ev, symObjAddr: 0x5788, symBinAddr: 0x100008418, symSize: 0x34 }
  - { offsetInCU: 0x10877, offset: 0x10877, size: 0x8, addend: 0x0, symName: __ZNSt3__16vectorI4TreeNS_9allocatorIS1_EEEC2Em, symObjAddr: 0x57BC, symBinAddr: 0x10000844C, symSize: 0xDC }
  - { offsetInCU: 0x108C7, offset: 0x108C7, size: 0x8, addend: 0x0, symName: __ZNSt3__117__compressed_pairIP4TreeNS_9allocatorIS1_EEEC1B8ue170006IDnNS_18__default_init_tagEEEOT_OT0_, symObjAddr: 0x5898, symBinAddr: 0x100008528, symSize: 0x3C }
  - { offsetInCU: 0x1091F, offset: 0x1091F, size: 0x8, addend: 0x0, symName: __ZNSt3__16vectorI4TreeNS_9allocatorIS1_EEE16__destroy_vectorC1B8ue170006ERS4_, symObjAddr: 0x5914, symBinAddr: 0x1000085A4, symSize: 0x34 }
  - { offsetInCU: 0x10958, offset: 0x10958, size: 0x8, addend: 0x0, symName: __ZNSt3__16vectorI4TreeNS_9allocatorIS1_EEE11__vallocateB8ue170006Em, symObjAddr: 0x5948, symBinAddr: 0x1000085D8, symSize: 0xB4 }
  - { offsetInCU: 0x1099C, offset: 0x1099C, size: 0x8, addend: 0x0, symName: __ZNSt3__16vectorI4TreeNS_9allocatorIS1_EEE18__construct_at_endEm, symObjAddr: 0x59FC, symBinAddr: 0x10000868C, symSize: 0xD0 }
  - { offsetInCU: 0x10A0F, offset: 0x10A0F, size: 0x8, addend: 0x0, symName: __ZNSt3__128__exception_guard_exceptionsINS_6vectorI4TreeNS_9allocatorIS2_EEE16__destroy_vectorEE10__completeB8ue170006Ev, symObjAddr: 0x5ACC, symBinAddr: 0x10000875C, symSize: 0x1C }
  - { offsetInCU: 0x10A35, offset: 0x10A35, size: 0x8, addend: 0x0, symName: __ZNSt3__128__exception_guard_exceptionsINS_6vectorI4TreeNS_9allocatorIS2_EEE16__destroy_vectorEED1B8ue170006Ev, symObjAddr: 0x5AE8, symBinAddr: 0x100008778, symSize: 0x2C }
  - { offsetInCU: 0x10A5F, offset: 0x10A5F, size: 0x8, addend: 0x0, symName: __ZNSt3__117__compressed_pairIP4TreeNS_9allocatorIS1_EEEC2B8ue170006IDnNS_18__default_init_tagEEEOT_OT0_, symObjAddr: 0x5B14, symBinAddr: 0x1000087A4, symSize: 0x40 }
  - { offsetInCU: 0x10AB7, offset: 0x10AB7, size: 0x8, addend: 0x0, symName: __ZNSt3__122__compressed_pair_elemIP4TreeLi0ELb0EEC2B8ue170006IDnvEEOT_, symObjAddr: 0x5B54, symBinAddr: 0x1000087E4, symSize: 0x1C }
  - { offsetInCU: 0x10AF9, offset: 0x10AF9, size: 0x8, addend: 0x0, symName: __ZNSt3__122__compressed_pair_elemINS_9allocatorI4TreeEELi1ELb1EEC2B8ue170006ENS_18__default_init_tagE, symObjAddr: 0x5B70, symBinAddr: 0x100008800, symSize: 0x2C }
  - { offsetInCU: 0x10B2D, offset: 0x10B2D, size: 0x8, addend: 0x0, symName: __ZNSt3__19allocatorI4TreeEC2B8ue170006Ev, symObjAddr: 0x5B9C, symBinAddr: 0x10000882C, symSize: 0x2C }
  - { offsetInCU: 0x10B57, offset: 0x10B57, size: 0x8, addend: 0x0, symName: __ZNSt3__116__non_trivial_ifILb1ENS_9allocatorI4TreeEEEC2B8ue170006Ev, symObjAddr: 0x5BC8, symBinAddr: 0x100008858, symSize: 0x14 }
  - { offsetInCU: 0x10B81, offset: 0x10B81, size: 0x8, addend: 0x0, symName: __ZNSt3__128__exception_guard_exceptionsINS_6vectorI4TreeNS_9allocatorIS2_EEE16__destroy_vectorEEC1B8ue170006ES6_, symObjAddr: 0x5BDC, symBinAddr: 0x10000886C, symSize: 0x34 }
  - { offsetInCU: 0x10BB9, offset: 0x10BB9, size: 0x8, addend: 0x0, symName: __ZNSt3__128__exception_guard_exceptionsINS_6vectorI4TreeNS_9allocatorIS2_EEE16__destroy_vectorEEC2B8ue170006ES6_, symObjAddr: 0x5C10, symBinAddr: 0x1000088A0, symSize: 0x24 }
  - { offsetInCU: 0x10BF1, offset: 0x10BF1, size: 0x8, addend: 0x0, symName: __ZNSt3__16vectorI4TreeNS_9allocatorIS1_EEE16__destroy_vectorC2B8ue170006ERS4_, symObjAddr: 0x5C34, symBinAddr: 0x1000088C4, symSize: 0x20 }
  - { offsetInCU: 0x10C2A, offset: 0x10C2A, size: 0x8, addend: 0x0, symName: __ZNKSt3__16vectorI4TreeNS_9allocatorIS1_EEE8max_sizeEv, symObjAddr: 0x5C54, symBinAddr: 0x1000088E4, symSize: 0x74 }
  - { offsetInCU: 0x10C52, offset: 0x10C52, size: 0x8, addend: 0x0, symName: __ZNKSt3__16vectorI4TreeNS_9allocatorIS1_EEE20__throw_length_errorB8ue170006Ev, symObjAddr: 0x5CC8, symBinAddr: 0x100008958, symSize: 0x1C }
  - { offsetInCU: 0x10C78, offset: 0x10C78, size: 0x8, addend: 0x0, symName: __ZNSt3__16vectorI4TreeNS_9allocatorIS1_EEE7__allocB8ue170006Ev, symObjAddr: 0x5D24, symBinAddr: 0x1000089B4, symSize: 0x28 }
  - { offsetInCU: 0x10C9E, offset: 0x10C9E, size: 0x8, addend: 0x0, symName: __ZNSt3__16vectorI4TreeNS_9allocatorIS1_EEE9__end_capB8ue170006Ev, symObjAddr: 0x5D4C, symBinAddr: 0x1000089DC, symSize: 0x28 }
  - { offsetInCU: 0x10CC4, offset: 0x10CC4, size: 0x8, addend: 0x0, symName: __ZNKSt3__16vectorI4TreeNS_9allocatorIS1_EEE14__annotate_newB8ue170006Em, symObjAddr: 0x5D74, symBinAddr: 0x100008A04, symSize: 0xC8 }
  - { offsetInCU: 0x10D03, offset: 0x10D03, size: 0x8, addend: 0x0, symName: __ZNSt3__116allocator_traitsINS_9allocatorI4TreeEEE8max_sizeB8ue170006IS3_vEEmRKS3_, symObjAddr: 0x5E3C, symBinAddr: 0x100008ACC, symSize: 0x24 }
  - { offsetInCU: 0x10D31, offset: 0x10D31, size: 0x8, addend: 0x0, symName: __ZNKSt3__16vectorI4TreeNS_9allocatorIS1_EEE7__allocB8ue170006Ev, symObjAddr: 0x5E60, symBinAddr: 0x100008AF0, symSize: 0x28 }
  - { offsetInCU: 0x10D57, offset: 0x10D57, size: 0x8, addend: 0x0, symName: __ZNKSt3__19allocatorI4TreeE8max_sizeB8ue170006Ev, symObjAddr: 0x5E88, symBinAddr: 0x100008B18, symSize: 0x18 }
  - { offsetInCU: 0x10D7D, offset: 0x10D7D, size: 0x8, addend: 0x0, symName: __ZNKSt3__117__compressed_pairIP4TreeNS_9allocatorIS1_EEE6secondB8ue170006Ev, symObjAddr: 0x5EA0, symBinAddr: 0x100008B30, symSize: 0x24 }
  - { offsetInCU: 0x10DA3, offset: 0x10DA3, size: 0x8, addend: 0x0, symName: __ZNKSt3__122__compressed_pair_elemINS_9allocatorI4TreeEELi1ELb1EE5__getB8ue170006Ev, symObjAddr: 0x5EC4, symBinAddr: 0x100008B54, symSize: 0x14 }
  - { offsetInCU: 0x10DC9, offset: 0x10DC9, size: 0x8, addend: 0x0, symName: __ZNSt3__19allocatorI4TreeE8allocateB8ue170006Em, symObjAddr: 0x5ED8, symBinAddr: 0x100008B68, symSize: 0x8C }
  - { offsetInCU: 0x10DFD, offset: 0x10DFD, size: 0x8, addend: 0x0, symName: __ZNSt3__117__compressed_pairIP4TreeNS_9allocatorIS1_EEE6secondB8ue170006Ev, symObjAddr: 0x5F64, symBinAddr: 0x100008BF4, symSize: 0x24 }
  - { offsetInCU: 0x10E23, offset: 0x10E23, size: 0x8, addend: 0x0, symName: __ZNSt3__122__compressed_pair_elemINS_9allocatorI4TreeEELi1ELb1EE5__getB8ue170006Ev, symObjAddr: 0x5F88, symBinAddr: 0x100008C18, symSize: 0x14 }
  - { offsetInCU: 0x10E49, offset: 0x10E49, size: 0x8, addend: 0x0, symName: __ZNSt3__117__compressed_pairIP4TreeNS_9allocatorIS1_EEE5firstB8ue170006Ev, symObjAddr: 0x5F9C, symBinAddr: 0x100008C2C, symSize: 0x24 }
  - { offsetInCU: 0x10E6F, offset: 0x10E6F, size: 0x8, addend: 0x0, symName: __ZNSt3__122__compressed_pair_elemIP4TreeLi0ELb0EE5__getB8ue170006Ev, symObjAddr: 0x5FC0, symBinAddr: 0x100008C50, symSize: 0x14 }
  - { offsetInCU: 0x10E95, offset: 0x10E95, size: 0x8, addend: 0x0, symName: __ZNKSt3__16vectorI4TreeNS_9allocatorIS1_EEE31__annotate_contiguous_containerB8ue170006EPKvS6_S6_S6_, symObjAddr: 0x5FD4, symBinAddr: 0x100008C64, symSize: 0x20 }
  - { offsetInCU: 0x10EE7, offset: 0x10EE7, size: 0x8, addend: 0x0, symName: __ZNKSt3__16vectorI4TreeNS_9allocatorIS1_EEE4dataB8ue170006Ev, symObjAddr: 0x5FF4, symBinAddr: 0x100008C84, symSize: 0x28 }
  - { offsetInCU: 0x10F0D, offset: 0x10F0D, size: 0x8, addend: 0x0, symName: __ZNKSt3__16vectorI4TreeNS_9allocatorIS1_EEE8capacityB8ue170006Ev, symObjAddr: 0x601C, symBinAddr: 0x100008CAC, symSize: 0x40 }
  - { offsetInCU: 0x10F33, offset: 0x10F33, size: 0x8, addend: 0x0, symName: __ZNKSt3__16vectorI4TreeNS_9allocatorIS1_EEE9__end_capB8ue170006Ev, symObjAddr: 0x6070, symBinAddr: 0x100008D00, symSize: 0x28 }
  - { offsetInCU: 0x10F59, offset: 0x10F59, size: 0x8, addend: 0x0, symName: __ZNKSt3__117__compressed_pairIP4TreeNS_9allocatorIS1_EEE5firstB8ue170006Ev, symObjAddr: 0x6098, symBinAddr: 0x100008D28, symSize: 0x24 }
  - { offsetInCU: 0x10F7F, offset: 0x10F7F, size: 0x8, addend: 0x0, symName: __ZNKSt3__122__compressed_pair_elemIP4TreeLi0ELb0EE5__getB8ue170006Ev, symObjAddr: 0x60BC, symBinAddr: 0x100008D4C, symSize: 0x14 }
  - { offsetInCU: 0x10FBE, offset: 0x10FBE, size: 0x8, addend: 0x0, symName: __ZNSt3__16vectorI4TreeNS_9allocatorIS1_EEE21_ConstructTransactionC1B8ue170006ERS4_m, symObjAddr: 0x60D0, symBinAddr: 0x100008D60, symSize: 0x3C }
  - { offsetInCU: 0x11006, offset: 0x11006, size: 0x8, addend: 0x0, symName: __ZNSt3__116allocator_traitsINS_9allocatorI4TreeEEE9constructB8ue170006IS2_JEvEEvRS3_PT_DpOT0_, symObjAddr: 0x610C, symBinAddr: 0x100008D9C, symSize: 0x2C }
  - { offsetInCU: 0x11048, offset: 0x11048, size: 0x8, addend: 0x0, symName: __ZNSt3__16vectorI4TreeNS_9allocatorIS1_EEE21_ConstructTransactionD1B8ue170006Ev, symObjAddr: 0x6138, symBinAddr: 0x100008DC8, symSize: 0x2C }
  - { offsetInCU: 0x11072, offset: 0x11072, size: 0x8, addend: 0x0, symName: __ZNSt3__16vectorI4TreeNS_9allocatorIS1_EEE21_ConstructTransactionC2B8ue170006ERS4_m, symObjAddr: 0x6164, symBinAddr: 0x100008DF4, symSize: 0x4C }
  - { offsetInCU: 0x110BA, offset: 0x110BA, size: 0x8, addend: 0x0, symName: __ZNSt3__19allocatorI4TreeE9constructB8ue170006IS1_JEEEvPT_DpOT0_, symObjAddr: 0x61B0, symBinAddr: 0x100008E40, symSize: 0x28 }
  - { offsetInCU: 0x110FC, offset: 0x110FC, size: 0x8, addend: 0x0, symName: __ZNSt3__16vectorI4TreeNS_9allocatorIS1_EEE21_ConstructTransactionD2B8ue170006Ev, symObjAddr: 0x61D8, symBinAddr: 0x100008E68, symSize: 0x20 }
  - { offsetInCU: 0x11126, offset: 0x11126, size: 0x8, addend: 0x0, symName: __ZNSt3__128__exception_guard_exceptionsINS_6vectorI4TreeNS_9allocatorIS2_EEE16__destroy_vectorEED2B8ue170006Ev, symObjAddr: 0x61F8, symBinAddr: 0x100008E88, symSize: 0x48 }
  - { offsetInCU: 0x11150, offset: 0x11150, size: 0x8, addend: 0x0, symName: __ZNSt3__16vectorI4TreeNS_9allocatorIS1_EEE16__destroy_vectorclB8ue170006Ev, symObjAddr: 0x6240, symBinAddr: 0x100008ED0, symSize: 0x90 }
  - { offsetInCU: 0x11176, offset: 0x11176, size: 0x8, addend: 0x0, symName: __ZNSt3__16vectorI4TreeNS_9allocatorIS1_EEE7__clearB8ue170006Ev, symObjAddr: 0x62D0, symBinAddr: 0x100008F60, symSize: 0x28 }
  - { offsetInCU: 0x1119C, offset: 0x1119C, size: 0x8, addend: 0x0, symName: __ZNKSt3__16vectorI4TreeNS_9allocatorIS1_EEE17__annotate_deleteB8ue170006Ev, symObjAddr: 0x62F8, symBinAddr: 0x100008F88, symSize: 0xD4 }
  - { offsetInCU: 0x111C2, offset: 0x111C2, size: 0x8, addend: 0x0, symName: __ZNSt3__116allocator_traitsINS_9allocatorI4TreeEEE10deallocateB8ue170006ERS3_PS2_m, symObjAddr: 0x63CC, symBinAddr: 0x10000905C, symSize: 0x34 }
  - { offsetInCU: 0x11204, offset: 0x11204, size: 0x8, addend: 0x0, symName: __ZNSt3__16vectorI4TreeNS_9allocatorIS1_EEE22__base_destruct_at_endB8ue170006EPS1_, symObjAddr: 0x6400, symBinAddr: 0x100009090, symSize: 0xA0 }
  - { offsetInCU: 0x11248, offset: 0x11248, size: 0x8, addend: 0x0, symName: __ZNSt3__116allocator_traitsINS_9allocatorI4TreeEEE7destroyB8ue170006IS2_vEEvRS3_PT_, symObjAddr: 0x64A0, symBinAddr: 0x100009130, symSize: 0x2C }
  - { offsetInCU: 0x11285, offset: 0x11285, size: 0x8, addend: 0x0, symName: __ZNSt3__19allocatorI4TreeE7destroyB8ue170006EPS1_, symObjAddr: 0x64CC, symBinAddr: 0x10000915C, symSize: 0x28 }
  - { offsetInCU: 0x112B9, offset: 0x112B9, size: 0x8, addend: 0x0, symName: __ZNKSt3__16vectorI4TreeNS_9allocatorIS1_EEE4sizeB8ue170006Ev, symObjAddr: 0x64F4, symBinAddr: 0x100009184, symSize: 0x28 }
  - { offsetInCU: 0x112DF, offset: 0x112DF, size: 0x8, addend: 0x0, symName: __ZNSt3__19allocatorI4TreeE10deallocateB8ue170006EPS1_m, symObjAddr: 0x651C, symBinAddr: 0x1000091AC, symSize: 0x74 }
  - { offsetInCU: 0x11321, offset: 0x11321, size: 0x8, addend: 0x0, symName: __ZNSt3__16vectorI4TreeNS_9allocatorIS1_EEED2B8ue170006Ev, symObjAddr: 0x6590, symBinAddr: 0x100009220, symSize: 0x3C }
  - { offsetInCU: 0x1134B, offset: 0x1134B, size: 0x8, addend: 0x0, symName: __ZNSt3__112basic_stringIcNS_11char_traitsIcEENS_9allocatorIcEEEC2B8ue170006Ev, symObjAddr: 0x65CC, symBinAddr: 0x10000925C, symSize: 0x3C }
  - { offsetInCU: 0x11375, offset: 0x11375, size: 0x8, addend: 0x0, symName: __ZNSt3__112basic_stringIcNS_11char_traitsIcEENS_9allocatorIcEEE14__default_initB8ue170006Ev, symObjAddr: 0x6608, symBinAddr: 0x100009298, symSize: 0xB0 }
  - { offsetInCU: 0x113C8, offset: 0x113C8, size: 0x8, addend: 0x0, symName: __ZNSt3__117__compressed_pairINS_12basic_stringIcNS_11char_traitsIcEENS_9allocatorIcEEE5__repES5_E5firstB8ue170006Ev, symObjAddr: 0x66B8, symBinAddr: 0x100009348, symSize: 0x24 }
  - { offsetInCU: 0x113EE, offset: 0x113EE, size: 0x8, addend: 0x0, symName: __ZNSt3__112basic_stringIcNS_11char_traitsIcEENS_9allocatorIcEEE11__recommendB8ue170006Em, symObjAddr: 0x66DC, symBinAddr: 0x10000936C, symSize: 0x9C }
  - { offsetInCU: 0x11421, offset: 0x11421, size: 0x8, addend: 0x0, symName: __ZNSt3__116allocator_traitsINS_9allocatorIcEEE8allocateB8ue170006ERS2_m, symObjAddr: 0x6778, symBinAddr: 0x100009408, symSize: 0x2C }
  - { offsetInCU: 0x11454, offset: 0x11454, size: 0x8, addend: 0x0, symName: __ZNSt3__112basic_stringIcNS_11char_traitsIcEENS_9allocatorIcEEE7__allocB8ue170006Ev, symObjAddr: 0x67A4, symBinAddr: 0x100009434, symSize: 0x24 }
  - { offsetInCU: 0x1147A, offset: 0x1147A, size: 0x8, addend: 0x0, symName: __ZNSt3__112basic_stringIcNS_11char_traitsIcEENS_9allocatorIcEEE16__begin_lifetimeB8ue170006EPcm, symObjAddr: 0x67C8, symBinAddr: 0x100009458, symSize: 0x14 }
  - { offsetInCU: 0x114AD, offset: 0x114AD, size: 0x8, addend: 0x0, symName: __ZNSt3__112basic_stringIcNS_11char_traitsIcEENS_9allocatorIcEEE18__set_long_pointerB8ue170006EPc, symObjAddr: 0x67DC, symBinAddr: 0x10000946C, symSize: 0x38 }
  - { offsetInCU: 0x114E2, offset: 0x114E2, size: 0x8, addend: 0x0, symName: __ZNSt3__112basic_stringIcNS_11char_traitsIcEENS_9allocatorIcEEE14__set_long_capB8ue170006Em, symObjAddr: 0x6814, symBinAddr: 0x1000094A4, symSize: 0x70 }
  - { offsetInCU: 0x11517, offset: 0x11517, size: 0x8, addend: 0x0, symName: __ZNSt3__112basic_stringIcNS_11char_traitsIcEENS_9allocatorIcEEE15__set_long_sizeB8ue170006Em, symObjAddr: 0x6884, symBinAddr: 0x100009514, symSize: 0x38 }
  - { offsetInCU: 0x1154C, offset: 0x1154C, size: 0x8, addend: 0x0, symName: __ZNSt3__122__compressed_pair_elemINS_12basic_stringIcNS_11char_traitsIcEENS_9allocatorIcEEE5__repELi0ELb0EE5__getB8ue170006Ev, symObjAddr: 0x68BC, symBinAddr: 0x10000954C, symSize: 0x14 }
  - { offsetInCU: 0x11572, offset: 0x11572, size: 0x8, addend: 0x0, symName: __ZNSt3__112basic_stringIcNS_11char_traitsIcEENS_9allocatorIcEEE10__align_itB8ue170006ILm16EEEmm, symObjAddr: 0x68D0, symBinAddr: 0x100009560, symSize: 0x1C }
  - { offsetInCU: 0x115A0, offset: 0x115A0, size: 0x8, addend: 0x0, symName: __ZNSt3__19allocatorIcE8allocateB8ue170006Em, symObjAddr: 0x68EC, symBinAddr: 0x10000957C, symSize: 0x84 }
  - { offsetInCU: 0x115DE, offset: 0x115DE, size: 0x8, addend: 0x0, symName: __ZNSt3__116allocator_traitsINS_9allocatorIcEEE8max_sizeB8ue170006IS2_vEEmRKS2_, symObjAddr: 0x6970, symBinAddr: 0x100009600, symSize: 0x24 }
  - { offsetInCU: 0x1160C, offset: 0x1160C, size: 0x8, addend: 0x0, symName: __ZNKSt3__19allocatorIcE8max_sizeB8ue170006Ev, symObjAddr: 0x6994, symBinAddr: 0x100009624, symSize: 0x14 }
  - { offsetInCU: 0x11632, offset: 0x11632, size: 0x8, addend: 0x0, symName: __ZNSt3__117__compressed_pairINS_12basic_stringIcNS_11char_traitsIcEENS_9allocatorIcEEE5__repES5_E6secondB8ue170006Ev, symObjAddr: 0x69A8, symBinAddr: 0x100009638, symSize: 0x24 }
  - { offsetInCU: 0x11658, offset: 0x11658, size: 0x8, addend: 0x0, symName: __ZNSt3__122__compressed_pair_elemINS_9allocatorIcEELi1ELb1EE5__getB8ue170006Ev, symObjAddr: 0x69CC, symBinAddr: 0x10000965C, symSize: 0x14 }
  - { offsetInCU: 0x11712, offset: 0x11712, size: 0x8, addend: 0x0, symName: __ZNKSt3__113basic_istreamIcNS_11char_traitsIcEEE6sentrycvbB8ue170006Ev, symObjAddr: 0x69E0, symBinAddr: 0x100009670, symSize: 0x1C }
  - { offsetInCU: 0x11738, offset: 0x11738, size: 0x8, addend: 0x0, symName: __ZNSt3__112basic_stringIcNS_11char_traitsIcEENS_9allocatorIcEEE5clearB8ue170006Ev, symObjAddr: 0x69FC, symBinAddr: 0x10000968C, symSize: 0x78 }
  - { offsetInCU: 0x11760, offset: 0x11760, size: 0x8, addend: 0x0, symName: __ZNKSt3__112basic_stringIcNS_11char_traitsIcEENS_9allocatorIcEEE8max_sizeB8ue170006Ev, symObjAddr: 0x6A74, symBinAddr: 0x100009704, symSize: 0xAC }
  - { offsetInCU: 0x117B3, offset: 0x117B3, size: 0x8, addend: 0x0, symName: __ZNSt3__115basic_streambufIcNS_11char_traitsIcEEE5sgetcB8ue170006Ev, symObjAddr: 0x6B20, symBinAddr: 0x1000097B0, symSize: 0x70 }
  - { offsetInCU: 0x117D9, offset: 0x117D9, size: 0x8, addend: 0x0, symName: __ZNSt3__111char_traitsIcE12to_char_typeB8ue170006Ei, symObjAddr: 0x6B90, symBinAddr: 0x100009820, symSize: 0x18 }
  - { offsetInCU: 0x117FC, offset: 0x117FC, size: 0x8, addend: 0x0, symName: __ZNKSt3__15ctypeIcE2isB8ue170006Ejc, symObjAddr: 0x6BA8, symBinAddr: 0x100009838, symSize: 0x7C }
  - { offsetInCU: 0x11840, offset: 0x11840, size: 0x8, addend: 0x0, symName: __ZNSt3__115basic_streambufIcNS_11char_traitsIcEEE6sbumpcB8ue170006Ev, symObjAddr: 0x6C24, symBinAddr: 0x1000098B4, symSize: 0x78 }
  - { offsetInCU: 0x11866, offset: 0x11866, size: 0x8, addend: 0x0, symName: __ZNSt3__18ios_base18__setstate_nothrowB8ue170006Ej, symObjAddr: 0x6C9C, symBinAddr: 0x10000992C, symSize: 0x64 }
  - { offsetInCU: 0x1189B, offset: 0x1189B, size: 0x8, addend: 0x0, symName: __ZNKSt3__19basic_iosIcNS_11char_traitsIcEEE10exceptionsB8ue170006Ev, symObjAddr: 0x6D00, symBinAddr: 0x100009990, symSize: 0x24 }
  - { offsetInCU: 0x118C1, offset: 0x118C1, size: 0x8, addend: 0x0, symName: __ZNSt3__111char_traitsIcE6assignB8ue170006ERcRKc, symObjAddr: 0x6D24, symBinAddr: 0x1000099B4, symSize: 0x24 }
  - { offsetInCU: 0x118F2, offset: 0x118F2, size: 0x8, addend: 0x0, symName: __ZNSt3__112basic_stringIcNS_11char_traitsIcEENS_9allocatorIcEEE18__get_long_pointerB8ue170006Ev, symObjAddr: 0x6D48, symBinAddr: 0x1000099D8, symSize: 0x28 }
  - { offsetInCU: 0x11918, offset: 0x11918, size: 0x8, addend: 0x0, symName: __ZNSt3__112basic_stringIcNS_11char_traitsIcEENS_9allocatorIcEEE19__get_short_pointerB8ue170006Ev, symObjAddr: 0x6D70, symBinAddr: 0x100009A00, symSize: 0x28 }
  - { offsetInCU: 0x1193E, offset: 0x1193E, size: 0x8, addend: 0x0, symName: __ZNSt3__112basic_stringIcNS_11char_traitsIcEENS_9allocatorIcEEE16__set_short_sizeB8ue170006Em, symObjAddr: 0x6D98, symBinAddr: 0x100009A28, symSize: 0x78 }
  - { offsetInCU: 0x11973, offset: 0x11973, size: 0x8, addend: 0x0, symName: __ZNSt3__114pointer_traitsIPcE10pointer_toB8ue170006ERc, symObjAddr: 0x6E10, symBinAddr: 0x100009AA0, symSize: 0x14 }
  - { offsetInCU: 0x11996, offset: 0x11996, size: 0x8, addend: 0x0, symName: __ZNKSt3__112basic_stringIcNS_11char_traitsIcEENS_9allocatorIcEEE7__allocB8ue170006Ev, symObjAddr: 0x6E24, symBinAddr: 0x100009AB4, symSize: 0x24 }
  - { offsetInCU: 0x119BC, offset: 0x119BC, size: 0x8, addend: 0x0, symName: __ZNSt3__114numeric_limitsImE3maxB8ue170006Ev, symObjAddr: 0x6E48, symBinAddr: 0x100009AD8, symSize: 0x14 }
  - { offsetInCU: 0x119D0, offset: 0x119D0, size: 0x8, addend: 0x0, symName: __ZNKSt3__117__compressed_pairINS_12basic_stringIcNS_11char_traitsIcEENS_9allocatorIcEEE5__repES5_E6secondB8ue170006Ev, symObjAddr: 0x6E5C, symBinAddr: 0x100009AEC, symSize: 0x24 }
  - { offsetInCU: 0x119F6, offset: 0x119F6, size: 0x8, addend: 0x0, symName: __ZNKSt3__122__compressed_pair_elemINS_9allocatorIcEELi1ELb1EE5__getB8ue170006Ev, symObjAddr: 0x6E80, symBinAddr: 0x100009B10, symSize: 0x14 }
  - { offsetInCU: 0x11A1C, offset: 0x11A1C, size: 0x8, addend: 0x0, symName: __ZNSt3__123__libcpp_numeric_limitsImLb1EE3maxB8ue170006Ev, symObjAddr: 0x6E94, symBinAddr: 0x100009B24, symSize: 0x8 }
  - { offsetInCU: 0x11A30, offset: 0x11A30, size: 0x8, addend: 0x0, symName: __ZNSt3__111char_traitsIcE11to_int_typeB8ue170006Ec, symObjAddr: 0x6E9C, symBinAddr: 0x100009B2C, symSize: 0x14 }
  - { offsetInCU: 0x11A53, offset: 0x11A53, size: 0x8, addend: 0x0, symName: __Z7isasciii, symObjAddr: 0x6EB0, symBinAddr: 0x100009B40, symSize: 0x24 }
  - { offsetInCU: 0x11A80, offset: 0x11A80, size: 0x8, addend: 0x0, symName: __ZNKSt3__18ios_base10exceptionsB8ue170006Ev, symObjAddr: 0x6ED4, symBinAddr: 0x100009B64, symSize: 0x18 }
  - { offsetInCU: 0x11AAE, offset: 0x11AAE, size: 0x8, addend: 0x0, symName: __ZNSt3__16vectorI4TreeNS_9allocatorIS1_EEE22__construct_one_at_endB8ue170006IJS1_EEEvDpOT_, symObjAddr: 0x6EEC, symBinAddr: 0x100009B7C, symSize: 0x98 }
  - { offsetInCU: 0x11AFD, offset: 0x11AFD, size: 0x8, addend: 0x0, symName: __ZNSt3__16vectorI4TreeNS_9allocatorIS1_EEE21__push_back_slow_pathIS1_EEvOT_, symObjAddr: 0x6F84, symBinAddr: 0x100009C14, symSize: 0xE0 }
  - { offsetInCU: 0x11B5B, offset: 0x11B5B, size: 0x8, addend: 0x0, symName: __ZNSt3__116allocator_traitsINS_9allocatorI4TreeEEE9constructB8ue170006IS2_JS2_EvEEvRS3_PT_DpOT0_, symObjAddr: 0x7064, symBinAddr: 0x100009CF4, symSize: 0x34 }
  - { offsetInCU: 0x11BB2, offset: 0x11BB2, size: 0x8, addend: 0x0, symName: __ZNSt3__19allocatorI4TreeE9constructB8ue170006IS1_JS1_EEEvPT_DpOT0_, symObjAddr: 0x7098, symBinAddr: 0x100009D28, symSize: 0x30 }
  - { offsetInCU: 0x11C08, offset: 0x11C08, size: 0x8, addend: 0x0, symName: __ZN4TreeC1ERKS_, symObjAddr: 0x70C8, symBinAddr: 0x100009D58, symSize: 0x34 }
  - { offsetInCU: 0x11C3D, offset: 0x11C3D, size: 0x8, addend: 0x0, symName: __ZN4TreeC2ERKS_, symObjAddr: 0x70FC, symBinAddr: 0x100009D8C, symSize: 0x54 }
  - { offsetInCU: 0x11C72, offset: 0x11C72, size: 0x8, addend: 0x0, symName: __ZNSt3__16vectorIP4NodeNS_9allocatorIS2_EEEC1ERKS5_, symObjAddr: 0x7150, symBinAddr: 0x100009DE0, symSize: 0x34 }
  - { offsetInCU: 0x11CAD, offset: 0x11CAD, size: 0x8, addend: 0x0, symName: __ZNSt3__16vectorIP4NodeNS_9allocatorIS2_EEEC2ERKS5_, symObjAddr: 0x7184, symBinAddr: 0x100009E14, symSize: 0x94 }
  - { offsetInCU: 0x11CE8, offset: 0x11CE8, size: 0x8, addend: 0x0, symName: __ZNSt3__116allocator_traitsINS_9allocatorIP4NodeEEE37select_on_container_copy_constructionB8ue170006IS4_vvEES4_RKS4_, symObjAddr: 0x7218, symBinAddr: 0x100009EA8, symSize: 0x10 }
  - { offsetInCU: 0x11D1D, offset: 0x11D1D, size: 0x8, addend: 0x0, symName: __ZNSt3__117__compressed_pairIPP4NodeNS_9allocatorIS2_EEEC1B8ue170006IDnS5_EEOT_OT0_, symObjAddr: 0x7228, symBinAddr: 0x100009EB8, symSize: 0x3C }
  - { offsetInCU: 0x11D75, offset: 0x11D75, size: 0x8, addend: 0x0, symName: __ZNSt3__16vectorIP4NodeNS_9allocatorIS2_EEE16__init_with_sizeB8ue170006IPS2_S7_EEvT_T0_m, symObjAddr: 0x7264, symBinAddr: 0x100009EF4, symSize: 0xC0 }
  - { offsetInCU: 0x11DE9, offset: 0x11DE9, size: 0x8, addend: 0x0, symName: __ZNSt3__117__compressed_pairIPP4NodeNS_9allocatorIS2_EEEC2B8ue170006IDnS5_EEOT_OT0_, symObjAddr: 0x7324, symBinAddr: 0x100009FB4, symSize: 0x44 }
  - { offsetInCU: 0x11E41, offset: 0x11E41, size: 0x8, addend: 0x0, symName: __ZNSt3__122__compressed_pair_elemINS_9allocatorIP4NodeEELi1ELb1EEC2B8ue170006IS4_vEEOT_, symObjAddr: 0x7368, symBinAddr: 0x100009FF8, symSize: 0x18 }
  - { offsetInCU: 0x11E83, offset: 0x11E83, size: 0x8, addend: 0x0, symName: __ZNSt3__128__exception_guard_exceptionsINS_6vectorIP4NodeNS_9allocatorIS3_EEE16__destroy_vectorEE10__completeB8ue170006Ev, symObjAddr: 0x73C0, symBinAddr: 0x10000A050, symSize: 0x1C }
  - { offsetInCU: 0x11EA9, offset: 0x11EA9, size: 0x8, addend: 0x0, symName: __ZNSt3__128__exception_guard_exceptionsINS_6vectorIP4NodeNS_9allocatorIS3_EEE16__destroy_vectorEED1B8ue170006Ev, symObjAddr: 0x73DC, symBinAddr: 0x10000A06C, symSize: 0x2C }
  - { offsetInCU: 0x11ED3, offset: 0x11ED3, size: 0x8, addend: 0x0, symName: __ZNSt3__128__exception_guard_exceptionsINS_6vectorIP4NodeNS_9allocatorIS3_EEE16__destroy_vectorEEC1B8ue170006ES7_, symObjAddr: 0x7408, symBinAddr: 0x10000A098, symSize: 0x34 }
  - { offsetInCU: 0x11F0B, offset: 0x11F0B, size: 0x8, addend: 0x0, symName: __ZNSt3__128__exception_guard_exceptionsINS_6vectorIP4NodeNS_9allocatorIS3_EEE16__destroy_vectorEEC2B8ue170006ES7_, symObjAddr: 0x743C, symBinAddr: 0x10000A0CC, symSize: 0x24 }
  - { offsetInCU: 0x11F43, offset: 0x11F43, size: 0x8, addend: 0x0, symName: __ZNSt3__128__exception_guard_exceptionsINS_6vectorIP4NodeNS_9allocatorIS3_EEE16__destroy_vectorEED2B8ue170006Ev, symObjAddr: 0x7460, symBinAddr: 0x10000A0F0, symSize: 0x48 }
  - { offsetInCU: 0x11F6D, offset: 0x11F6D, size: 0x8, addend: 0x0, symName: __ZNKSt3__16vectorI4TreeNS_9allocatorIS1_EEE11__recommendB8ue170006Em, symObjAddr: 0x74A8, symBinAddr: 0x10000A138, symSize: 0xB4 }
  - { offsetInCU: 0x11FC2, offset: 0x11FC2, size: 0x8, addend: 0x0, symName: __ZNSt3__114__split_bufferI4TreeRNS_9allocatorIS1_EEEC1EmmS4_, symObjAddr: 0x755C, symBinAddr: 0x10000A1EC, symSize: 0x44 }
  - { offsetInCU: 0x12018, offset: 0x12018, size: 0x8, addend: 0x0, symName: __ZNSt3__114__split_bufferI4TreeRNS_9allocatorIS1_EEED1Ev, symObjAddr: 0x76B0, symBinAddr: 0x10000A340, symSize: 0x2C }
  - { offsetInCU: 0x12044, offset: 0x12044, size: 0x8, addend: 0x0, symName: __ZNSt3__114__split_bufferI4TreeRNS_9allocatorIS1_EEEC2EmmS4_, symObjAddr: 0x76DC, symBinAddr: 0x10000A36C, symSize: 0xE0 }
  - { offsetInCU: 0x120B8, offset: 0x120B8, size: 0x8, addend: 0x0, symName: __ZNSt3__117__compressed_pairIP4TreeRNS_9allocatorIS1_EEEC1B8ue170006IDnS5_EEOT_OT0_, symObjAddr: 0x77BC, symBinAddr: 0x10000A44C, symSize: 0x3C }
  - { offsetInCU: 0x12110, offset: 0x12110, size: 0x8, addend: 0x0, symName: __ZNSt3__114__split_bufferI4TreeRNS_9allocatorIS1_EEE7__allocB8ue170006Ev, symObjAddr: 0x77F8, symBinAddr: 0x10000A488, symSize: 0x28 }
  - { offsetInCU: 0x12136, offset: 0x12136, size: 0x8, addend: 0x0, symName: __ZNSt3__114__split_bufferI4TreeRNS_9allocatorIS1_EEE9__end_capB8ue170006Ev, symObjAddr: 0x7820, symBinAddr: 0x10000A4B0, symSize: 0x28 }
  - { offsetInCU: 0x1215C, offset: 0x1215C, size: 0x8, addend: 0x0, symName: __ZNSt3__117__compressed_pairIP4TreeRNS_9allocatorIS1_EEEC2B8ue170006IDnS5_EEOT_OT0_, symObjAddr: 0x7848, symBinAddr: 0x10000A4D8, symSize: 0x48 }
  - { offsetInCU: 0x121B4, offset: 0x121B4, size: 0x8, addend: 0x0, symName: __ZNSt3__122__compressed_pair_elemIRNS_9allocatorI4TreeEELi1ELb0EEC2B8ue170006IS4_vEEOT_, symObjAddr: 0x7890, symBinAddr: 0x10000A520, symSize: 0x20 }
  - { offsetInCU: 0x121F6, offset: 0x121F6, size: 0x8, addend: 0x0, symName: __ZNSt3__117__compressed_pairIP4TreeRNS_9allocatorIS1_EEE6secondB8ue170006Ev, symObjAddr: 0x78B0, symBinAddr: 0x10000A540, symSize: 0x28 }
  - { offsetInCU: 0x1221C, offset: 0x1221C, size: 0x8, addend: 0x0, symName: __ZNSt3__122__compressed_pair_elemIRNS_9allocatorI4TreeEELi1ELb0EE5__getB8ue170006Ev, symObjAddr: 0x78D8, symBinAddr: 0x10000A568, symSize: 0x18 }
  - { offsetInCU: 0x12242, offset: 0x12242, size: 0x8, addend: 0x0, symName: __ZNSt3__117__compressed_pairIP4TreeRNS_9allocatorIS1_EEE5firstB8ue170006Ev, symObjAddr: 0x78F0, symBinAddr: 0x10000A580, symSize: 0x24 }
  - { offsetInCU: 0x12268, offset: 0x12268, size: 0x8, addend: 0x0, symName: __ZNSt3__116reverse_iteratorIP4TreeEC1B8ue170006ES2_, symObjAddr: 0x7A48, symBinAddr: 0x10000A6D8, symSize: 0x34 }
  - { offsetInCU: 0x122A0, offset: 0x122A0, size: 0x8, addend: 0x0, symName: __ZNKSt3__116reverse_iteratorIP4TreeE4baseB8ue170006Ev, symObjAddr: 0x7A7C, symBinAddr: 0x10000A70C, symSize: 0x18 }
  - { offsetInCU: 0x122C6, offset: 0x122C6, size: 0x8, addend: 0x0, symName: __ZNSt3__129_AllocatorDestroyRangeReverseINS_9allocatorI4TreeEENS_16reverse_iteratorIPS2_EEEC1B8ue170006ERS3_RS6_S9_, symObjAddr: 0x7B1C, symBinAddr: 0x10000A7AC, symSize: 0x44 }
  - { offsetInCU: 0x1231D, offset: 0x1231D, size: 0x8, addend: 0x0, symName: __ZNSt3__116allocator_traitsINS_9allocatorI4TreeEEE9constructB8ue170006IS2_JRKS2_EvEEvRS3_PT_DpOT0_, symObjAddr: 0x7BA8, symBinAddr: 0x10000A838, symSize: 0x34 }
  - { offsetInCU: 0x12374, offset: 0x12374, size: 0x8, addend: 0x0, symName: __ZNKSt3__116reverse_iteratorIP4TreeEdeB8ue170006Ev, symObjAddr: 0x7C00, symBinAddr: 0x10000A890, symSize: 0x28 }
  - { offsetInCU: 0x123A8, offset: 0x123A8, size: 0x8, addend: 0x0, symName: __ZNSt3__116reverse_iteratorIP4TreeEppB8ue170006Ev, symObjAddr: 0x7C28, symBinAddr: 0x10000A8B8, symSize: 0x20 }
  - { offsetInCU: 0x123CE, offset: 0x123CE, size: 0x8, addend: 0x0, symName: __ZNSt3__128__exception_guard_exceptionsINS_29_AllocatorDestroyRangeReverseINS_9allocatorI4TreeEENS_16reverse_iteratorIPS3_EEEEE10__completeB8ue170006Ev, symObjAddr: 0x7C48, symBinAddr: 0x10000A8D8, symSize: 0x1C }
  - { offsetInCU: 0x123F4, offset: 0x123F4, size: 0x8, addend: 0x0, symName: __ZNSt3__128__exception_guard_exceptionsINS_29_AllocatorDestroyRangeReverseINS_9allocatorI4TreeEENS_16reverse_iteratorIPS3_EEEEED1B8ue170006Ev, symObjAddr: 0x7C64, symBinAddr: 0x10000A8F4, symSize: 0x2C }
  - { offsetInCU: 0x1241E, offset: 0x1241E, size: 0x8, addend: 0x0, symName: __ZNSt3__128__exception_guard_exceptionsINS_29_AllocatorDestroyRangeReverseINS_9allocatorI4TreeEENS_16reverse_iteratorIPS3_EEEEEC1B8ue170006ES8_, symObjAddr: 0x7C90, symBinAddr: 0x10000A920, symSize: 0x34 }
  - { offsetInCU: 0x12457, offset: 0x12457, size: 0x8, addend: 0x0, symName: __ZNSt3__128__exception_guard_exceptionsINS_29_AllocatorDestroyRangeReverseINS_9allocatorI4TreeEENS_16reverse_iteratorIPS3_EEEEEC2B8ue170006ES8_, symObjAddr: 0x7CC4, symBinAddr: 0x10000A954, symSize: 0x30 }
  - { offsetInCU: 0x12490, offset: 0x12490, size: 0x8, addend: 0x0, symName: __ZNSt3__129_AllocatorDestroyRangeReverseINS_9allocatorI4TreeEENS_16reverse_iteratorIPS2_EEEC2B8ue170006ERS3_RS6_S9_, symObjAddr: 0x7CF4, symBinAddr: 0x10000A984, symSize: 0x38 }
  - { offsetInCU: 0x124E7, offset: 0x124E7, size: 0x8, addend: 0x0, symName: __ZNSt3__19allocatorI4TreeE9constructB8ue170006IS1_JRKS1_EEEvPT_DpOT0_, symObjAddr: 0x7D2C, symBinAddr: 0x10000A9BC, symSize: 0x30 }
  - { offsetInCU: 0x12542, offset: 0x12542, size: 0x8, addend: 0x0, symName: __ZNSt3__119__to_address_helperINS_16reverse_iteratorIP4TreeEEvE6__callB8ue170006ERKS4_, symObjAddr: 0x7D5C, symBinAddr: 0x10000A9EC, symSize: 0x4C }
  - { offsetInCU: 0x12565, offset: 0x12565, size: 0x8, addend: 0x0, symName: __ZNKSt3__116reverse_iteratorIP4TreeEptB8ue170006Ev, symObjAddr: 0x7DA8, symBinAddr: 0x10000AA38, symSize: 0x24 }
  - { offsetInCU: 0x1258B, offset: 0x1258B, size: 0x8, addend: 0x0, symName: __ZNSt3__128__exception_guard_exceptionsINS_29_AllocatorDestroyRangeReverseINS_9allocatorI4TreeEENS_16reverse_iteratorIPS3_EEEEED2B8ue170006Ev, symObjAddr: 0x7DCC, symBinAddr: 0x10000AA5C, symSize: 0x48 }
  - { offsetInCU: 0x125B5, offset: 0x125B5, size: 0x8, addend: 0x0, symName: __ZNKSt3__129_AllocatorDestroyRangeReverseINS_9allocatorI4TreeEENS_16reverse_iteratorIPS2_EEEclB8ue170006Ev, symObjAddr: 0x7E14, symBinAddr: 0x10000AAA4, symSize: 0xB4 }
  - { offsetInCU: 0x125DC, offset: 0x125DC, size: 0x8, addend: 0x0, symName: __ZNSt3__116reverse_iteratorINS0_IP4TreeEEEC1B8ue170006ES3_, symObjAddr: 0x7F38, symBinAddr: 0x10000ABC8, symSize: 0x3C }
  - { offsetInCU: 0x12614, offset: 0x12614, size: 0x8, addend: 0x0, symName: __ZNSt3__116reverse_iteratorINS0_IP4TreeEEEppB8ue170006Ev, symObjAddr: 0x7FF8, symBinAddr: 0x10000AC88, symSize: 0x30 }
  - { offsetInCU: 0x1263A, offset: 0x1263A, size: 0x8, addend: 0x0, symName: __ZNKSt3__116reverse_iteratorINS0_IP4TreeEEE4baseB8ue170006Ev, symObjAddr: 0x8028, symBinAddr: 0x10000ACB8, symSize: 0x24 }
  - { offsetInCU: 0x12665, offset: 0x12665, size: 0x8, addend: 0x0, symName: __ZNSt3__119__to_address_helperINS_16reverse_iteratorINS1_IP4TreeEEEEvE6__callB8ue170006ERKS5_, symObjAddr: 0x804C, symBinAddr: 0x10000ACDC, symSize: 0x4C }
  - { offsetInCU: 0x12688, offset: 0x12688, size: 0x8, addend: 0x0, symName: __ZNKSt3__116reverse_iteratorINS0_IP4TreeEEEptB8ue170006Ev, symObjAddr: 0x8098, symBinAddr: 0x10000AD28, symSize: 0x24 }
  - { offsetInCU: 0x126AE, offset: 0x126AE, size: 0x8, addend: 0x0, symName: __ZNKSt3__116reverse_iteratorINS0_IP4TreeEEEdeB8ue170006Ev, symObjAddr: 0x80BC, symBinAddr: 0x10000AD4C, symSize: 0x34 }
  - { offsetInCU: 0x126E2, offset: 0x126E2, size: 0x8, addend: 0x0, symName: __ZNSt3__116reverse_iteratorIP4TreeEmmB8ue170006Ev, symObjAddr: 0x80F0, symBinAddr: 0x10000AD80, symSize: 0x20 }
  - { offsetInCU: 0x12708, offset: 0x12708, size: 0x8, addend: 0x0, symName: __ZNSt3__116reverse_iteratorINS0_IP4TreeEEEC2B8ue170006ES3_, symObjAddr: 0x8110, symBinAddr: 0x10000ADA0, symSize: 0x2C }
  - { offsetInCU: 0x12740, offset: 0x12740, size: 0x8, addend: 0x0, symName: __ZNSt3__116reverse_iteratorIP4TreeEC2B8ue170006ES2_, symObjAddr: 0x813C, symBinAddr: 0x10000ADCC, symSize: 0x28 }
  - { offsetInCU: 0x12778, offset: 0x12778, size: 0x8, addend: 0x0, symName: __ZNSt3__114__split_bufferI4TreeRNS_9allocatorIS1_EEED2Ev, symObjAddr: 0x8164, symBinAddr: 0x10000ADF4, symSize: 0x80 }
  - { offsetInCU: 0x127A4, offset: 0x127A4, size: 0x8, addend: 0x0, symName: __ZNSt3__114__split_bufferI4TreeRNS_9allocatorIS1_EEE5clearB8ue170006Ev, symObjAddr: 0x81E4, symBinAddr: 0x10000AE74, symSize: 0x28 }
  - { offsetInCU: 0x127CA, offset: 0x127CA, size: 0x8, addend: 0x0, symName: __ZNKSt3__114__split_bufferI4TreeRNS_9allocatorIS1_EEE8capacityB8ue170006Ev, symObjAddr: 0x820C, symBinAddr: 0x10000AE9C, symSize: 0x40 }
  - { offsetInCU: 0x127F0, offset: 0x127F0, size: 0x8, addend: 0x0, symName: __ZNSt3__114__split_bufferI4TreeRNS_9allocatorIS1_EEE17__destruct_at_endB8ue170006EPS1_, symObjAddr: 0x824C, symBinAddr: 0x10000AEDC, symSize: 0x2C }
  - { offsetInCU: 0x12824, offset: 0x12824, size: 0x8, addend: 0x0, symName: __ZNSt3__114__split_bufferI4TreeRNS_9allocatorIS1_EEE17__destruct_at_endB8ue170006EPS1_NS_17integral_constantIbLb0EEE, symObjAddr: 0x8278, symBinAddr: 0x10000AF08, symSize: 0x94 }
  - { offsetInCU: 0x12864, offset: 0x12864, size: 0x8, addend: 0x0, symName: __ZNKSt3__114__split_bufferI4TreeRNS_9allocatorIS1_EEE9__end_capB8ue170006Ev, symObjAddr: 0x830C, symBinAddr: 0x10000AF9C, symSize: 0x28 }
  - { offsetInCU: 0x1288A, offset: 0x1288A, size: 0x8, addend: 0x0, symName: __ZNKSt3__117__compressed_pairIP4TreeRNS_9allocatorIS1_EEE5firstB8ue170006Ev, symObjAddr: 0x8334, symBinAddr: 0x10000AFC4, symSize: 0x24 }
...
