---
triple:          'arm64-apple-darwin'
binary-path:     '/Users/justinshih/college/Data_Structure/HW4/output/v3'
relocations:
  - { offsetInCU: 0x23FD1, offset: 0x23FD1, size: 0x8, addend: 0x0, symName: __ZStL8__ioinit, symObjAddr: 0xBF130, symBinAddr: 0x100018000, symSize: 0x0 }
  - { offsetInCU: 0x243CD, offset: 0x243CD, size: 0x8, addend: 0x0, symName: __ZL5PLACE, symObjAddr: 0xBF138, symBinAddr: 0x100018008, symSize: 0x0 }
  - { offsetInCU: 0x243E3, offset: 0x243E3, size: 0x8, addend: 0x0, symName: __ZL4EDGE, symObjAddr: 0xBF158, symBinAddr: 0x100018028, symSize: 0x0 }
  - { offsetInCU: 0x243FB, offset: 0x243FB, size: 0x8, addend: 0x0, symName: __ZL5ORDER, symObjAddr: 0xBF178, symBinAddr: 0x100018048, symSize: 0x0 }
  - { offsetInCU: 0x24411, offset: 0x24411, size: 0x8, addend: 0x0, symName: __ZL4DROP, symObjAddr: 0xBF198, symBinAddr: 0x100018068, symSize: 0x0 }
  - { offsetInCU: 0x2442C, offset: 0x2442C, size: 0x8, addend: 0x0, symName: __ZL8COMPLETE, symObjAddr: 0xBF1B8, symBinAddr: 0x100018088, symSize: 0x0 }
  - { offsetInCU: 0x2510C, offset: 0x2510C, size: 0x8, addend: 0x0, symName: __ZNSt11__copy_moveILb1ELb1ESt26random_access_iterator_tagE8__copy_mIP5OrderS4_EEPT0_PT_S8_S6_, symObjAddr: 0xA1DC, symBinAddr: 0x10000B7D4, symSize: 0x90 }
  - { offsetInCU: 0x2517B, offset: 0x2517B, size: 0x8, addend: 0x0, symName: __ZNSt11__copy_moveILb1ELb1ESt26random_access_iterator_tagE8__copy_mIP6VertexS4_EEPT0_PT_S8_S6_, symObjAddr: 0xA14C, symBinAddr: 0x10000B744, symSize: 0x90 }
  - { offsetInCU: 0x251EA, offset: 0x251EA, size: 0x8, addend: 0x0, symName: __ZSt14__copy_move_a2ILb1EPP5OrderS2_ET1_T0_S4_S3_, symObjAddr: 0xA120, symBinAddr: 0x10000B718, symSize: 0x2C }
  - { offsetInCU: 0x25252, offset: 0x25252, size: 0x8, addend: 0x0, symName: __ZSt14__copy_move_a2ILb1EPP6VertexS2_ET1_T0_S4_S3_, symObjAddr: 0xA0F4, symBinAddr: 0x10000B6EC, symSize: 0x2C }
  - { offsetInCU: 0x252BA, offset: 0x252BA, size: 0x8, addend: 0x0, symName: __ZSt9__fill_a1IPiiEN9__gnu_cxx11__enable_ifIXsrSt11__is_scalarIT0_E7__valueEvE6__typeET_S8_RKS4_, symObjAddr: 0xA09C, symBinAddr: 0x10000B694, symSize: 0x58 }
  - { offsetInCU: 0x25329, offset: 0x25329, size: 0x8, addend: 0x0, symName: __ZNSt20__copy_move_backwardILb1ELb0ESt26random_access_iterator_tagE13__copy_move_bIPSt4pairIiP4EdgeES7_EET0_T_S9_S8_, symObjAddr: 0xA020, symBinAddr: 0x10000B618, symSize: 0x7C }
  - { offsetInCU: 0x25398, offset: 0x25398, size: 0x8, addend: 0x0, symName: __ZSt4swapIP4EdgeENSt9enable_ifIXsrSt6__and_IJSt6__not_ISt15__is_tuple_likeIT_EESt21is_move_constructibleIS6_ESt18is_move_assignableIS6_EEE5valueEvE4typeERS6_SG_, symObjAddr: 0x9FCC, symBinAddr: 0x10000B5C4, symSize: 0x54 }
  - { offsetInCU: 0x253F0, offset: 0x253F0, size: 0x8, addend: 0x0, symName: __ZSt4moveIRP4EdgeEONSt16remove_referenceIT_E4typeEOS4_, symObjAddr: 0x9FB8, symBinAddr: 0x10000B5B0, symSize: 0x14 }
  - { offsetInCU: 0x25426, offset: 0x25426, size: 0x8, addend: 0x0, symName: __ZN9__gnu_cxx5__ops14_Iter_comp_valIPFbSt4pairIiP4EdgeES5_EEclINS_17__normal_iteratorIPS5_St6vectorIS5_SaIS5_EEEES5_EEbT_RT0_, symObjAddr: 0x9F70, symBinAddr: 0x10000B568, symSize: 0x48 }
  - { offsetInCU: 0x254B0, offset: 0x254B0, size: 0x8, addend: 0x0, symName: __ZSt4moveIRP5OrderEONSt16remove_referenceIT_E4typeEOS4_, symObjAddr: 0x9F5C, symBinAddr: 0x10000B554, symSize: 0x14 }
  - { offsetInCU: 0x254E2, offset: 0x254E2, size: 0x8, addend: 0x0, symName: __ZSt14__copy_move_a1ILb1EPP5OrderS2_ET1_T0_S4_S3_, symObjAddr: 0x9F30, symBinAddr: 0x10000B528, symSize: 0x2C }
  - { offsetInCU: 0x2554E, offset: 0x2554E, size: 0x8, addend: 0x0, symName: __ZNKSt13move_iteratorIPP5OrderE4baseEv, symObjAddr: 0x9F18, symBinAddr: 0x10000B510, symSize: 0x18 }
  - { offsetInCU: 0x2557A, offset: 0x2557A, size: 0x8, addend: 0x0, symName: __ZSt4moveIRP6VertexEONSt16remove_referenceIT_E4typeEOS4_, symObjAddr: 0x9F04, symBinAddr: 0x10000B4FC, symSize: 0x14 }
  - { offsetInCU: 0x255AC, offset: 0x255AC, size: 0x8, addend: 0x0, symName: __ZSt14__copy_move_a1ILb1EPP6VertexS2_ET1_T0_S4_S3_, symObjAddr: 0x9ED8, symBinAddr: 0x10000B4D0, symSize: 0x2C }
  - { offsetInCU: 0x25618, offset: 0x25618, size: 0x8, addend: 0x0, symName: __ZNKSt13move_iteratorIPP6VertexE4baseEv, symObjAddr: 0x9EC0, symBinAddr: 0x10000B4B8, symSize: 0x18 }
  - { offsetInCU: 0x2563E, offset: 0x2563E, size: 0x8, addend: 0x0, symName: __ZSt8__fill_aIPiiEvT_S1_RKT0_, symObjAddr: 0x9E90, symBinAddr: 0x10000B488, symSize: 0x30 }
  - { offsetInCU: 0x2569C, offset: 0x2569C, size: 0x8, addend: 0x0, symName: __ZSt23__copy_move_backward_a2ILb1EPSt4pairIiP4EdgeES4_ET1_T0_S6_S5_, symObjAddr: 0x9E64, symBinAddr: 0x10000B45C, symSize: 0x2C }
  - { offsetInCU: 0x25708, offset: 0x25708, size: 0x8, addend: 0x0, symName: __ZNSt4pairIiP4EdgeE4swapERS2_, symObjAddr: 0x9E20, symBinAddr: 0x10000B418, symSize: 0x44 }
  - { offsetInCU: 0x25745, offset: 0x25745, size: 0x8, addend: 0x0, symName: __ZSt11__push_heapIN9__gnu_cxx17__normal_iteratorIPSt4pairIiP4EdgeESt6vectorIS5_SaIS5_EEEElS5_NS0_5__ops14_Iter_comp_valIPFbS5_S5_EEEEvT_T0_SH_T1_RT2_, symObjAddr: 0x9CF4, symBinAddr: 0x10000B2EC, symSize: 0x12C }
  - { offsetInCU: 0x25867, offset: 0x25867, size: 0x8, addend: 0x0, symName: __ZN9__gnu_cxx5__ops14_Iter_comp_valIPFbSt4pairIiP4EdgeES5_EEC1EONS0_15_Iter_comp_iterIS7_EE, symObjAddr: 0x9CC4, symBinAddr: 0x10000B2BC, symSize: 0x30 }
  - { offsetInCU: 0x25893, offset: 0x25893, size: 0x8, addend: 0x0, symName: __ZNSt11__copy_moveILb1ELb0ESt26random_access_iterator_tagE12__assign_oneIP5OrderS4_EEvPT_PT0_, symObjAddr: 0x9C94, symBinAddr: 0x10000B28C, symSize: 0x30 }
  - { offsetInCU: 0x258E0, offset: 0x258E0, size: 0x8, addend: 0x0, symName: __ZSt13__copy_move_aILb1EPP5OrderS2_ET1_T0_S4_S3_, symObjAddr: 0x9C34, symBinAddr: 0x10000B22C, symSize: 0x60 }
  - { offsetInCU: 0x25948, offset: 0x25948, size: 0x8, addend: 0x0, symName: __ZSt12__miter_baseIPP5OrderEDTcl12__miter_basecldtfp_4baseEEESt13move_iteratorIT_E, symObjAddr: 0x9C14, symBinAddr: 0x10000B20C, symSize: 0x20 }
  - { offsetInCU: 0x2597B, offset: 0x2597B, size: 0x8, addend: 0x0, symName: __ZNSt11__copy_moveILb1ELb0ESt26random_access_iterator_tagE12__assign_oneIP6VertexS4_EEvPT_PT0_, symObjAddr: 0x9BE4, symBinAddr: 0x10000B1DC, symSize: 0x30 }
  - { offsetInCU: 0x259C8, offset: 0x259C8, size: 0x8, addend: 0x0, symName: __ZSt13__copy_move_aILb1EPP6VertexS2_ET1_T0_S4_S3_, symObjAddr: 0x9B84, symBinAddr: 0x10000B17C, symSize: 0x60 }
  - { offsetInCU: 0x25A30, offset: 0x25A30, size: 0x8, addend: 0x0, symName: __ZSt12__miter_baseIPP6VertexEDTcl12__miter_basecldtfp_4baseEEESt13move_iteratorIT_E, symObjAddr: 0x9B64, symBinAddr: 0x10000B15C, symSize: 0x20 }
  - { offsetInCU: 0x25A63, offset: 0x25A63, size: 0x8, addend: 0x0, symName: __ZNSt11__copy_moveILb0ELb0ESt26random_access_iterator_tagE12__assign_oneIiiEEvPT_PT0_, symObjAddr: 0x9B3C, symBinAddr: 0x10000B134, symSize: 0x28 }
  - { offsetInCU: 0x25AB0, offset: 0x25AB0, size: 0x8, addend: 0x0, symName: __ZNSt11__copy_moveILb0ELb0ESt26random_access_iterator_tagE12__assign_oneIiKiEEvPT_PT0_, symObjAddr: 0x9B14, symBinAddr: 0x10000B10C, symSize: 0x28 }
  - { offsetInCU: 0x25AFD, offset: 0x25AFD, size: 0x8, addend: 0x0, symName: __ZSt13__copy_move_aILb0EN9__gnu_cxx17__normal_iteratorIPKiSt6vectorIiSaIiEEEEPiET1_T0_SA_S9_, symObjAddr: 0x9AB4, symBinAddr: 0x10000B0AC, symSize: 0x60 }
  - { offsetInCU: 0x25B65, offset: 0x25B65, size: 0x8, addend: 0x0, symName: __ZStltIiiEbRKSt4pairIT_T0_ES5_, symObjAddr: 0x9A4C, symBinAddr: 0x10000B044, symSize: 0x68 }
  - { offsetInCU: 0x25BB2, offset: 0x25BB2, size: 0x8, addend: 0x0, symName: __ZSt10__fill_n_aIPimiET_S1_T0_RKT1_St26random_access_iterator_tag, symObjAddr: 0x99E8, symBinAddr: 0x10000AFE0, symSize: 0x64 }
  - { offsetInCU: 0x25C38, offset: 0x25C38, size: 0x8, addend: 0x0, symName: __ZSt12__niter_wrapIN9__gnu_cxx17__normal_iteratorIPSt4pairIiP4EdgeESt6vectorIS5_SaIS5_EEEES6_ET_SB_T0_, symObjAddr: 0x99A0, symBinAddr: 0x10000AF98, symSize: 0x48 }
  - { offsetInCU: 0x25C85, offset: 0x25C85, size: 0x8, addend: 0x0, symName: __ZSt23__copy_move_backward_a1ILb1EPSt4pairIiP4EdgeES4_ET1_T0_S6_S5_, symObjAddr: 0x9974, symBinAddr: 0x10000AF6C, symSize: 0x2C }
  - { offsetInCU: 0x25CED, offset: 0x25CED, size: 0x8, addend: 0x0, symName: __ZSt12__niter_baseIPSt4pairIiP4EdgeESt6vectorIS3_SaIS3_EEET_N9__gnu_cxx17__normal_iteratorIS8_T0_EE, symObjAddr: 0x9954, symBinAddr: 0x10000AF4C, symSize: 0x20 }
  - { offsetInCU: 0x25D29, offset: 0x25D29, size: 0x8, addend: 0x0, symName: __ZSt4swapIiP4EdgeENSt9enable_ifIXsrSt6__and_IJSt14__is_swappableIT_ES4_IT0_EEE5valueEvE4typeERSt4pairIS5_S7_ESE_, symObjAddr: 0x992C, symBinAddr: 0x10000AF24, symSize: 0x28 }
  - { offsetInCU: 0x25D76, offset: 0x25D76, size: 0x8, addend: 0x0, symName: __ZSt13__adjust_heapIN9__gnu_cxx17__normal_iteratorIPSt4pairIiP4EdgeESt6vectorIS5_SaIS5_EEEElS5_NS0_5__ops15_Iter_comp_iterIPFbS5_S5_EEEEvT_T0_SH_T1_T2_, symObjAddr: 0x9754, symBinAddr: 0x10000AD4C, symSize: 0x1D8 }
  - { offsetInCU: 0x25E38, offset: 0x25E38, size: 0x8, addend: 0x0, symName: __ZSt19__relocate_object_aISt4pairIiP4EdgeES3_SaIS3_EEvPT_PT0_RT1_, symObjAddr: 0x9690, symBinAddr: 0x10000AC88, symSize: 0xC4 }
  - { offsetInCU: 0x25F6A, offset: 0x25F6A, size: 0x8, addend: 0x0, symName: __ZSt11__addressofISt4pairIiP4EdgeEEPT_RS4_, symObjAddr: 0x967C, symBinAddr: 0x10000AC74, symSize: 0x14 }
  - { offsetInCU: 0x25FB2, offset: 0x25FB2, size: 0x8, addend: 0x0, symName: __ZSt19__relocate_object_aISt4pairIiiES1_SaIS1_EEvPT_PT0_RT1_, symObjAddr: 0x95B8, symBinAddr: 0x10000ABB0, symSize: 0xC4 }
  - { offsetInCU: 0x260E4, offset: 0x260E4, size: 0x8, addend: 0x0, symName: __ZSt11__addressofISt4pairIiiEEPT_RS2_, symObjAddr: 0x95A4, symBinAddr: 0x10000AB9C, symSize: 0x14 }
  - { offsetInCU: 0x26142, offset: 0x26142, size: 0x8, addend: 0x0, symName: __ZSt10__fill_n_aIPP5OrdermS1_ET_S3_T0_RKT1_St26random_access_iterator_tag, symObjAddr: 0x9540, symBinAddr: 0x10000AB38, symSize: 0x64 }
  - { offsetInCU: 0x261C8, offset: 0x261C8, size: 0x8, addend: 0x0, symName: __ZNSt20__copy_move_backwardILb1ELb1ESt26random_access_iterator_tagE13__copy_move_bIP5OrderS4_EEPT0_PT_S8_S6_, symObjAddr: 0x9494, symBinAddr: 0x10000AA8C, symSize: 0xAC }
  - { offsetInCU: 0x26237, offset: 0x26237, size: 0x8, addend: 0x0, symName: __ZSt4copyISt13move_iteratorIPP5OrderES3_ET0_T_S6_S5_, symObjAddr: 0x944C, symBinAddr: 0x10000AA44, symSize: 0x48 }
  - { offsetInCU: 0x262AB, offset: 0x262AB, size: 0x8, addend: 0x0, symName: __ZSt10__fill_n_aIPP6VertexmS1_ET_S3_T0_RKT1_St26random_access_iterator_tag, symObjAddr: 0x93E8, symBinAddr: 0x10000A9E0, symSize: 0x64 }
  - { offsetInCU: 0x26331, offset: 0x26331, size: 0x8, addend: 0x0, symName: __ZNSt20__copy_move_backwardILb1ELb1ESt26random_access_iterator_tagE13__copy_move_bIP6VertexS4_EEPT0_PT_S8_S6_, symObjAddr: 0x933C, symBinAddr: 0x10000A934, symSize: 0xAC }
  - { offsetInCU: 0x263A0, offset: 0x263A0, size: 0x8, addend: 0x0, symName: __ZSt4copyISt13move_iteratorIPP6VertexES3_ET0_T_S6_S5_, symObjAddr: 0x92F4, symBinAddr: 0x10000A8EC, symSize: 0x48 }
  - { offsetInCU: 0x263FE, offset: 0x263FE, size: 0x8, addend: 0x0, symName: __ZNSt11__copy_moveILb0ELb1ESt26random_access_iterator_tagE8__copy_mIiiEEPT0_PT_S6_S4_, symObjAddr: 0x9264, symBinAddr: 0x10000A85C, symSize: 0x90 }
  - { offsetInCU: 0x2646D, offset: 0x2646D, size: 0x8, addend: 0x0, symName: __ZNSt11__copy_moveILb0ELb1ESt26random_access_iterator_tagE8__copy_mIKiiEEPT0_PT_S7_S5_, symObjAddr: 0x91D4, symBinAddr: 0x10000A7CC, symSize: 0x90 }
  - { offsetInCU: 0x264DC, offset: 0x264DC, size: 0x8, addend: 0x0, symName: __ZSt4copyIN9__gnu_cxx17__normal_iteratorIPKiSt6vectorIiSaIiEEEEPiET0_T_SA_S9_, symObjAddr: 0x918C, symBinAddr: 0x10000A784, symSize: 0x48 }
  - { offsetInCU: 0x2653A, offset: 0x2653A, size: 0x8, addend: 0x0, symName: __ZStgtIiiEbRKSt4pairIT_T0_ES5_, symObjAddr: 0x9168, symBinAddr: 0x10000A760, symSize: 0x24 }
  - { offsetInCU: 0x26587, offset: 0x26587, size: 0x8, addend: 0x0, symName: __ZSt6fill_nIPimiET_S1_T0_RKT1_, symObjAddr: 0x9120, symBinAddr: 0x10000A718, symSize: 0x48 }
  - { offsetInCU: 0x26613, offset: 0x26613, size: 0x8, addend: 0x0, symName: __ZN9__gnu_cxx5__ops14_Val_comp_iterIPFbSt4pairIiP4EdgeES5_EEclIS5_NS_17__normal_iteratorIPS5_St6vectorIS5_SaIS5_EEEEEEbRT_T0_, symObjAddr: 0x90D8, symBinAddr: 0x10000A6D0, symSize: 0x48 }
  - { offsetInCU: 0x266EE, offset: 0x266EE, size: 0x8, addend: 0x0, symName: __ZN9__gnu_cxx5__ops14_Val_comp_iterIPFbSt4pairIiP4EdgeES5_EEC1EONS0_15_Iter_comp_iterIS7_EE, symObjAddr: 0x90A8, symBinAddr: 0x10000A6A0, symSize: 0x30 }
  - { offsetInCU: 0x266CD, offset: 0x266CD, size: 0x8, addend: 0x0, symName: __ZSt4moveIRN9__gnu_cxx5__ops15_Iter_comp_iterIPFbSt4pairIiP4EdgeES6_EEEEONSt16remove_referenceIT_E4typeEOSC_, symObjAddr: 0x9094, symBinAddr: 0x10000A68C, symSize: 0x14 }
  - { offsetInCU: 0x26705, offset: 0x26705, size: 0x8, addend: 0x0, symName: __ZSt7forwardIP4EdgeEOT_RNSt16remove_referenceIS2_E4typeE, symObjAddr: 0x9080, symBinAddr: 0x10000A678, symSize: 0x14 }
  - { offsetInCU: 0x26737, offset: 0x26737, size: 0x8, addend: 0x0, symName: __ZSt22__copy_move_backward_aILb1EN9__gnu_cxx17__normal_iteratorIPSt4pairIiP4EdgeESt6vectorIS5_SaIS5_EEEESA_ET1_T0_SC_SB_, symObjAddr: 0x9020, symBinAddr: 0x10000A618, symSize: 0x60 }
  - { offsetInCU: 0x2679F, offset: 0x2679F, size: 0x8, addend: 0x0, symName: __ZSt12__miter_baseIN9__gnu_cxx17__normal_iteratorIPSt4pairIiP4EdgeESt6vectorIS5_SaIS5_EEEEET_SB_, symObjAddr: 0x900C, symBinAddr: 0x10000A604, symSize: 0x14 }
  - { offsetInCU: 0x267D2, offset: 0x267D2, size: 0x8, addend: 0x0, symName: __ZSt9iter_swapIN9__gnu_cxx17__normal_iteratorIPSt4pairIiP4EdgeESt6vectorIS5_SaIS5_EEEESA_EvT_T0_, symObjAddr: 0x8FC8, symBinAddr: 0x10000A5C0, symSize: 0x44 }
  - { offsetInCU: 0x26821, offset: 0x26821, size: 0x8, addend: 0x0, symName: __ZN9__gnu_cxx17__normal_iteratorIPSt4pairIiP4EdgeESt6vectorIS4_SaIS4_EEEmmEv, symObjAddr: 0x8FA0, symBinAddr: 0x10000A598, symSize: 0x28 }
  - { offsetInCU: 0x26847, offset: 0x26847, size: 0x8, addend: 0x0, symName: __ZSt10__pop_heapIN9__gnu_cxx17__normal_iteratorIPSt4pairIiP4EdgeESt6vectorIS5_SaIS5_EEEENS0_5__ops15_Iter_comp_iterIPFbS5_S5_EEEEvT_SG_SG_RT0_, symObjAddr: 0x8F08, symBinAddr: 0x10000A500, symSize: 0x98 }
  - { offsetInCU: 0x268E3, offset: 0x268E3, size: 0x8, addend: 0x0, symName: __ZN9__gnu_cxxltIPSt4pairIiP4EdgeESt6vectorIS4_SaIS4_EEEEbRKNS_17__normal_iteratorIT_T0_EESE_, symObjAddr: 0x8EC4, symBinAddr: 0x10000A4BC, symSize: 0x44 }
  - { offsetInCU: 0x26930, offset: 0x26930, size: 0x8, addend: 0x0, symName: __ZSt11__make_heapIN9__gnu_cxx17__normal_iteratorIPSt4pairIiP4EdgeESt6vectorIS5_SaIS5_EEEENS0_5__ops15_Iter_comp_iterIPFbS5_S5_EEEEvT_SG_RT0_, symObjAddr: 0x8DE8, symBinAddr: 0x10000A3E0, symSize: 0xDC }
  - { offsetInCU: 0x269E8, offset: 0x269E8, size: 0x8, addend: 0x0, symName: __ZSt14__relocate_a_1IPSt4pairIiP4EdgeES4_SaIS3_EET0_T_S7_S6_RT1_, symObjAddr: 0x8D64, symBinAddr: 0x10000A35C, symSize: 0x84 }
  - { offsetInCU: 0x26A71, offset: 0x26A71, size: 0x8, addend: 0x0, symName: __ZSt12__niter_baseIPSt4pairIiP4EdgeEET_S5_, symObjAddr: 0x8D50, symBinAddr: 0x10000A348, symSize: 0x14 }
  - { offsetInCU: 0x26AA8, offset: 0x26AA8, size: 0x8, addend: 0x0, symName: __ZNSt15__new_allocatorISt4pairIiP4EdgeEE8allocateEmPKv, symObjAddr: 0x8CD4, symBinAddr: 0x10000A2CC, symSize: 0x7C }
  - { offsetInCU: 0x26B34, offset: 0x26B34, size: 0x8, addend: 0x0, symName: __ZNKSt12_Vector_baseISt4pairIiP4EdgeESaIS3_EE19_M_get_Tp_allocatorEv, symObjAddr: 0x8CC0, symBinAddr: 0x10000A2B8, symSize: 0x14 }
  - { offsetInCU: 0x26B5A, offset: 0x26B5A, size: 0x8, addend: 0x0, symName: __ZNSt6vectorISt4pairIiP4EdgeESaIS3_EE11_S_max_sizeERKS4_, symObjAddr: 0x8C6C, symBinAddr: 0x10000A264, symSize: 0x54 }
  - { offsetInCU: 0x26C11, offset: 0x26C11, size: 0x8, addend: 0x0, symName: __ZSt14__relocate_a_1IPSt4pairIiiES2_SaIS1_EET0_T_S5_S4_RT1_, symObjAddr: 0x8BE8, symBinAddr: 0x10000A1E0, symSize: 0x84 }
  - { offsetInCU: 0x26C9A, offset: 0x26C9A, size: 0x8, addend: 0x0, symName: __ZSt12__niter_baseIPSt4pairIiiEET_S3_, symObjAddr: 0x8BD4, symBinAddr: 0x10000A1CC, symSize: 0x14 }
  - { offsetInCU: 0x26CD1, offset: 0x26CD1, size: 0x8, addend: 0x0, symName: __ZNSt15__new_allocatorISt4pairIiiEE8allocateEmPKv, symObjAddr: 0x8B58, symBinAddr: 0x10000A150, symSize: 0x7C }
  - { offsetInCU: 0x26D5D, offset: 0x26D5D, size: 0x8, addend: 0x0, symName: __ZNKSt12_Vector_baseISt4pairIiiESaIS1_EE19_M_get_Tp_allocatorEv, symObjAddr: 0x8B44, symBinAddr: 0x10000A13C, symSize: 0x14 }
  - { offsetInCU: 0x26D83, offset: 0x26D83, size: 0x8, addend: 0x0, symName: __ZNSt6vectorISt4pairIiiESaIS1_EE11_S_max_sizeERKS2_, symObjAddr: 0x8AF0, symBinAddr: 0x10000A0E8, symSize: 0x54 }
  - { offsetInCU: 0x26E50, offset: 0x26E50, size: 0x8, addend: 0x0, symName: __ZSt6fill_nIPP5OrdermS1_ET_S3_T0_RKT1_, symObjAddr: 0x8AA8, symBinAddr: 0x10000A0A0, symSize: 0x48 }
  - { offsetInCU: 0x26ED8, offset: 0x26ED8, size: 0x8, addend: 0x0, symName: __ZSt23__copy_move_backward_a2ILb1EPP5OrderS2_ET1_T0_S4_S3_, symObjAddr: 0x8A7C, symBinAddr: 0x10000A074, symSize: 0x2C }
  - { offsetInCU: 0x26F40, offset: 0x26F40, size: 0x8, addend: 0x0, symName: __ZNSt20__uninitialized_copyILb1EE13__uninit_copyISt13move_iteratorIPP5OrderES5_EET0_T_S8_S7_, symObjAddr: 0x8A50, symBinAddr: 0x10000A048, symSize: 0x2C }
  - { offsetInCU: 0x26FB1, offset: 0x26FB1, size: 0x8, addend: 0x0, symName: __ZSt6fill_nIPP6VertexmS1_ET_S3_T0_RKT1_, symObjAddr: 0x8A08, symBinAddr: 0x10000A000, symSize: 0x48 }
  - { offsetInCU: 0x27039, offset: 0x27039, size: 0x8, addend: 0x0, symName: __ZSt23__copy_move_backward_a2ILb1EPP6VertexS2_ET1_T0_S4_S3_, symObjAddr: 0x89DC, symBinAddr: 0x100009FD4, symSize: 0x2C }
  - { offsetInCU: 0x270A1, offset: 0x270A1, size: 0x8, addend: 0x0, symName: __ZNSt20__uninitialized_copyILb1EE13__uninit_copyISt13move_iteratorIPP6VertexES5_EET0_T_S8_S7_, symObjAddr: 0x89B0, symBinAddr: 0x100009FA8, symSize: 0x2C }
  - { offsetInCU: 0x270FC, offset: 0x270FC, size: 0x8, addend: 0x0, symName: __ZSt14__copy_move_a2ILb0EPiS0_ET1_T0_S2_S1_, symObjAddr: 0x8984, symBinAddr: 0x100009F7C, symSize: 0x2C }
  - { offsetInCU: 0x27168, offset: 0x27168, size: 0x8, addend: 0x0, symName: __ZNK9__gnu_cxx17__normal_iteratorIPiSt6vectorIiSaIiEEEplEl, symObjAddr: 0x8944, symBinAddr: 0x100009F3C, symSize: 0x40 }
  - { offsetInCU: 0x2719F, offset: 0x2719F, size: 0x8, addend: 0x0, symName: __ZSt14__copy_move_a2ILb0EPKiPiET1_T0_S4_S3_, symObjAddr: 0x8918, symBinAddr: 0x100009F10, symSize: 0x2C }
  - { offsetInCU: 0x2720B, offset: 0x2720B, size: 0x8, addend: 0x0, symName: __ZNK9__gnu_cxx17__normal_iteratorIPKiSt6vectorIiSaIiEEE4baseEv, symObjAddr: 0x8904, symBinAddr: 0x100009EFC, symSize: 0x14 }
  - { offsetInCU: 0x27231, offset: 0x27231, size: 0x8, addend: 0x0, symName: __ZNSt20__uninitialized_copyILb1EE13__uninit_copyIN9__gnu_cxx17__normal_iteratorIPKiSt6vectorIiSaIiEEEEPiEET0_T_SC_SB_, symObjAddr: 0x88D8, symBinAddr: 0x100009ED0, symSize: 0x2C }
  - { offsetInCU: 0x2730F, offset: 0x2730F, size: 0x8, addend: 0x0, symName: __ZN9__gnu_cxx5__ops14_Iter_comp_valISt7greaterISt4pairIiiEEEC1EONS0_15_Iter_comp_iterIS5_EE, symObjAddr: 0x88B4, symBinAddr: 0x100009EAC, symSize: 0x24 }
  - { offsetInCU: 0x272EE, offset: 0x272EE, size: 0x8, addend: 0x0, symName: __ZSt4moveIRN9__gnu_cxx5__ops15_Iter_comp_iterISt7greaterISt4pairIiiEEEEEONSt16remove_referenceIT_E4typeEOSA_, symObjAddr: 0x88A0, symBinAddr: 0x100009E98, symSize: 0x14 }
  - { offsetInCU: 0x27324, offset: 0x27324, size: 0x8, addend: 0x0, symName: __ZN9__gnu_cxx5__ops15_Iter_comp_iterISt7greaterISt4pairIiiEEEclINS_17__normal_iteratorIPS4_St6vectorIS4_SaIS4_EEEESD_EEbT_T0_, symObjAddr: 0x8854, symBinAddr: 0x100009E4C, symSize: 0x4C }
  - { offsetInCU: 0x27380, offset: 0x27380, size: 0x8, addend: 0x0, symName: __ZNKSt7greaterISt4pairIiiEEclERKS1_S4_, symObjAddr: 0x882C, symBinAddr: 0x100009E24, symSize: 0x28 }
  - { offsetInCU: 0x273C8, offset: 0x273C8, size: 0x8, addend: 0x0, symName: __ZNSt22__uninitialized_fill_nILb1EE15__uninit_fill_nIPimiEET_S3_T0_RKT1_, symObjAddr: 0x8800, symBinAddr: 0x100009DF8, symSize: 0x2C }
  - { offsetInCU: 0x27445, offset: 0x27445, size: 0x8, addend: 0x0, symName: __ZSt25__unguarded_linear_insertIN9__gnu_cxx17__normal_iteratorIPSt4pairIiP4EdgeESt6vectorIS5_SaIS5_EEEENS0_5__ops14_Val_comp_iterIPFbS5_S5_EEEEvT_T0_, symObjAddr: 0x874C, symBinAddr: 0x100009D44, symSize: 0xB4 }
  - { offsetInCU: 0x274B4, offset: 0x274B4, size: 0x8, addend: 0x0, symName: __ZN9__gnu_cxx5__ops15__val_comp_iterIPFbSt4pairIiP4EdgeES5_EEENS0_14_Val_comp_iterIT_EENS0_15_Iter_comp_iterIS9_EE, symObjAddr: 0x8720, symBinAddr: 0x100009D18, symSize: 0x2C }
  - { offsetInCU: 0x274EA, offset: 0x274EA, size: 0x8, addend: 0x0, symName: __ZNSt4pairIiP4EdgeEaSEOS2_, symObjAddr: 0x86D8, symBinAddr: 0x100009CD0, symSize: 0x48 }
  - { offsetInCU: 0x27521, offset: 0x27521, size: 0x8, addend: 0x0, symName: __ZSt13move_backwardIN9__gnu_cxx17__normal_iteratorIPSt4pairIiP4EdgeESt6vectorIS5_SaIS5_EEEESA_ET0_T_SC_SB_, symObjAddr: 0x8690, symBinAddr: 0x100009C88, symSize: 0x48 }
  - { offsetInCU: 0x27583, offset: 0x27583, size: 0x8, addend: 0x0, symName: __ZN9__gnu_cxx5__ops15_Iter_comp_iterIPFbSt4pairIiP4EdgeES5_EEclINS_17__normal_iteratorIPS5_St6vectorIS5_SaIS5_EEEESF_EEbT_T0_, symObjAddr: 0x8644, symBinAddr: 0x100009C3C, symSize: 0x4C }
  - { offsetInCU: 0x275DF, offset: 0x275DF, size: 0x8, addend: 0x0, symName: __ZN9__gnu_cxx17__normal_iteratorIPSt4pairIiP4EdgeESt6vectorIS4_SaIS4_EEEppEv, symObjAddr: 0x861C, symBinAddr: 0x100009C14, symSize: 0x28 }
  - { offsetInCU: 0x27605, offset: 0x27605, size: 0x8, addend: 0x0, symName: __ZN9__gnu_cxxeqIPSt4pairIiP4EdgeESt6vectorIS4_SaIS4_EEEEbRKNS_17__normal_iteratorIT_T0_EESE_, symObjAddr: 0x85D8, symBinAddr: 0x100009BD0, symSize: 0x44 }
  - { offsetInCU: 0x27652, offset: 0x27652, size: 0x8, addend: 0x0, symName: __ZSt21__unguarded_partitionIN9__gnu_cxx17__normal_iteratorIPSt4pairIiP4EdgeESt6vectorIS5_SaIS5_EEEENS0_5__ops15_Iter_comp_iterIPFbS5_S5_EEEET_SG_SG_SG_T0_, symObjAddr: 0x8520, symBinAddr: 0x100009B18, symSize: 0xB8 }
  - { offsetInCU: 0x276C1, offset: 0x276C1, size: 0x8, addend: 0x0, symName: __ZSt22__move_median_to_firstIN9__gnu_cxx17__normal_iteratorIPSt4pairIiP4EdgeESt6vectorIS5_SaIS5_EEEENS0_5__ops15_Iter_comp_iterIPFbS5_S5_EEEEvT_SG_SG_SG_T0_, symObjAddr: 0x8410, symBinAddr: 0x100009A08, symSize: 0x110 }
  - { offsetInCU: 0x2773C, offset: 0x2773C, size: 0x8, addend: 0x0, symName: __ZSt11__sort_heapIN9__gnu_cxx17__normal_iteratorIPSt4pairIiP4EdgeESt6vectorIS5_SaIS5_EEEENS0_5__ops15_Iter_comp_iterIPFbS5_S5_EEEEvT_SG_RT0_, symObjAddr: 0x83A8, symBinAddr: 0x1000099A0, symSize: 0x68 }
  - { offsetInCU: 0x2779A, offset: 0x2779A, size: 0x8, addend: 0x0, symName: __ZSt13__heap_selectIN9__gnu_cxx17__normal_iteratorIPSt4pairIiP4EdgeESt6vectorIS5_SaIS5_EEEENS0_5__ops15_Iter_comp_iterIPFbS5_S5_EEEEvT_SG_SG_T0_, symObjAddr: 0x830C, symBinAddr: 0x100009904, symSize: 0x9C }
  - { offsetInCU: 0x2782D, offset: 0x2782D, size: 0x8, addend: 0x0, symName: __ZSt12__relocate_aIPSt4pairIiP4EdgeES4_SaIS3_EET0_T_S7_S6_RT1_, symObjAddr: 0x82B0, symBinAddr: 0x1000098A8, symSize: 0x5C }
  - { offsetInCU: 0x278CD, offset: 0x278CD, size: 0x8, addend: 0x0, symName: __ZNKSt6vectorISt4pairIiP4EdgeESaIS3_EE8max_sizeEv, symObjAddr: 0x8290, symBinAddr: 0x100009888, symSize: 0x20 }
  - { offsetInCU: 0x278F3, offset: 0x278F3, size: 0x8, addend: 0x0, symName: __ZSt12__relocate_aIPSt4pairIiiES2_SaIS1_EET0_T_S5_S4_RT1_, symObjAddr: 0x8234, symBinAddr: 0x10000982C, symSize: 0x5C }
  - { offsetInCU: 0x27993, offset: 0x27993, size: 0x8, addend: 0x0, symName: __ZNKSt6vectorISt4pairIiiESaIS1_EE8max_sizeEv, symObjAddr: 0x8214, symBinAddr: 0x10000980C, symSize: 0x20 }
  - { offsetInCU: 0x279B9, offset: 0x279B9, size: 0x8, addend: 0x0, symName: __ZSt14__relocate_a_1IiiENSt9enable_ifIXsrSt24__is_bitwise_relocatableIT_vE5valueEPS2_E4typeES4_S4_S4_RSaIT0_E, symObjAddr: 0x81B0, symBinAddr: 0x1000097A8, symSize: 0x64 }
  - { offsetInCU: 0x27A3D, offset: 0x27A3D, size: 0x8, addend: 0x0, symName: __ZNSt15__new_allocatorIiE8allocateEmPKv, symObjAddr: 0x8134, symBinAddr: 0x10000972C, symSize: 0x7C }
  - { offsetInCU: 0x27AC9, offset: 0x27AC9, size: 0x8, addend: 0x0, symName: __ZNSt15__new_allocatorIP5OrderE8allocateEmPKv, symObjAddr: 0x80B8, symBinAddr: 0x1000096B0, symSize: 0x7C }
  - { offsetInCU: 0x27B55, offset: 0x27B55, size: 0x8, addend: 0x0, symName: __ZNKSt12_Vector_baseIP5OrderSaIS1_EE19_M_get_Tp_allocatorEv, symObjAddr: 0x80A4, symBinAddr: 0x10000969C, symSize: 0x14 }
  - { offsetInCU: 0x27B7B, offset: 0x27B7B, size: 0x8, addend: 0x0, symName: __ZNSt6vectorIP5OrderSaIS1_EE11_S_max_sizeERKS2_, symObjAddr: 0x8050, symBinAddr: 0x100009648, symSize: 0x54 }
  - { offsetInCU: 0x27C32, offset: 0x27C32, size: 0x8, addend: 0x0, symName: __ZNSt22__uninitialized_fill_nILb1EE15__uninit_fill_nIPP5OrdermS3_EET_S5_T0_RKT1_, symObjAddr: 0x8024, symBinAddr: 0x10000961C, symSize: 0x2C }
  - { offsetInCU: 0x27C99, offset: 0x27C99, size: 0x8, addend: 0x0, symName: __ZSt9__fill_a1IPP5OrderS1_EN9__gnu_cxx11__enable_ifIXsrSt11__is_scalarIT0_E7__valueEvE6__typeET_SA_RKS6_, symObjAddr: 0x7FCC, symBinAddr: 0x1000095C4, symSize: 0x58 }
  - { offsetInCU: 0x27D08, offset: 0x27D08, size: 0x8, addend: 0x0, symName: __ZSt12__niter_wrapIPP5OrderET_RKS3_S3_, symObjAddr: 0x7FB4, symBinAddr: 0x1000095AC, symSize: 0x18 }
  - { offsetInCU: 0x27D44, offset: 0x27D44, size: 0x8, addend: 0x0, symName: __ZSt23__copy_move_backward_a1ILb1EPP5OrderS2_ET1_T0_S4_S3_, symObjAddr: 0x7F88, symBinAddr: 0x100009580, symSize: 0x2C }
  - { offsetInCU: 0x27DAC, offset: 0x27DAC, size: 0x8, addend: 0x0, symName: __ZSt12__niter_baseIPP5OrderET_S3_, symObjAddr: 0x7F74, symBinAddr: 0x10000956C, symSize: 0x14 }
  - { offsetInCU: 0x27DDF, offset: 0x27DDF, size: 0x8, addend: 0x0, symName: __ZSt18uninitialized_copyISt13move_iteratorIPP5OrderES3_ET0_T_S6_S5_, symObjAddr: 0x7F38, symBinAddr: 0x100009530, symSize: 0x3C }
  - { offsetInCU: 0x27EA7, offset: 0x27EA7, size: 0x8, addend: 0x0, symName: __ZNSt13move_iteratorIPP5OrderEC1ES2_, symObjAddr: 0x7F08, symBinAddr: 0x100009500, symSize: 0x30 }
  - { offsetInCU: 0x27EBD, offset: 0x27EBD, size: 0x8, addend: 0x0, symName: __ZSt4moveIRPP5OrderEONSt16remove_referenceIT_E4typeEOS5_, symObjAddr: 0x7EF4, symBinAddr: 0x1000094EC, symSize: 0x14 }
  - { offsetInCU: 0x27F5D, offset: 0x27F5D, size: 0x8, addend: 0x0, symName: __ZSt11__addressofIP5OrderEPT_RS2_, symObjAddr: 0x7EE0, symBinAddr: 0x1000094D8, symSize: 0x14 }
  - { offsetInCU: 0x27F93, offset: 0x27F93, size: 0x8, addend: 0x0, symName: __ZNSt15__new_allocatorIP6VertexE8allocateEmPKv, symObjAddr: 0x7E64, symBinAddr: 0x10000945C, symSize: 0x7C }
  - { offsetInCU: 0x2801F, offset: 0x2801F, size: 0x8, addend: 0x0, symName: __ZNKSt12_Vector_baseIP6VertexSaIS1_EE19_M_get_Tp_allocatorEv, symObjAddr: 0x7E50, symBinAddr: 0x100009448, symSize: 0x14 }
  - { offsetInCU: 0x28045, offset: 0x28045, size: 0x8, addend: 0x0, symName: __ZNSt6vectorIP6VertexSaIS1_EE11_S_max_sizeERKS2_, symObjAddr: 0x7DFC, symBinAddr: 0x1000093F4, symSize: 0x54 }
  - { offsetInCU: 0x280FC, offset: 0x280FC, size: 0x8, addend: 0x0, symName: __ZNSt22__uninitialized_fill_nILb1EE15__uninit_fill_nIPP6VertexmS3_EET_S5_T0_RKT1_, symObjAddr: 0x7DD0, symBinAddr: 0x1000093C8, symSize: 0x2C }
  - { offsetInCU: 0x28163, offset: 0x28163, size: 0x8, addend: 0x0, symName: __ZSt9__fill_a1IPP6VertexS1_EN9__gnu_cxx11__enable_ifIXsrSt11__is_scalarIT0_E7__valueEvE6__typeET_SA_RKS6_, symObjAddr: 0x7D78, symBinAddr: 0x100009370, symSize: 0x58 }
  - { offsetInCU: 0x281D2, offset: 0x281D2, size: 0x8, addend: 0x0, symName: __ZSt12__niter_wrapIPP6VertexET_RKS3_S3_, symObjAddr: 0x7D60, symBinAddr: 0x100009358, symSize: 0x18 }
  - { offsetInCU: 0x2820E, offset: 0x2820E, size: 0x8, addend: 0x0, symName: __ZSt23__copy_move_backward_a1ILb1EPP6VertexS2_ET1_T0_S4_S3_, symObjAddr: 0x7D34, symBinAddr: 0x10000932C, symSize: 0x2C }
  - { offsetInCU: 0x28276, offset: 0x28276, size: 0x8, addend: 0x0, symName: __ZSt12__niter_baseIPP6VertexET_S3_, symObjAddr: 0x7D20, symBinAddr: 0x100009318, symSize: 0x14 }
  - { offsetInCU: 0x282A9, offset: 0x282A9, size: 0x8, addend: 0x0, symName: __ZSt18uninitialized_copyISt13move_iteratorIPP6VertexES3_ET0_T_S6_S5_, symObjAddr: 0x7CE4, symBinAddr: 0x1000092DC, symSize: 0x3C }
  - { offsetInCU: 0x28372, offset: 0x28372, size: 0x8, addend: 0x0, symName: __ZNSt13move_iteratorIPP6VertexEC1ES2_, symObjAddr: 0x7CB4, symBinAddr: 0x1000092AC, symSize: 0x30 }
  - { offsetInCU: 0x28387, offset: 0x28387, size: 0x8, addend: 0x0, symName: __ZSt4moveIRPP6VertexEONSt16remove_referenceIT_E4typeEOS5_, symObjAddr: 0x7CA0, symBinAddr: 0x100009298, symSize: 0x14 }
  - { offsetInCU: 0x28427, offset: 0x28427, size: 0x8, addend: 0x0, symName: __ZSt11__addressofIP6VertexEPT_RS2_, symObjAddr: 0x7C8C, symBinAddr: 0x100009284, symSize: 0x14 }
  - { offsetInCU: 0x28459, offset: 0x28459, size: 0x8, addend: 0x0, symName: __ZSt4swapIiENSt9enable_ifIXsrSt6__and_IJSt6__not_ISt15__is_tuple_likeIT_EESt21is_move_constructibleIS4_ESt18is_move_assignableIS4_EEE5valueEvE4typeERS4_SE_, symObjAddr: 0x7C38, symBinAddr: 0x100009230, symSize: 0x54 }
  - { offsetInCU: 0x284B1, offset: 0x284B1, size: 0x8, addend: 0x0, symName: __ZSt4moveIRiEONSt16remove_referenceIT_E4typeEOS2_, symObjAddr: 0x7C24, symBinAddr: 0x10000921C, symSize: 0x14 }
  - { offsetInCU: 0x284E7, offset: 0x284E7, size: 0x8, addend: 0x0, symName: __ZNK9__gnu_cxx17__normal_iteratorIPiSt6vectorIiSaIiEEEdeEv, symObjAddr: 0x7C0C, symBinAddr: 0x100009204, symSize: 0x18 }
  - { offsetInCU: 0x2850D, offset: 0x2850D, size: 0x8, addend: 0x0, symName: __ZNSt20__uninitialized_copyILb1EE13__uninit_copyIPiS2_EET0_T_S4_S3_, symObjAddr: 0x7BE0, symBinAddr: 0x1000091D8, symSize: 0x2C }
  - { offsetInCU: 0x28568, offset: 0x28568, size: 0x8, addend: 0x0, symName: __ZSt12__niter_wrapIPiET_RKS1_S1_, symObjAddr: 0x7BC8, symBinAddr: 0x1000091C0, symSize: 0x18 }
  - { offsetInCU: 0x285A4, offset: 0x285A4, size: 0x8, addend: 0x0, symName: __ZSt14__copy_move_a1ILb0EPiS0_ET1_T0_S2_S1_, symObjAddr: 0x7B9C, symBinAddr: 0x100009194, symSize: 0x2C }
  - { offsetInCU: 0x2860C, offset: 0x2860C, size: 0x8, addend: 0x0, symName: __ZSt12__niter_baseIPiET_S1_, symObjAddr: 0x7B88, symBinAddr: 0x100009180, symSize: 0x14 }
  - { offsetInCU: 0x2863F, offset: 0x2863F, size: 0x8, addend: 0x0, symName: __ZNSt12_Destroy_auxILb1EE9__destroyIN9__gnu_cxx17__normal_iteratorIPiSt6vectorIiSaIiEEEEEEvT_S9_, symObjAddr: 0x7B70, symBinAddr: 0x100009168, symSize: 0x18 }
  - { offsetInCU: 0x28673, offset: 0x28673, size: 0x8, addend: 0x0, symName: __ZSt12__niter_wrapIN9__gnu_cxx17__normal_iteratorIPiSt6vectorIiSaIiEEEES2_ET_S7_T0_, symObjAddr: 0x7B28, symBinAddr: 0x100009120, symSize: 0x48 }
  - { offsetInCU: 0x286C0, offset: 0x286C0, size: 0x8, addend: 0x0, symName: __ZSt14__copy_move_a1ILb0EPKiPiET1_T0_S4_S3_, symObjAddr: 0x7AFC, symBinAddr: 0x1000090F4, symSize: 0x2C }
  - { offsetInCU: 0x28728, offset: 0x28728, size: 0x8, addend: 0x0, symName: __ZSt12__niter_baseIPiSt6vectorIiSaIiEEET_N9__gnu_cxx17__normal_iteratorIS4_T0_EE, symObjAddr: 0x7ADC, symBinAddr: 0x1000090D4, symSize: 0x20 }
  - { offsetInCU: 0x28764, offset: 0x28764, size: 0x8, addend: 0x0, symName: __ZSt12__niter_baseIPKiSt6vectorIiSaIiEEET_N9__gnu_cxx17__normal_iteratorIS5_T0_EE, symObjAddr: 0x7ABC, symBinAddr: 0x1000090B4, symSize: 0x20 }
  - { offsetInCU: 0x287A0, offset: 0x287A0, size: 0x8, addend: 0x0, symName: __ZSt18uninitialized_copyIN9__gnu_cxx17__normal_iteratorIPKiSt6vectorIiSaIiEEEEPiET0_T_SA_S9_, symObjAddr: 0x7A80, symBinAddr: 0x100009078, symSize: 0x3C }
  - { offsetInCU: 0x2885D, offset: 0x2885D, size: 0x8, addend: 0x0, symName: __ZSt13__adjust_heapIN9__gnu_cxx17__normal_iteratorIPSt4pairIiiESt6vectorIS3_SaIS3_EEEElS3_NS0_5__ops15_Iter_comp_iterISt7greaterIS3_EEEEvT_T0_SF_T1_T2_, symObjAddr: 0x78A8, symBinAddr: 0x100008EA0, symSize: 0x1D8 }
  - { offsetInCU: 0x28994, offset: 0x28994, size: 0x8, addend: 0x0, symName: __ZN9__gnu_cxx17__normal_iteratorIPKSt4pairIiiESt6vectorIS2_SaIS2_EEEC1ERKS4_, symObjAddr: 0x7880, symBinAddr: 0x100008E78, symSize: 0x28 }
  - { offsetInCU: 0x2897A, offset: 0x2897A, size: 0x8, addend: 0x0, symName: __ZNSt4pairIiiEaSEOS0_, symObjAddr: 0x7838, symBinAddr: 0x100008E30, symSize: 0x48 }
  - { offsetInCU: 0x289B5, offset: 0x289B5, size: 0x8, addend: 0x0, symName: __ZN9__gnu_cxx5__ops14_Iter_comp_valISt7greaterISt4pairIiiEEEclINS_17__normal_iteratorIPS4_St6vectorIS4_SaIS4_EEEES4_EEbT_RT0_, symObjAddr: 0x77F8, symBinAddr: 0x100008DF0, symSize: 0x40 }
  - { offsetInCU: 0x28A11, offset: 0x28A11, size: 0x8, addend: 0x0, symName: __ZNK9__gnu_cxx17__normal_iteratorIPSt4pairIiiESt6vectorIS2_SaIS2_EEEplEl, symObjAddr: 0x77B8, symBinAddr: 0x100008DB0, symSize: 0x40 }
  - { offsetInCU: 0x28A48, offset: 0x28A48, size: 0x8, addend: 0x0, symName: __ZSt20uninitialized_fill_nIPimiET_S1_T0_RKT1_, symObjAddr: 0x7784, symBinAddr: 0x100008D7C, symSize: 0x34 }
  - { offsetInCU: 0x28AF1, offset: 0x28AF1, size: 0x8, addend: 0x0, symName: __ZSt26__unguarded_insertion_sortIN9__gnu_cxx17__normal_iteratorIPSt4pairIiP4EdgeESt6vectorIS5_SaIS5_EEEENS0_5__ops15_Iter_comp_iterIPFbS5_S5_EEEEvT_SG_T0_, symObjAddr: 0x7720, symBinAddr: 0x100008D18, symSize: 0x64 }
  - { offsetInCU: 0x28B73, offset: 0x28B73, size: 0x8, addend: 0x0, symName: __ZSt16__insertion_sortIN9__gnu_cxx17__normal_iteratorIPSt4pairIiP4EdgeESt6vectorIS5_SaIS5_EEEENS0_5__ops15_Iter_comp_iterIPFbS5_S5_EEEEvT_SG_T0_, symObjAddr: 0x7628, symBinAddr: 0x100008C20, symSize: 0xF8 }
  - { offsetInCU: 0x28C1D, offset: 0x28C1D, size: 0x8, addend: 0x0, symName: __ZNK9__gnu_cxx17__normal_iteratorIPSt4pairIiP4EdgeESt6vectorIS4_SaIS4_EEEplEl, symObjAddr: 0x75E8, symBinAddr: 0x100008BE0, symSize: 0x40 }
  - { offsetInCU: 0x28C54, offset: 0x28C54, size: 0x8, addend: 0x0, symName: __ZSt27__unguarded_partition_pivotIN9__gnu_cxx17__normal_iteratorIPSt4pairIiP4EdgeESt6vectorIS5_SaIS5_EEEENS0_5__ops15_Iter_comp_iterIPFbS5_S5_EEEET_SG_SG_T0_, symObjAddr: 0x754C, symBinAddr: 0x100008B44, symSize: 0x9C }
  - { offsetInCU: 0x28CC3, offset: 0x28CC3, size: 0x8, addend: 0x0, symName: __ZSt14__partial_sortIN9__gnu_cxx17__normal_iteratorIPSt4pairIiP4EdgeESt6vectorIS5_SaIS5_EEEENS0_5__ops15_Iter_comp_iterIPFbS5_S5_EEEEvT_SG_SG_T0_, symObjAddr: 0x7500, symBinAddr: 0x100008AF8, symSize: 0x4C }
  - { offsetInCU: 0x28D36, offset: 0x28D36, size: 0x8, addend: 0x0, symName: __ZNK9__gnu_cxx17__normal_iteratorIPSt4pairIiP4EdgeESt6vectorIS4_SaIS4_EEEmiEl, symObjAddr: 0x74BC, symBinAddr: 0x100008AB4, symSize: 0x44 }
  - { offsetInCU: 0x28D6D, offset: 0x28D6D, size: 0x8, addend: 0x0, symName: __ZNSt6vectorISt4pairIiP4EdgeESaIS3_EE11_S_relocateEPS3_S6_S6_RS4_, symObjAddr: 0x7488, symBinAddr: 0x100008A80, symSize: 0x34 }
  - { offsetInCU: 0x28DCA, offset: 0x28DCA, size: 0x8, addend: 0x0, symName: __ZSt12__to_addressISt4pairIiP4EdgeEEPT_S5_, symObjAddr: 0x7474, symBinAddr: 0x100008A6C, symSize: 0x14 }
  - { offsetInCU: 0x28E00, offset: 0x28E00, size: 0x8, addend: 0x0, symName: __ZNSt12_Vector_baseISt4pairIiP4EdgeESaIS3_EE11_M_allocateEm, symObjAddr: 0x7424, symBinAddr: 0x100008A1C, symSize: 0x50 }
  - { offsetInCU: 0x28E68, offset: 0x28E68, size: 0x8, addend: 0x0, symName: __ZNKSt6vectorISt4pairIiP4EdgeESaIS3_EE12_M_check_lenEmPKc, symObjAddr: 0x7354, symBinAddr: 0x10000894C, symSize: 0xD0 }
  - { offsetInCU: 0x28F03, offset: 0x28F03, size: 0x8, addend: 0x0, symName: __ZNSt6vectorISt4pairIiiESaIS1_EE11_S_relocateEPS1_S4_S4_RS2_, symObjAddr: 0x7320, symBinAddr: 0x100008918, symSize: 0x34 }
  - { offsetInCU: 0x28F60, offset: 0x28F60, size: 0x8, addend: 0x0, symName: __ZSt12__to_addressISt4pairIiiEEPT_S3_, symObjAddr: 0x730C, symBinAddr: 0x100008904, symSize: 0x14 }
  - { offsetInCU: 0x28F96, offset: 0x28F96, size: 0x8, addend: 0x0, symName: __ZNSt12_Vector_baseISt4pairIiiESaIS1_EE11_M_allocateEm, symObjAddr: 0x72BC, symBinAddr: 0x1000088B4, symSize: 0x50 }
  - { offsetInCU: 0x28FFE, offset: 0x28FFE, size: 0x8, addend: 0x0, symName: __ZNKSt6vectorISt4pairIiiESaIS1_EE12_M_check_lenEmPKc, symObjAddr: 0x71EC, symBinAddr: 0x1000087E4, symSize: 0xD0 }
  - { offsetInCU: 0x29099, offset: 0x29099, size: 0x8, addend: 0x0, symName: __ZSt12__relocate_aIPiS0_SaIiEET0_T_S3_S2_RT1_, symObjAddr: 0x7190, symBinAddr: 0x100008788, symSize: 0x5C }
  - { offsetInCU: 0x29139, offset: 0x29139, size: 0x8, addend: 0x0, symName: __ZNK9__gnu_cxx17__normal_iteratorIPiSt6vectorIiSaIiEEE4baseEv, symObjAddr: 0x717C, symBinAddr: 0x100008774, symSize: 0x14 }
  - { offsetInCU: 0x29163, offset: 0x29163, size: 0x8, addend: 0x0, symName: __ZNKSt6vectorIiSaIiEE8max_sizeEv, symObjAddr: 0x715C, symBinAddr: 0x100008754, symSize: 0x20 }
  - { offsetInCU: 0x29189, offset: 0x29189, size: 0x8, addend: 0x0, symName: __ZSt32__make_move_if_noexcept_iteratorIP5OrderSt13move_iteratorIPS1_EET0_PT_, symObjAddr: 0x7138, symBinAddr: 0x100008730, symSize: 0x24 }
  - { offsetInCU: 0x291ED, offset: 0x291ED, size: 0x8, addend: 0x0, symName: __ZNKSt6vectorIP5OrderSaIS1_EE8max_sizeEv, symObjAddr: 0x7118, symBinAddr: 0x100008710, symSize: 0x20 }
  - { offsetInCU: 0x29213, offset: 0x29213, size: 0x8, addend: 0x0, symName: __ZSt20uninitialized_fill_nIPP5OrdermS1_ET_S3_T0_RKT1_, symObjAddr: 0x70E4, symBinAddr: 0x1000086DC, symSize: 0x34 }
  - { offsetInCU: 0x2928B, offset: 0x2928B, size: 0x8, addend: 0x0, symName: __ZSt8__fill_aIPP5OrderS1_EvT_S3_RKT0_, symObjAddr: 0x70B4, symBinAddr: 0x1000086AC, symSize: 0x30 }
  - { offsetInCU: 0x292E9, offset: 0x292E9, size: 0x8, addend: 0x0, symName: __ZSt22__copy_move_backward_aILb1EPP5OrderS2_ET1_T0_S4_S3_, symObjAddr: 0x7054, symBinAddr: 0x10000864C, symSize: 0x60 }
  - { offsetInCU: 0x29351, offset: 0x29351, size: 0x8, addend: 0x0, symName: __ZSt12__miter_baseIPP5OrderET_S3_, symObjAddr: 0x7040, symBinAddr: 0x100008638, symSize: 0x14 }
  - { offsetInCU: 0x29384, offset: 0x29384, size: 0x8, addend: 0x0, symName: __ZSt22__uninitialized_copy_aISt13move_iteratorIPP5OrderES3_S2_ET0_T_S6_S5_RSaIT1_E, symObjAddr: 0x7010, symBinAddr: 0x100008608, symSize: 0x30 }
  - { offsetInCU: 0x293F4, offset: 0x293F4, size: 0x8, addend: 0x0, symName: __ZSt18make_move_iteratorIPP5OrderESt13move_iteratorIT_ES4_, symObjAddr: 0x6FE4, symBinAddr: 0x1000085DC, symSize: 0x2C }
  - { offsetInCU: 0x2949E, offset: 0x2949E, size: 0x8, addend: 0x0, symName: __ZSt7forwardIRKP5OrderEOT_RNSt16remove_referenceIS4_E4typeE, symObjAddr: 0x6FD0, symBinAddr: 0x1000085C8, symSize: 0x14 }
  - { offsetInCU: 0x294D4, offset: 0x294D4, size: 0x8, addend: 0x0, symName: __ZNSt6vectorIP5OrderSaIS1_EE16_Temporary_value6_M_ptrEv, symObjAddr: 0x6FB0, symBinAddr: 0x1000085A8, symSize: 0x20 }
  - { offsetInCU: 0x2955A, offset: 0x2955A, size: 0x8, addend: 0x0, symName: __ZNSt6vectorIP5OrderSaIS1_EE16_Temporary_value8_StorageD1Ev, symObjAddr: 0x6F9C, symBinAddr: 0x100008594, symSize: 0x14 }
  - { offsetInCU: 0x2959A, offset: 0x2959A, size: 0x8, addend: 0x0, symName: __ZNSt6vectorIP5OrderSaIS1_EE16_Temporary_value8_StorageC1Ev, symObjAddr: 0x6F80, symBinAddr: 0x100008578, symSize: 0x1C }
  - { offsetInCU: 0x29584, offset: 0x29584, size: 0x8, addend: 0x0, symName: __ZSt32__make_move_if_noexcept_iteratorIP6VertexSt13move_iteratorIPS1_EET0_PT_, symObjAddr: 0x6F5C, symBinAddr: 0x100008554, symSize: 0x24 }
  - { offsetInCU: 0x295E8, offset: 0x295E8, size: 0x8, addend: 0x0, symName: __ZNKSt6vectorIP6VertexSaIS1_EE8max_sizeEv, symObjAddr: 0x6F3C, symBinAddr: 0x100008534, symSize: 0x20 }
  - { offsetInCU: 0x2960E, offset: 0x2960E, size: 0x8, addend: 0x0, symName: __ZSt20uninitialized_fill_nIPP6VertexmS1_ET_S3_T0_RKT1_, symObjAddr: 0x6F08, symBinAddr: 0x100008500, symSize: 0x34 }
  - { offsetInCU: 0x29686, offset: 0x29686, size: 0x8, addend: 0x0, symName: __ZSt8__fill_aIPP6VertexS1_EvT_S3_RKT0_, symObjAddr: 0x6ED8, symBinAddr: 0x1000084D0, symSize: 0x30 }
  - { offsetInCU: 0x296E4, offset: 0x296E4, size: 0x8, addend: 0x0, symName: __ZSt22__copy_move_backward_aILb1EPP6VertexS2_ET1_T0_S4_S3_, symObjAddr: 0x6E78, symBinAddr: 0x100008470, symSize: 0x60 }
  - { offsetInCU: 0x2974C, offset: 0x2974C, size: 0x8, addend: 0x0, symName: __ZSt12__miter_baseIPP6VertexET_S3_, symObjAddr: 0x6E64, symBinAddr: 0x10000845C, symSize: 0x14 }
  - { offsetInCU: 0x2977F, offset: 0x2977F, size: 0x8, addend: 0x0, symName: __ZSt22__uninitialized_copy_aISt13move_iteratorIPP6VertexES3_S2_ET0_T_S6_S5_RSaIT1_E, symObjAddr: 0x6E34, symBinAddr: 0x10000842C, symSize: 0x30 }
  - { offsetInCU: 0x297EF, offset: 0x297EF, size: 0x8, addend: 0x0, symName: __ZSt18make_move_iteratorIPP6VertexESt13move_iteratorIT_ES4_, symObjAddr: 0x6E08, symBinAddr: 0x100008400, symSize: 0x2C }
  - { offsetInCU: 0x29899, offset: 0x29899, size: 0x8, addend: 0x0, symName: __ZSt7forwardIRKP6VertexEOT_RNSt16remove_referenceIS4_E4typeE, symObjAddr: 0x6DF4, symBinAddr: 0x1000083EC, symSize: 0x14 }
  - { offsetInCU: 0x298CF, offset: 0x298CF, size: 0x8, addend: 0x0, symName: __ZNSt6vectorIP6VertexSaIS1_EE16_Temporary_value6_M_ptrEv, symObjAddr: 0x6DD4, symBinAddr: 0x1000083CC, symSize: 0x20 }
  - { offsetInCU: 0x29956, offset: 0x29956, size: 0x8, addend: 0x0, symName: __ZNSt6vectorIP6VertexSaIS1_EE16_Temporary_value8_StorageD1Ev, symObjAddr: 0x6DC0, symBinAddr: 0x1000083B8, symSize: 0x14 }
  - { offsetInCU: 0x29996, offset: 0x29996, size: 0x8, addend: 0x0, symName: __ZNSt6vectorIP6VertexSaIS1_EE16_Temporary_value8_StorageC1Ev, symObjAddr: 0x6DA4, symBinAddr: 0x10000839C, symSize: 0x1C }
  - { offsetInCU: 0x2997F, offset: 0x2997F, size: 0x8, addend: 0x0, symName: __ZNSt12_Destroy_auxILb1EE9__destroyIPP5OrderEEvT_S5_, symObjAddr: 0x6D8C, symBinAddr: 0x100008384, symSize: 0x18 }
  - { offsetInCU: 0x299B7, offset: 0x299B7, size: 0x8, addend: 0x0, symName: __ZNSt15__new_allocatorIP5OrderE10deallocateEPS1_m, symObjAddr: 0x6D5C, symBinAddr: 0x100008354, symSize: 0x30 }
  - { offsetInCU: 0x299FD, offset: 0x299FD, size: 0x8, addend: 0x0, symName: __ZNSt12_Destroy_auxILb1EE9__destroyIPP6VertexEEvT_S5_, symObjAddr: 0x6D44, symBinAddr: 0x10000833C, symSize: 0x18 }
  - { offsetInCU: 0x29A35, offset: 0x29A35, size: 0x8, addend: 0x0, symName: __ZNSt15__new_allocatorIP6VertexE10deallocateEPS1_m, symObjAddr: 0x6D14, symBinAddr: 0x10000830C, symSize: 0x30 }
  - { offsetInCU: 0x29A7B, offset: 0x29A7B, size: 0x8, addend: 0x0, symName: __ZNSt12_Destroy_auxILb1EE9__destroyIPSt4pairIiiEEEvT_S5_, symObjAddr: 0x6CFC, symBinAddr: 0x1000082F4, symSize: 0x18 }
  - { offsetInCU: 0x29AB3, offset: 0x29AB3, size: 0x8, addend: 0x0, symName: __ZNSt15__new_allocatorISt4pairIiiEE10deallocateEPS1_m, symObjAddr: 0x6CCC, symBinAddr: 0x1000082C4, symSize: 0x30 }
  - { offsetInCU: 0x29AFD, offset: 0x29AFD, size: 0x8, addend: 0x0, symName: __ZNSt15__new_allocatorISt4pairIiP4EdgeEE10deallocateEPS3_m, symObjAddr: 0x6C9C, symBinAddr: 0x100008294, symSize: 0x30 }
  - { offsetInCU: 0x29B43, offset: 0x29B43, size: 0x8, addend: 0x0, symName: __ZNSt12_Destroy_auxILb1EE9__destroyIPiEEvT_S3_, symObjAddr: 0x6C84, symBinAddr: 0x10000827C, symSize: 0x18 }
  - { offsetInCU: 0x29B7B, offset: 0x29B7B, size: 0x8, addend: 0x0, symName: __ZNSt15__new_allocatorIiE10deallocateEPim, symObjAddr: 0x6C54, symBinAddr: 0x10000824C, symSize: 0x30 }
  - { offsetInCU: 0x29BC1, offset: 0x29BC1, size: 0x8, addend: 0x0, symName: __ZSt13__countl_zeroImEiT_, symObjAddr: 0x6C00, symBinAddr: 0x1000081F8, symSize: 0x54 }
  - { offsetInCU: 0x29C8A, offset: 0x29C8A, size: 0x8, addend: 0x0, symName: __ZN9__gnu_cxx17__normal_iteratorIPiSt6vectorIiSaIiEEEppEv, symObjAddr: 0x6BD8, symBinAddr: 0x1000081D0, symSize: 0x28 }
  - { offsetInCU: 0x29CB0, offset: 0x29CB0, size: 0x8, addend: 0x0, symName: __ZSt9iter_swapIN9__gnu_cxx17__normal_iteratorIPiSt6vectorIiSaIiEEEES6_EvT_T0_, symObjAddr: 0x6B94, symBinAddr: 0x10000818C, symSize: 0x44 }
  - { offsetInCU: 0x29D01, offset: 0x29D01, size: 0x8, addend: 0x0, symName: __ZN9__gnu_cxxltIPiSt6vectorIiSaIiEEEEbRKNS_17__normal_iteratorIT_T0_EESA_, symObjAddr: 0x6B50, symBinAddr: 0x100008148, symSize: 0x44 }
  - { offsetInCU: 0x29D52, offset: 0x29D52, size: 0x8, addend: 0x0, symName: __ZN9__gnu_cxx17__normal_iteratorIPiSt6vectorIiSaIiEEEmmEv, symObjAddr: 0x6B28, symBinAddr: 0x100008120, symSize: 0x28 }
  - { offsetInCU: 0x29D78, offset: 0x29D78, size: 0x8, addend: 0x0, symName: __ZN9__gnu_cxxeqIPiSt6vectorIiSaIiEEEEbRKNS_17__normal_iteratorIT_T0_EESA_, symObjAddr: 0x6AE4, symBinAddr: 0x1000080DC, symSize: 0x44 }
  - { offsetInCU: 0x29DC5, offset: 0x29DC5, size: 0x8, addend: 0x0, symName: __ZSt18uninitialized_copyIPiS0_ET0_T_S2_S1_, symObjAddr: 0x6AA8, symBinAddr: 0x1000080A0, symSize: 0x3C }
  - { offsetInCU: 0x29E40, offset: 0x29E40, size: 0x8, addend: 0x0, symName: __ZSt13__copy_move_aILb0EPiS0_ET1_T0_S2_S1_, symObjAddr: 0x6A48, symBinAddr: 0x100008040, symSize: 0x60 }
  - { offsetInCU: 0x29EA8, offset: 0x29EA8, size: 0x8, addend: 0x0, symName: __ZSt12__miter_baseIPiET_S1_, symObjAddr: 0x6A34, symBinAddr: 0x10000802C, symSize: 0x14 }
  - { offsetInCU: 0x29EDB, offset: 0x29EDB, size: 0x8, addend: 0x0, symName: __ZSt8_DestroyIN9__gnu_cxx17__normal_iteratorIPiSt6vectorIiSaIiEEEEEvT_S7_, symObjAddr: 0x6A0C, symBinAddr: 0x100008004, symSize: 0x28 }
  - { offsetInCU: 0x29F1D, offset: 0x29F1D, size: 0x8, addend: 0x0, symName: __ZSt13__copy_move_aILb0EN9__gnu_cxx17__normal_iteratorIPKiSt6vectorIiSaIiEEEENS1_IPiS6_EEET1_T0_SB_SA_, symObjAddr: 0x69AC, symBinAddr: 0x100007FA4, symSize: 0x60 }
  - { offsetInCU: 0x29F85, offset: 0x29F85, size: 0x8, addend: 0x0, symName: __ZSt12__miter_baseIN9__gnu_cxx17__normal_iteratorIPKiSt6vectorIiSaIiEEEEET_S8_, symObjAddr: 0x6998, symBinAddr: 0x100007F90, symSize: 0x14 }
  - { offsetInCU: 0x2A01F, offset: 0x2A01F, size: 0x8, addend: 0x0, symName: __ZN9__gnu_cxx17__normal_iteratorIPKiSt6vectorIiSaIiEEEC1ERKS2_, symObjAddr: 0x6970, symBinAddr: 0x100007F68, symSize: 0x28 }
  - { offsetInCU: 0x2A013, offset: 0x2A013, size: 0x8, addend: 0x0, symName: __ZNSt6vectorIiSaIiEE15_M_erase_at_endEPi, symObjAddr: 0x68E8, symBinAddr: 0x100007EE0, symSize: 0x88 }
  - { offsetInCU: 0x2A0A4, offset: 0x2A0A4, size: 0x8, addend: 0x0, symName: __ZSt22__uninitialized_copy_aIN9__gnu_cxx17__normal_iteratorIPKiSt6vectorIiSaIiEEEEPiiET0_T_SA_S9_RSaIT1_E, symObjAddr: 0x68B8, symBinAddr: 0x100007EB0, symSize: 0x30 }
  - { offsetInCU: 0x2A156, offset: 0x2A156, size: 0x8, addend: 0x0, symName: __ZSt10__pop_heapIN9__gnu_cxx17__normal_iteratorIPSt4pairIiiESt6vectorIS3_SaIS3_EEEENS0_5__ops15_Iter_comp_iterISt7greaterIS3_EEEEvT_SE_SE_RT0_, symObjAddr: 0x6820, symBinAddr: 0x100007E18, symSize: 0x98 }
  - { offsetInCU: 0x2A1F0, offset: 0x2A1F0, size: 0x8, addend: 0x0, symName: __ZN9__gnu_cxx17__normal_iteratorIPSt4pairIiiESt6vectorIS2_SaIS2_EEEmmEv, symObjAddr: 0x67F8, symBinAddr: 0x100007DF0, symSize: 0x28 }
  - { offsetInCU: 0x2A21A, offset: 0x2A21A, size: 0x8, addend: 0x0, symName: __ZNK9__gnu_cxx17__normal_iteratorIPKSt4pairIiiESt6vectorIS2_SaIS2_EEEdeEv, symObjAddr: 0x67E0, symBinAddr: 0x100007DD8, symSize: 0x18 }
  - { offsetInCU: 0x2A244, offset: 0x2A244, size: 0x8, addend: 0x0, symName: __ZNKSt6vectorISt4pairIiiESaIS1_EE5beginEv, symObjAddr: 0x67BC, symBinAddr: 0x100007DB4, symSize: 0x24 }
  - { offsetInCU: 0x2A270, offset: 0x2A270, size: 0x8, addend: 0x0, symName: __ZSt11__push_heapIN9__gnu_cxx17__normal_iteratorIPSt4pairIiiESt6vectorIS3_SaIS3_EEEElS3_NS0_5__ops14_Iter_comp_valISt7greaterIS3_EEEEvT_T0_SF_T1_RT2_, symObjAddr: 0x6690, symBinAddr: 0x100007C88, symSize: 0x12C }
  - { offsetInCU: 0x2A314, offset: 0x2A314, size: 0x8, addend: 0x0, symName: __ZN9__gnu_cxxmiIPSt4pairIiiESt6vectorIS2_SaIS2_EEEENS_17__normal_iteratorIT_T0_E15difference_typeERKSA_SD_, symObjAddr: 0x6650, symBinAddr: 0x100007C48, symSize: 0x40 }
  - { offsetInCU: 0x2A365, offset: 0x2A365, size: 0x8, addend: 0x0, symName: __ZNK9__gnu_cxx17__normal_iteratorIPSt4pairIiiESt6vectorIS2_SaIS2_EEEmiEl, symObjAddr: 0x660C, symBinAddr: 0x100007C04, symSize: 0x44 }
  - { offsetInCU: 0x2A406, offset: 0x2A406, size: 0x8, addend: 0x0, symName: __ZN9__gnu_cxx5__ops14_Iter_comp_valISt7greaterISt4pairIiiEEEC1ES5_, symObjAddr: 0x65E8, symBinAddr: 0x100007BE0, symSize: 0x24 }
  - { offsetInCU: 0x2A3F2, offset: 0x2A3F2, size: 0x8, addend: 0x0, symName: __ZSt24__uninitialized_fill_n_aIPimiiET_S1_T0_RKT1_RSaIT2_E, symObjAddr: 0x65B8, symBinAddr: 0x100007BB0, symSize: 0x30 }
  - { offsetInCU: 0x2A46F, offset: 0x2A46F, size: 0x8, addend: 0x0, symName: __ZNSt12_Vector_baseIiSaIiEE17_M_create_storageEm, symObjAddr: 0x6558, symBinAddr: 0x100007B50, symSize: 0x60 }
  - { offsetInCU: 0x2A4FF, offset: 0x2A4FF, size: 0x8, addend: 0x0, symName: __ZNSt12_Vector_baseIiSaIiEE12_Vector_implC1ERKS0_, symObjAddr: 0x650C, symBinAddr: 0x100007B04, symSize: 0x4C }
  - { offsetInCU: 0x2A577, offset: 0x2A577, size: 0x8, addend: 0x0, symName: __ZNSt6vectorIiSaIiEE11_S_max_sizeERKS0_, symObjAddr: 0x64B8, symBinAddr: 0x100007AB0, symSize: 0x54 }
  - { offsetInCU: 0x2A62E, offset: 0x2A62E, size: 0x8, addend: 0x0, symName: __ZSt22__final_insertion_sortIN9__gnu_cxx17__normal_iteratorIPSt4pairIiP4EdgeESt6vectorIS5_SaIS5_EEEENS0_5__ops15_Iter_comp_iterIPFbS5_S5_EEEEvT_SG_T0_, symObjAddr: 0x642C, symBinAddr: 0x100007A24, symSize: 0x8C }
  - { offsetInCU: 0x2A68C, offset: 0x2A68C, size: 0x8, addend: 0x0, symName: __ZSt16__introsort_loopIN9__gnu_cxx17__normal_iteratorIPSt4pairIiP4EdgeESt6vectorIS5_SaIS5_EEEElNS0_5__ops15_Iter_comp_iterIPFbS5_S5_EEEEvT_SG_T0_T1_, symObjAddr: 0x6384, symBinAddr: 0x10000797C, symSize: 0xA8 }
  - { offsetInCU: 0x2A728, offset: 0x2A728, size: 0x8, addend: 0x0, symName: __ZSt4__lgIlET_S0_, symObjAddr: 0x6360, symBinAddr: 0x100007958, symSize: 0x24 }
  - { offsetInCU: 0x2A75B, offset: 0x2A75B, size: 0x8, addend: 0x0, symName: __ZN9__gnu_cxxmiIPSt4pairIiP4EdgeESt6vectorIS4_SaIS4_EEEENS_17__normal_iteratorIT_T0_E15difference_typeERKSC_SF_, symObjAddr: 0x6320, symBinAddr: 0x100007918, symSize: 0x40 }
  - { offsetInCU: 0x2A813, offset: 0x2A813, size: 0x8, addend: 0x0, symName: __ZN9__gnu_cxx5__ops15_Iter_comp_iterIPFbSt4pairIiP4EdgeES5_EEC1ES7_, symObjAddr: 0x62F0, symBinAddr: 0x1000078E8, symSize: 0x30 }
  - { offsetInCU: 0x2A80A, offset: 0x2A80A, size: 0x8, addend: 0x0, symName: __ZSt4moveIRPFbSt4pairIiP4EdgeES3_EEONSt16remove_referenceIT_E4typeEOS8_, symObjAddr: 0x62DC, symBinAddr: 0x1000078D4, symSize: 0x14 }
  - { offsetInCU: 0x2A840, offset: 0x2A840, size: 0x8, addend: 0x0, symName: __ZNSt6vectorISt4pairIiP4EdgeESaIS3_EE4backEv, symObjAddr: 0x62A4, symBinAddr: 0x10000789C, symSize: 0x38 }
  - { offsetInCU: 0x2A86A, offset: 0x2A86A, size: 0x8, addend: 0x0, symName: __ZNSt6vectorISt4pairIiP4EdgeESaIS3_EE17_M_realloc_appendIJS3_EEEvDpOT_, symObjAddr: 0x60E8, symBinAddr: 0x1000076E0, symSize: 0x1BC }
  - { offsetInCU: 0x2AA47, offset: 0x2AA47, size: 0x8, addend: 0x0, symName: __ZZNSt6vectorISt4pairIiP4EdgeESaIS3_EE17_M_realloc_appendIJS3_EEEvDpOT_EN6_GuardC1EPS3_mRS4_, symObjAddr: 0x6044, symBinAddr: 0x10000763C, symSize: 0x44 }
  - { offsetInCU: 0x2AA85, offset: 0x2AA85, size: 0x8, addend: 0x0, symName: __ZZNSt6vectorISt4pairIiP4EdgeESaIS3_EE17_M_realloc_appendIJS3_EEEvDpOT_EN6_GuardD1Ev, symObjAddr: 0x6088, symBinAddr: 0x100007680, symSize: 0x60 }
  - { offsetInCU: 0x2AB6C, offset: 0x2AB6C, size: 0x8, addend: 0x0, symName: __ZSt7forwardISt4pairIiP4EdgeEEOT_RNSt16remove_referenceIS4_E4typeE, symObjAddr: 0x6030, symBinAddr: 0x100007628, symSize: 0x14 }
  - { offsetInCU: 0x2ABA2, offset: 0x2ABA2, size: 0x8, addend: 0x0, symName: __ZNSt6vectorISt4pairIiiESaIS1_EE4backEv, symObjAddr: 0x5FF8, symBinAddr: 0x1000075F0, symSize: 0x38 }
  - { offsetInCU: 0x2ABCC, offset: 0x2ABCC, size: 0x8, addend: 0x0, symName: __ZNSt6vectorISt4pairIiiESaIS1_EE17_M_realloc_appendIJS1_EEEvDpOT_, symObjAddr: 0x5E3C, symBinAddr: 0x100007434, symSize: 0x1BC }
  - { offsetInCU: 0x2ADA4, offset: 0x2ADA4, size: 0x8, addend: 0x0, symName: __ZZNSt6vectorISt4pairIiiESaIS1_EE17_M_realloc_appendIJS1_EEEvDpOT_EN6_GuardC1EPS1_mRS2_, symObjAddr: 0x5D98, symBinAddr: 0x100007390, symSize: 0x44 }
  - { offsetInCU: 0x2ADE2, offset: 0x2ADE2, size: 0x8, addend: 0x0, symName: __ZZNSt6vectorISt4pairIiiESaIS1_EE17_M_realloc_appendIJS1_EEEvDpOT_EN6_GuardD1Ev, symObjAddr: 0x5DDC, symBinAddr: 0x1000073D4, symSize: 0x60 }
  - { offsetInCU: 0x2AEC8, offset: 0x2AEC8, size: 0x8, addend: 0x0, symName: __ZNSt6vectorIiSaIiEE11_S_relocateEPiS2_S2_RS0_, symObjAddr: 0x5D64, symBinAddr: 0x10000735C, symSize: 0x34 }
  - { offsetInCU: 0x2AF25, offset: 0x2AF25, size: 0x8, addend: 0x0, symName: __ZSt12__to_addressIiEPT_S1_, symObjAddr: 0x5D50, symBinAddr: 0x100007348, symSize: 0x14 }
  - { offsetInCU: 0x2AF5B, offset: 0x2AF5B, size: 0x8, addend: 0x0, symName: __ZNSt12_Vector_baseIiSaIiEE11_M_allocateEm, symObjAddr: 0x5D00, symBinAddr: 0x1000072F8, symSize: 0x50 }
  - { offsetInCU: 0x2AFBF, offset: 0x2AFBF, size: 0x8, addend: 0x0, symName: __ZN9__gnu_cxxmiIPiSt6vectorIiSaIiEEEENS_17__normal_iteratorIT_T0_E15difference_typeERKS8_SB_, symObjAddr: 0x5CC0, symBinAddr: 0x1000072B8, symSize: 0x40 }
  - { offsetInCU: 0x2B010, offset: 0x2B010, size: 0x8, addend: 0x0, symName: __ZNKSt6vectorIiSaIiEE12_M_check_lenEmPKc, symObjAddr: 0x5BF0, symBinAddr: 0x1000071E8, symSize: 0xD0 }
  - { offsetInCU: 0x2B0B1, offset: 0x2B0B1, size: 0x8, addend: 0x0, symName: __ZSt7forwardIRKiEOT_RNSt16remove_referenceIS2_E4typeE, symObjAddr: 0x5BDC, symBinAddr: 0x1000071D4, symSize: 0x14 }
  - { offsetInCU: 0x2B153, offset: 0x2B153, size: 0x8, addend: 0x0, symName: __ZN9__gnu_cxx17__normal_iteratorIPP5OrderSt6vectorIS2_SaIS2_EEEC1ERKS3_, symObjAddr: 0x5BB4, symBinAddr: 0x1000071AC, symSize: 0x28 }
  - { offsetInCU: 0x2B13A, offset: 0x2B13A, size: 0x8, addend: 0x0, symName: __ZSt34__uninitialized_move_if_noexcept_aIPP5OrderS2_SaIS1_EET0_T_S5_S4_RT1_, symObjAddr: 0x5B64, symBinAddr: 0x10000715C, symSize: 0x50 }
  - { offsetInCU: 0x2B1B6, offset: 0x2B1B6, size: 0x8, addend: 0x0, symName: __ZNSt12_Vector_baseIP5OrderSaIS1_EE11_M_allocateEm, symObjAddr: 0x5B14, symBinAddr: 0x10000710C, symSize: 0x50 }
  - { offsetInCU: 0x2B21E, offset: 0x2B21E, size: 0x8, addend: 0x0, symName: __ZNKSt6vectorIP5OrderSaIS1_EE12_M_check_lenEmPKc, symObjAddr: 0x5A44, symBinAddr: 0x10000703C, symSize: 0xD0 }
  - { offsetInCU: 0x2B277, offset: 0x2B277, size: 0x8, addend: 0x0, symName: __ZSt24__uninitialized_fill_n_aIPP5OrdermS1_S1_ET_S3_T0_RKT1_RSaIT2_E, symObjAddr: 0x5A14, symBinAddr: 0x10000700C, symSize: 0x30 }
  - { offsetInCU: 0x2B2F0, offset: 0x2B2F0, size: 0x8, addend: 0x0, symName: __ZSt4fillIPP5OrderS1_EvT_S3_RKT0_, symObjAddr: 0x59E4, symBinAddr: 0x100006FDC, symSize: 0x30 }
  - { offsetInCU: 0x2B34E, offset: 0x2B34E, size: 0x8, addend: 0x0, symName: __ZSt13move_backwardIPP5OrderS2_ET0_T_S4_S3_, symObjAddr: 0x599C, symBinAddr: 0x100006F94, symSize: 0x48 }
  - { offsetInCU: 0x2B3B0, offset: 0x2B3B0, size: 0x8, addend: 0x0, symName: __ZNK9__gnu_cxx17__normal_iteratorIPP5OrderSt6vectorIS2_SaIS2_EEE4baseEv, symObjAddr: 0x5988, symBinAddr: 0x100006F80, symSize: 0x14 }
  - { offsetInCU: 0x2B3D6, offset: 0x2B3D6, size: 0x8, addend: 0x0, symName: __ZSt22__uninitialized_move_aIPP5OrderS2_SaIS1_EET0_T_S5_S4_RT1_, symObjAddr: 0x5938, symBinAddr: 0x100006F30, symSize: 0x50 }
  - { offsetInCU: 0x2B454, offset: 0x2B454, size: 0x8, addend: 0x0, symName: __ZN9__gnu_cxxmiIPP5OrderSt6vectorIS2_SaIS2_EEEENS_17__normal_iteratorIT_T0_E15difference_typeERKSA_SD_, symObjAddr: 0x58F8, symBinAddr: 0x100006EF0, symSize: 0x40 }
  - { offsetInCU: 0x2B4A5, offset: 0x2B4A5, size: 0x8, addend: 0x0, symName: __ZNSt6vectorIP5OrderSaIS1_EE16_Temporary_value6_M_valEv, symObjAddr: 0x58E0, symBinAddr: 0x100006ED8, symSize: 0x18 }
  - { offsetInCU: 0x2B522, offset: 0x2B522, size: 0x8, addend: 0x0, symName: __ZNSt6vectorIP5OrderSaIS1_EE16_Temporary_valueD1Ev, symObjAddr: 0x5880, symBinAddr: 0x100006E78, symSize: 0x60 }
  - { offsetInCU: 0x2B5F2, offset: 0x2B5F2, size: 0x8, addend: 0x0, symName: __ZNSt6vectorIP5OrderSaIS1_EE16_Temporary_valueC1IJRKS1_EEEPS3_DpOT_, symObjAddr: 0x57C8, symBinAddr: 0x100006DC0, symSize: 0xB8 }
  - { offsetInCU: 0x2B6D6, offset: 0x2B6D6, size: 0x8, addend: 0x0, symName: __ZN9__gnu_cxx17__normal_iteratorIPP6VertexSt6vectorIS2_SaIS2_EEEC1ERKS3_, symObjAddr: 0x57A0, symBinAddr: 0x100006D98, symSize: 0x28 }
  - { offsetInCU: 0x2B6BC, offset: 0x2B6BC, size: 0x8, addend: 0x0, symName: __ZSt34__uninitialized_move_if_noexcept_aIPP6VertexS2_SaIS1_EET0_T_S5_S4_RT1_, symObjAddr: 0x5750, symBinAddr: 0x100006D48, symSize: 0x50 }
  - { offsetInCU: 0x2B738, offset: 0x2B738, size: 0x8, addend: 0x0, symName: __ZNSt12_Vector_baseIP6VertexSaIS1_EE11_M_allocateEm, symObjAddr: 0x5700, symBinAddr: 0x100006CF8, symSize: 0x50 }
  - { offsetInCU: 0x2B7A0, offset: 0x2B7A0, size: 0x8, addend: 0x0, symName: __ZNKSt6vectorIP6VertexSaIS1_EE12_M_check_lenEmPKc, symObjAddr: 0x5630, symBinAddr: 0x100006C28, symSize: 0xD0 }
  - { offsetInCU: 0x2B7F9, offset: 0x2B7F9, size: 0x8, addend: 0x0, symName: __ZSt24__uninitialized_fill_n_aIPP6VertexmS1_S1_ET_S3_T0_RKT1_RSaIT2_E, symObjAddr: 0x5600, symBinAddr: 0x100006BF8, symSize: 0x30 }
  - { offsetInCU: 0x2B872, offset: 0x2B872, size: 0x8, addend: 0x0, symName: __ZSt4fillIPP6VertexS1_EvT_S3_RKT0_, symObjAddr: 0x55D0, symBinAddr: 0x100006BC8, symSize: 0x30 }
  - { offsetInCU: 0x2B8D0, offset: 0x2B8D0, size: 0x8, addend: 0x0, symName: __ZSt13move_backwardIPP6VertexS2_ET0_T_S4_S3_, symObjAddr: 0x5588, symBinAddr: 0x100006B80, symSize: 0x48 }
  - { offsetInCU: 0x2B932, offset: 0x2B932, size: 0x8, addend: 0x0, symName: __ZNK9__gnu_cxx17__normal_iteratorIPP6VertexSt6vectorIS2_SaIS2_EEE4baseEv, symObjAddr: 0x5574, symBinAddr: 0x100006B6C, symSize: 0x14 }
  - { offsetInCU: 0x2B958, offset: 0x2B958, size: 0x8, addend: 0x0, symName: __ZSt22__uninitialized_move_aIPP6VertexS2_SaIS1_EET0_T_S5_S4_RT1_, symObjAddr: 0x5524, symBinAddr: 0x100006B1C, symSize: 0x50 }
  - { offsetInCU: 0x2B9D6, offset: 0x2B9D6, size: 0x8, addend: 0x0, symName: __ZN9__gnu_cxxmiIPP6VertexSt6vectorIS2_SaIS2_EEEENS_17__normal_iteratorIT_T0_E15difference_typeERKSA_SD_, symObjAddr: 0x54E4, symBinAddr: 0x100006ADC, symSize: 0x40 }
  - { offsetInCU: 0x2BA27, offset: 0x2BA27, size: 0x8, addend: 0x0, symName: __ZNSt6vectorIP6VertexSaIS1_EE16_Temporary_value6_M_valEv, symObjAddr: 0x54CC, symBinAddr: 0x100006AC4, symSize: 0x18 }
  - { offsetInCU: 0x2BAA5, offset: 0x2BAA5, size: 0x8, addend: 0x0, symName: __ZNSt6vectorIP6VertexSaIS1_EE16_Temporary_valueD1Ev, symObjAddr: 0x546C, symBinAddr: 0x100006A64, symSize: 0x60 }
  - { offsetInCU: 0x2BB75, offset: 0x2BB75, size: 0x8, addend: 0x0, symName: __ZNSt6vectorIP6VertexSaIS1_EE16_Temporary_valueC1IJRKS1_EEEPS3_DpOT_, symObjAddr: 0x53B4, symBinAddr: 0x1000069AC, symSize: 0xB8 }
  - { offsetInCU: 0x2BBE7, offset: 0x2BBE7, size: 0x8, addend: 0x0, symName: __ZSt8_DestroyIPP5OrderEvT_S3_, symObjAddr: 0x538C, symBinAddr: 0x100006984, symSize: 0x28 }
  - { offsetInCU: 0x2BC71, offset: 0x2BC71, size: 0x8, addend: 0x0, symName: __ZSt8_DestroyIPP6VertexEvT_S3_, symObjAddr: 0x5364, symBinAddr: 0x10000695C, symSize: 0x28 }
  - { offsetInCU: 0x2BCFB, offset: 0x2BCFB, size: 0x8, addend: 0x0, symName: __ZSt8_DestroyIPSt4pairIiiEEvT_S3_, symObjAddr: 0x533C, symBinAddr: 0x100006934, symSize: 0x28 }
  - { offsetInCU: 0x2BDCD, offset: 0x2BDCD, size: 0x8, addend: 0x0, symName: __ZSt8_DestroyIPiEvT_S1_, symObjAddr: 0x5314, symBinAddr: 0x10000690C, symSize: 0x28 }
  - { offsetInCU: 0x2BE41, offset: 0x2BE41, size: 0x8, addend: 0x0, symName: __ZSt11__bit_widthImEiT_, symObjAddr: 0x52E4, symBinAddr: 0x1000068DC, symSize: 0x30 }
  - { offsetInCU: 0x2BEB0, offset: 0x2BEB0, size: 0x8, addend: 0x0, symName: __ZSt9__reverseIN9__gnu_cxx17__normal_iteratorIPiSt6vectorIiSaIiEEEEEvT_S7_St26random_access_iterator_tag, symObjAddr: 0x5268, symBinAddr: 0x100006860, symSize: 0x7C }
  - { offsetInCU: 0x2BF79, offset: 0x2BF79, size: 0x8, addend: 0x0, symName: __ZN9__gnu_cxx17__normal_iteratorIPiSt6vectorIiSaIiEEEC1ERKS1_, symObjAddr: 0x5240, symBinAddr: 0x100006838, symSize: 0x28 }
  - { offsetInCU: 0x2BF6A, offset: 0x2BF6A, size: 0x8, addend: 0x0, symName: __ZSt22__uninitialized_copy_aIPiS0_iET0_T_S2_S1_RSaIT1_E, symObjAddr: 0x5210, symBinAddr: 0x100006808, symSize: 0x30 }
  - { offsetInCU: 0x2BFDA, offset: 0x2BFDA, size: 0x8, addend: 0x0, symName: __ZSt4copyIPiS0_ET0_T_S2_S1_, symObjAddr: 0x51C8, symBinAddr: 0x1000067C0, symSize: 0x48 }
  - { offsetInCU: 0x2C073, offset: 0x2C073, size: 0x8, addend: 0x0, symName: __ZSt4copyIN9__gnu_cxx17__normal_iteratorIPKiSt6vectorIiSaIiEEEENS1_IPiS6_EEET0_T_SB_SA_, symObjAddr: 0x5180, symBinAddr: 0x100006778, symSize: 0x48 }
  - { offsetInCU: 0x2C0D5, offset: 0x2C0D5, size: 0x8, addend: 0x0, symName: __ZNSt6vectorIiSaIiEE20_M_allocate_and_copyIN9__gnu_cxx17__normal_iteratorIPKiS1_EEEEPimT_S9_, symObjAddr: 0x50FC, symBinAddr: 0x1000066F4, symSize: 0x84 }
  - { offsetInCU: 0x2C14C, offset: 0x2C14C, size: 0x8, addend: 0x0, symName: __ZNKSt6vectorIiSaIiEE3endEv, symObjAddr: 0x50D4, symBinAddr: 0x1000066CC, symSize: 0x28 }
  - { offsetInCU: 0x2C176, offset: 0x2C176, size: 0x8, addend: 0x0, symName: __ZNKSt6vectorIiSaIiEE5beginEv, symObjAddr: 0x50B0, symBinAddr: 0x1000066A8, symSize: 0x24 }
  - { offsetInCU: 0x2C1A0, offset: 0x2C1A0, size: 0x8, addend: 0x0, symName: __ZNKSt6vectorIiSaIiEE8capacityEv, symObjAddr: 0x5088, symBinAddr: 0x100006680, symSize: 0x28 }
  - { offsetInCU: 0x2C1F7, offset: 0x2C1F7, size: 0x8, addend: 0x0, symName: __ZNSt6vectorIiSaIiEE5clearEv, symObjAddr: 0x505C, symBinAddr: 0x100006654, symSize: 0x2C }
  - { offsetInCU: 0x2C233, offset: 0x2C233, size: 0x8, addend: 0x0, symName: __ZNKSt12_Vector_baseIiSaIiEE19_M_get_Tp_allocatorEv, symObjAddr: 0x5048, symBinAddr: 0x100006640, symSize: 0x14 }
  - { offsetInCU: 0x2C29E, offset: 0x2C29E, size: 0x8, addend: 0x0, symName: __ZNSt6vectorIiSaIiEEC1ERKS1_, symObjAddr: 0x4F34, symBinAddr: 0x10000652C, symSize: 0x114 }
  - { offsetInCU: 0x2C39A, offset: 0x2C39A, size: 0x8, addend: 0x0, symName: __ZSt7forwardIRSt6vectorIiSaIiEEEOT_RNSt16remove_referenceIS4_E4typeE, symObjAddr: 0x4F20, symBinAddr: 0x100006518, symSize: 0x14 }
  - { offsetInCU: 0x2C3D2, offset: 0x2C3D2, size: 0x8, addend: 0x0, symName: __ZSt7forwardISt4pairIiiEEOT_RNSt16remove_referenceIS2_E4typeE, symObjAddr: 0x4F0C, symBinAddr: 0x100006504, symSize: 0x14 }
  - { offsetInCU: 0x2C408, offset: 0x2C408, size: 0x8, addend: 0x0, symName: __ZNK9__gnu_cxx17__normal_iteratorIPSt4pairIiiESt6vectorIS2_SaIS2_EEE4baseEv, symObjAddr: 0x4EF8, symBinAddr: 0x1000064F0, symSize: 0x14 }
  - { offsetInCU: 0x2C4A2, offset: 0x2C4A2, size: 0x8, addend: 0x0, symName: __ZN9__gnu_cxx17__normal_iteratorIPSt4pairIiiESt6vectorIS2_SaIS2_EEEC1ERKS3_, symObjAddr: 0x4ED0, symBinAddr: 0x1000064C8, symSize: 0x28 }
  - { offsetInCU: 0x2C489, offset: 0x2C489, size: 0x8, addend: 0x0, symName: __ZNSt6vectorISt4pairIiiESaIS1_EE8pop_backEv, symObjAddr: 0x4E7C, symBinAddr: 0x100006474, symSize: 0x54 }
  - { offsetInCU: 0x2C509, offset: 0x2C509, size: 0x8, addend: 0x0, symName: __ZSt8pop_heapIN9__gnu_cxx17__normal_iteratorIPSt4pairIiiESt6vectorIS3_SaIS3_EEEESt7greaterIS3_EEvT_SB_T0_, symObjAddr: 0x4E18, symBinAddr: 0x100006410, symSize: 0x64 }
  - { offsetInCU: 0x2C597, offset: 0x2C597, size: 0x8, addend: 0x0, symName: __ZSt4moveIRSt7greaterISt4pairIiiEEEONSt16remove_referenceIT_E4typeEOS6_, symObjAddr: 0x4E04, symBinAddr: 0x1000063FC, symSize: 0x14 }
  - { offsetInCU: 0x2C5CD, offset: 0x2C5CD, size: 0x8, addend: 0x0, symName: __ZNKSt6vectorISt4pairIiiESaIS1_EE5frontEv, symObjAddr: 0x4DDC, symBinAddr: 0x1000063D4, symSize: 0x28 }
  - { offsetInCU: 0x2C5F7, offset: 0x2C5F7, size: 0x8, addend: 0x0, symName: __ZNKSt6vectorISt4pairIiiESaIS1_EE4sizeEv, symObjAddr: 0x4DB4, symBinAddr: 0x1000063AC, symSize: 0x28 }
  - { offsetInCU: 0x2C61D, offset: 0x2C61D, size: 0x8, addend: 0x0, symName: __ZSt9push_heapIN9__gnu_cxx17__normal_iteratorIPSt4pairIiiESt6vectorIS3_SaIS3_EEEESt7greaterIS3_EEvT_SB_T0_, symObjAddr: 0x4D20, symBinAddr: 0x100006318, symSize: 0x94 }
  - { offsetInCU: 0x2C6B4, offset: 0x2C6B4, size: 0x8, addend: 0x0, symName: __ZNSt6vectorIiSaIiEE18_M_fill_initializeEmRKi, symObjAddr: 0x4CC8, symBinAddr: 0x1000062C0, symSize: 0x58 }
  - { offsetInCU: 0x2C757, offset: 0x2C757, size: 0x8, addend: 0x0, symName: __ZNSt12_Vector_baseIiSaIiEEC2EmRKS0_, symObjAddr: 0x4C74, symBinAddr: 0x10000626C, symSize: 0x54 }
  - { offsetInCU: 0x2C76A, offset: 0x2C76A, size: 0x8, addend: 0x0, symName: __ZNSt6vectorIiSaIiEE17_S_check_init_lenEmRKS0_, symObjAddr: 0x4BF0, symBinAddr: 0x1000061E8, symSize: 0x84 }
  - { offsetInCU: 0x2C832, offset: 0x2C832, size: 0x8, addend: 0x0, symName: __ZSt6__sortIN9__gnu_cxx17__normal_iteratorIPSt4pairIiP4EdgeESt6vectorIS5_SaIS5_EEEENS0_5__ops15_Iter_comp_iterIPFbS5_S5_EEEEvT_SG_T0_, symObjAddr: 0x4B80, symBinAddr: 0x100006178, symSize: 0x70 }
  - { offsetInCU: 0x2C890, offset: 0x2C890, size: 0x8, addend: 0x0, symName: __ZN9__gnu_cxx5__ops16__iter_comp_iterIPFbSt4pairIiP4EdgeES5_EEENS0_15_Iter_comp_iterIT_EES9_, symObjAddr: 0x4B54, symBinAddr: 0x10000614C, symSize: 0x2C }
  - { offsetInCU: 0x2C8C6, offset: 0x2C8C6, size: 0x8, addend: 0x0, symName: __ZNSt6vectorISt4pairIiP4EdgeESaIS3_EE12emplace_backIJS3_EEERS3_DpOT_, symObjAddr: 0x4A7C, symBinAddr: 0x100006074, symSize: 0xD8 }
  - { offsetInCU: 0x2C977, offset: 0x2C977, size: 0x8, addend: 0x0, symName: __ZSt4moveIRSt4pairIiP4EdgeEEONSt16remove_referenceIT_E4typeEOS6_, symObjAddr: 0x4A68, symBinAddr: 0x100006060, symSize: 0x14 }
  - { offsetInCU: 0x2C9AF, offset: 0x2C9AF, size: 0x8, addend: 0x0, symName: __ZSt7forwardIRP4EdgeEOT_RNSt16remove_referenceIS3_E4typeE, symObjAddr: 0x4A54, symBinAddr: 0x10000604C, symSize: 0x14 }
  - { offsetInCU: 0x2C9E5, offset: 0x2C9E5, size: 0x8, addend: 0x0, symName: __ZNSt6vectorISt4pairIiiESaIS1_EE12emplace_backIJS1_EEERS1_DpOT_, symObjAddr: 0x497C, symBinAddr: 0x100005F74, symSize: 0xD8 }
  - { offsetInCU: 0x2CA96, offset: 0x2CA96, size: 0x8, addend: 0x0, symName: __ZSt7forwardIRiEOT_RNSt16remove_referenceIS1_E4typeE, symObjAddr: 0x4968, symBinAddr: 0x100005F60, symSize: 0x14 }
  - { offsetInCU: 0x2CACC, offset: 0x2CACC, size: 0x8, addend: 0x0, symName: __ZNSt6vectorIiSaIiEE17_M_realloc_appendIJRKiEEEvDpOT_, symObjAddr: 0x47AC, symBinAddr: 0x100005DA4, symSize: 0x1BC }
  - { offsetInCU: 0x2CC96, offset: 0x2CC96, size: 0x8, addend: 0x0, symName: __ZZNSt6vectorIiSaIiEE17_M_realloc_appendIJRKiEEEvDpOT_EN6_GuardC1EPimRS0_, symObjAddr: 0x4708, symBinAddr: 0x100005D00, symSize: 0x44 }
  - { offsetInCU: 0x2CCD6, offset: 0x2CCD6, size: 0x8, addend: 0x0, symName: __ZZNSt6vectorIiSaIiEE17_M_realloc_appendIJRKiEEEvDpOT_EN6_GuardD1Ev, symObjAddr: 0x474C, symBinAddr: 0x100005D44, symSize: 0x60 }
  - { offsetInCU: 0x2CDCC, offset: 0x2CDCC, size: 0x8, addend: 0x0, symName: __ZNSt6vectorIP5OrderSaIS1_EE15_M_erase_at_endEPS1_, symObjAddr: 0x4680, symBinAddr: 0x100005C78, symSize: 0x88 }
  - { offsetInCU: 0x2CE61, offset: 0x2CE61, size: 0x8, addend: 0x0, symName: __ZNSt6vectorIP5OrderSaIS1_EE3endEv, symObjAddr: 0x4658, symBinAddr: 0x100005C50, symSize: 0x28 }
  - { offsetInCU: 0x2CE8B, offset: 0x2CE8B, size: 0x8, addend: 0x0, symName: __ZNSt6vectorIP5OrderSaIS1_EE14_M_fill_insertEN9__gnu_cxx17__normal_iteratorIPS1_S3_EEmRKS1_, symObjAddr: 0x420C, symBinAddr: 0x100005804, symSize: 0x44C }
  - { offsetInCU: 0x2D063, offset: 0x2D063, size: 0x8, addend: 0x0, symName: __ZNKSt6vectorIP5OrderSaIS1_EE4sizeEv, symObjAddr: 0x41E4, symBinAddr: 0x1000057DC, symSize: 0x28 }
  - { offsetInCU: 0x2D08D, offset: 0x2D08D, size: 0x8, addend: 0x0, symName: __ZNSt6vectorIP6VertexSaIS1_EE15_M_erase_at_endEPS1_, symObjAddr: 0x415C, symBinAddr: 0x100005754, symSize: 0x88 }
  - { offsetInCU: 0x2D122, offset: 0x2D122, size: 0x8, addend: 0x0, symName: __ZNSt6vectorIP6VertexSaIS1_EE3endEv, symObjAddr: 0x4134, symBinAddr: 0x10000572C, symSize: 0x28 }
  - { offsetInCU: 0x2D14C, offset: 0x2D14C, size: 0x8, addend: 0x0, symName: __ZNSt6vectorIP6VertexSaIS1_EE14_M_fill_insertEN9__gnu_cxx17__normal_iteratorIPS1_S3_EEmRKS1_, symObjAddr: 0x3CE8, symBinAddr: 0x1000052E0, symSize: 0x44C }
  - { offsetInCU: 0x2D324, offset: 0x2D324, size: 0x8, addend: 0x0, symName: __ZNKSt6vectorIP6VertexSaIS1_EE4sizeEv, symObjAddr: 0x3CC0, symBinAddr: 0x1000052B8, symSize: 0x28 }
  - { offsetInCU: 0x2D389, offset: 0x2D389, size: 0x8, addend: 0x0, symName: __ZNSt12_Vector_baseIP5OrderSaIS1_EE19_M_get_Tp_allocatorEv, symObjAddr: 0x3CAC, symBinAddr: 0x1000052A4, symSize: 0x14 }
  - { offsetInCU: 0x2D3B3, offset: 0x2D3B3, size: 0x8, addend: 0x0, symName: __ZNSt12_Vector_baseIP5OrderSaIS1_EE13_M_deallocateEPS1_m, symObjAddr: 0x3C54, symBinAddr: 0x10000524C, symSize: 0x58 }
  - { offsetInCU: 0x2D479, offset: 0x2D479, size: 0x8, addend: 0x0, symName: __ZNSt15__new_allocatorIP5OrderED2Ev, symObjAddr: 0x3C40, symBinAddr: 0x100005238, symSize: 0x14 }
  - { offsetInCU: 0x2D4D0, offset: 0x2D4D0, size: 0x8, addend: 0x0, symName: __ZNSt12_Vector_baseIP5OrderSaIS1_EE17_Vector_impl_dataC2Ev, symObjAddr: 0x3C14, symBinAddr: 0x10000520C, symSize: 0x2C }
  - { offsetInCU: 0x2D510, offset: 0x2D510, size: 0x8, addend: 0x0, symName: __ZNSt12_Vector_baseIP6VertexSaIS1_EE19_M_get_Tp_allocatorEv, symObjAddr: 0x3C00, symBinAddr: 0x1000051F8, symSize: 0x14 }
  - { offsetInCU: 0x2D53A, offset: 0x2D53A, size: 0x8, addend: 0x0, symName: __ZNSt12_Vector_baseIP6VertexSaIS1_EE13_M_deallocateEPS1_m, symObjAddr: 0x3BA8, symBinAddr: 0x1000051A0, symSize: 0x58 }
  - { offsetInCU: 0x2D601, offset: 0x2D601, size: 0x8, addend: 0x0, symName: __ZNSt15__new_allocatorIP6VertexED2Ev, symObjAddr: 0x3B94, symBinAddr: 0x10000518C, symSize: 0x14 }
  - { offsetInCU: 0x2D658, offset: 0x2D658, size: 0x8, addend: 0x0, symName: __ZNSt12_Vector_baseIP6VertexSaIS1_EE17_Vector_impl_dataC2Ev, symObjAddr: 0x3B68, symBinAddr: 0x100005160, symSize: 0x2C }
  - { offsetInCU: 0x2D697, offset: 0x2D697, size: 0x8, addend: 0x0, symName: __ZNSt12_Vector_baseISt4pairIiiESaIS1_EE19_M_get_Tp_allocatorEv, symObjAddr: 0x3B54, symBinAddr: 0x10000514C, symSize: 0x14 }
  - { offsetInCU: 0x2D6C1, offset: 0x2D6C1, size: 0x8, addend: 0x0, symName: __ZNSt12_Vector_baseISt4pairIiiESaIS1_EE13_M_deallocateEPS1_m, symObjAddr: 0x3AFC, symBinAddr: 0x1000050F4, symSize: 0x58 }
  - { offsetInCU: 0x2D78B, offset: 0x2D78B, size: 0x8, addend: 0x0, symName: __ZNSt15__new_allocatorISt4pairIiiEED2Ev, symObjAddr: 0x3AE8, symBinAddr: 0x1000050E0, symSize: 0x14 }
  - { offsetInCU: 0x2D7E2, offset: 0x2D7E2, size: 0x8, addend: 0x0, symName: __ZNSt12_Vector_baseISt4pairIiiESaIS1_EE17_Vector_impl_dataC2Ev, symObjAddr: 0x3ABC, symBinAddr: 0x1000050B4, symSize: 0x2C }
  - { offsetInCU: 0x2D7E3, offset: 0x2D7E3, size: 0x8, addend: 0x0, symName: __ZNK9__gnu_cxx17__normal_iteratorIPSt4pairIiP4EdgeESt6vectorIS4_SaIS4_EEE4baseEv, symObjAddr: 0x3AA8, symBinAddr: 0x1000050A0, symSize: 0x14 }
  - { offsetInCU: 0x2D882, offset: 0x2D882, size: 0x8, addend: 0x0, symName: __ZN9__gnu_cxx17__normal_iteratorIPSt4pairIiP4EdgeESt6vectorIS4_SaIS4_EEEC1ERKS5_, symObjAddr: 0x3A80, symBinAddr: 0x100005078, symSize: 0x28 }
  - { offsetInCU: 0x2D864, offset: 0x2D864, size: 0x8, addend: 0x0, symName: __ZNSt12_Vector_baseISt4pairIiP4EdgeESaIS3_EE19_M_get_Tp_allocatorEv, symObjAddr: 0x3A6C, symBinAddr: 0x100005064, symSize: 0x14 }
  - { offsetInCU: 0x2D8E8, offset: 0x2D8E8, size: 0x8, addend: 0x0, symName: __ZNSt12_Vector_baseISt4pairIiP4EdgeESaIS3_EE17_Vector_impl_dataC2Ev, symObjAddr: 0x3A40, symBinAddr: 0x100005038, symSize: 0x2C }
  - { offsetInCU: 0x2D91F, offset: 0x2D91F, size: 0x8, addend: 0x0, symName: __ZNSt12_Vector_baseIiSaIiEE19_M_get_Tp_allocatorEv, symObjAddr: 0x3A2C, symBinAddr: 0x100005024, symSize: 0x14 }
  - { offsetInCU: 0x2D949, offset: 0x2D949, size: 0x8, addend: 0x0, symName: __ZNSt12_Vector_baseIiSaIiEE13_M_deallocateEPim, symObjAddr: 0x39D4, symBinAddr: 0x100004FCC, symSize: 0x58 }
  - { offsetInCU: 0x2DA09, offset: 0x2DA09, size: 0x8, addend: 0x0, symName: __ZNSt15__new_allocatorIiED2Ev, symObjAddr: 0x39C0, symBinAddr: 0x100004FB8, symSize: 0x14 }
  - { offsetInCU: 0x2DA5E, offset: 0x2DA5E, size: 0x8, addend: 0x0, symName: __ZNSt12_Vector_baseIiSaIiEE17_Vector_impl_dataC2Ev, symObjAddr: 0x3994, symBinAddr: 0x100004F8C, symSize: 0x2C }
  - { offsetInCU: 0x2DA55, offset: 0x2DA55, size: 0x8, addend: 0x0, symName: __ZNSt7__cxx1112basic_stringIcSt11char_traitsIcESaIcEE12_M_constructIPKcEEvT_S8_St20forward_iterator_tag, symObjAddr: 0x3894, symBinAddr: 0x100004E8C, symSize: 0x100 }
  - { offsetInCU: 0x2DBD2, offset: 0x2DBD2, size: 0x8, addend: 0x0, symName: __ZZNSt7__cxx1112basic_stringIcSt11char_traitsIcESaIcEE12_M_constructIPKcEEvT_S8_St20forward_iterator_tagEN6_GuardC1EPS4_, symObjAddr: 0x383C, symBinAddr: 0x100004E34, symSize: 0x24 }
  - { offsetInCU: 0x2DC03, offset: 0x2DC03, size: 0x8, addend: 0x0, symName: __ZZNSt7__cxx1112basic_stringIcSt11char_traitsIcESaIcEE12_M_constructIPKcEEvT_S8_St20forward_iterator_tagEN6_GuardD1Ev, symObjAddr: 0x3860, symBinAddr: 0x100004E58, symSize: 0x34 }
  - { offsetInCU: 0x2DCAA, offset: 0x2DCAA, size: 0x8, addend: 0x0, symName: __ZNSt15__new_allocatorIcED2Ev, symObjAddr: 0x3828, symBinAddr: 0x100004E20, symSize: 0x14 }
  - { offsetInCU: 0x2DCDE, offset: 0x2DCDE, size: 0x8, addend: 0x0, symName: __ZN9__gnu_cxx11char_traitsIcE2eqERKcS3_, symObjAddr: 0x37F8, symBinAddr: 0x100004DF0, symSize: 0x30 }
  - { offsetInCU: 0x2DD17, offset: 0x2DD17, size: 0x8, addend: 0x0, symName: __ZSt7reverseIN9__gnu_cxx17__normal_iteratorIPiSt6vectorIiSaIiEEEEEvT_S7_, symObjAddr: 0x37CC, symBinAddr: 0x100004DC4, symSize: 0x2C }
  - { offsetInCU: 0x2DD80, offset: 0x2DD80, size: 0x8, addend: 0x0, symName: __ZNSt6vectorIiSaIiEE3endEv, symObjAddr: 0x37A4, symBinAddr: 0x100004D9C, symSize: 0x28 }
  - { offsetInCU: 0x2DDAA, offset: 0x2DDAA, size: 0x8, addend: 0x0, symName: __ZNSt6vectorIiSaIiEE5beginEv, symObjAddr: 0x3780, symBinAddr: 0x100004D78, symSize: 0x24 }
  - { offsetInCU: 0x2DDD4, offset: 0x2DDD4, size: 0x8, addend: 0x0, symName: __ZNSt6vectorIP5OrderSaIS1_EEixEm, symObjAddr: 0x3758, symBinAddr: 0x100004D50, symSize: 0x28 }
  - { offsetInCU: 0x2DE0F, offset: 0x2DE0F, size: 0x8, addend: 0x0, symName: __ZNSt6vectorIiSaIiEEaSERKS1_, symObjAddr: 0x3410, symBinAddr: 0x100004A08, symSize: 0x348 }
  - { offsetInCU: 0x2DF8C, offset: 0x2DF8C, size: 0x8, addend: 0x0, symName: __ZSt11__addressofIKSt6vectorIiSaIiEEEPT_RS4_, symObjAddr: 0x33FC, symBinAddr: 0x1000049F4, symSize: 0x14 }
  - { offsetInCU: 0x2E027, offset: 0x2E027, size: 0x8, addend: 0x0, symName: __ZNSt4pairIiiEC1IiiLb1EEEOT_OT0_, symObjAddr: 0x33B4, symBinAddr: 0x1000049AC, symSize: 0x48 }
  - { offsetInCU: 0x2E0D3, offset: 0x2E0D3, size: 0x8, addend: 0x0, symName: __ZNSt4pairIS_IiiESt6vectorIiSaIiEEEC1IS0_RS3_Lb1EEEOT_OT0_, symObjAddr: 0x3358, symBinAddr: 0x100004950, symSize: 0x5C }
  - { offsetInCU: 0x2E0E6, offset: 0x2E0E6, size: 0x8, addend: 0x0, symName: __ZNK9__gnu_cxx17__normal_iteratorIPSt4pairIiiESt6vectorIS2_SaIS2_EEEdeEv, symObjAddr: 0x3340, symBinAddr: 0x100004938, symSize: 0x18 }
  - { offsetInCU: 0x2E110, offset: 0x2E110, size: 0x8, addend: 0x0, symName: __ZN9__gnu_cxx17__normal_iteratorIPSt4pairIiiESt6vectorIS2_SaIS2_EEEppEv, symObjAddr: 0x3318, symBinAddr: 0x100004910, symSize: 0x28 }
  - { offsetInCU: 0x2E136, offset: 0x2E136, size: 0x8, addend: 0x0, symName: __ZN9__gnu_cxxneIPSt4pairIiiESt6vectorIS2_SaIS2_EEEEbRKNS_17__normal_iteratorIT_T0_EESC_, symObjAddr: 0x32D4, symBinAddr: 0x1000048CC, symSize: 0x44 }
  - { offsetInCU: 0x2E187, offset: 0x2E187, size: 0x8, addend: 0x0, symName: __ZNSt6vectorISt4pairIiiESaIS1_EE3endEv, symObjAddr: 0x32AC, symBinAddr: 0x1000048A4, symSize: 0x28 }
  - { offsetInCU: 0x2E1B1, offset: 0x2E1B1, size: 0x8, addend: 0x0, symName: __ZNSt6vectorISt4pairIiiESaIS1_EE5beginEv, symObjAddr: 0x3288, symBinAddr: 0x100004880, symSize: 0x24 }
  - { offsetInCU: 0x2E1DB, offset: 0x2E1DB, size: 0x8, addend: 0x0, symName: __ZNSt14priority_queueISt4pairIiiESt6vectorIS1_SaIS1_EESt7greaterIS1_EE3popEv, symObjAddr: 0x323C, symBinAddr: 0x100004834, symSize: 0x4C }
  - { offsetInCU: 0x2E205, offset: 0x2E205, size: 0x8, addend: 0x0, symName: __ZNKSt14priority_queueISt4pairIiiESt6vectorIS1_SaIS1_EESt7greaterIS1_EE3topEv, symObjAddr: 0x3220, symBinAddr: 0x100004818, symSize: 0x1C }
  - { offsetInCU: 0x2E22F, offset: 0x2E22F, size: 0x8, addend: 0x0, symName: __ZNKSt14priority_queueISt4pairIiiESt6vectorIS1_SaIS1_EESt7greaterIS1_EE4sizeEv, symObjAddr: 0x3204, symBinAddr: 0x1000047FC, symSize: 0x1C }
  - { offsetInCU: 0x2E259, offset: 0x2E259, size: 0x8, addend: 0x0, symName: __ZNSt14priority_queueISt4pairIiiESt6vectorIS1_SaIS1_EESt7greaterIS1_EE4pushEOS1_, symObjAddr: 0x31A4, symBinAddr: 0x10000479C, symSize: 0x60 }
  - { offsetInCU: 0x2E309, offset: 0x2E309, size: 0x8, addend: 0x0, symName: __ZNSt14priority_queueISt4pairIiiESt6vectorIS1_SaIS1_EESt7greaterIS1_EEC1IS4_vEEv, symObjAddr: 0x3178, symBinAddr: 0x100004770, symSize: 0x2C }
  - { offsetInCU: 0x2E351, offset: 0x2E351, size: 0x8, addend: 0x0, symName: __ZNSt6vectorIiSaIiEEC1EmRKiRKS0_, symObjAddr: 0x3108, symBinAddr: 0x100004700, symSize: 0x70 }
  - { offsetInCU: 0x2E387, offset: 0x2E387, size: 0x8, addend: 0x0, symName: __ZSt4sortIN9__gnu_cxx17__normal_iteratorIPSt4pairIiP4EdgeESt6vectorIS5_SaIS5_EEEEPFbS5_S5_EEvT_SD_T0_, symObjAddr: 0x30D0, symBinAddr: 0x1000046C8, symSize: 0x38 }
  - { offsetInCU: 0x2E3E9, offset: 0x2E3E9, size: 0x8, addend: 0x0, symName: __ZNSt6vectorIiSaIiEEixEm, symObjAddr: 0x30A8, symBinAddr: 0x1000046A0, symSize: 0x28 }
  - { offsetInCU: 0x2E424, offset: 0x2E424, size: 0x8, addend: 0x0, symName: __ZNKSt6vectorIiSaIiEE4sizeEv, symObjAddr: 0x3080, symBinAddr: 0x100004678, symSize: 0x28 }
  - { offsetInCU: 0x2E44E, offset: 0x2E44E, size: 0x8, addend: 0x0, symName: __ZNSt6vectorISt4pairIiP4EdgeESaIS3_EE9push_backEOS3_, symObjAddr: 0x3050, symBinAddr: 0x100004648, symSize: 0x30 }
  - { offsetInCU: 0x2E4F7, offset: 0x2E4F7, size: 0x8, addend: 0x0, symName: __ZNSt4pairIiP4EdgeEC1IRiRS1_Lb1EEEOT_OT0_, symObjAddr: 0x3008, symBinAddr: 0x100004600, symSize: 0x48 }
  - { offsetInCU: 0x2E51B, offset: 0x2E51B, size: 0x8, addend: 0x0, symName: __ZNSt6vectorISt4pairIiiESaIS1_EE9push_backEOS1_, symObjAddr: 0x2FD8, symBinAddr: 0x1000045D0, symSize: 0x30 }
  - { offsetInCU: 0x2E5BE, offset: 0x2E5BE, size: 0x8, addend: 0x0, symName: __ZNSt4pairIiiEC1IRiS2_Lb1EEEOT_OT0_, symObjAddr: 0x2F90, symBinAddr: 0x100004588, symSize: 0x48 }
  - { offsetInCU: 0x2E5E8, offset: 0x2E5E8, size: 0x8, addend: 0x0, symName: __ZNSt6vectorIP6VertexSaIS1_EEixEm, symObjAddr: 0x2F68, symBinAddr: 0x100004560, symSize: 0x28 }
  - { offsetInCU: 0x2E623, offset: 0x2E623, size: 0x8, addend: 0x0, symName: __ZNSt6vectorIiSaIiEE9push_backERKi, symObjAddr: 0x2EA0, symBinAddr: 0x100004498, symSize: 0xC8 }
  - { offsetInCU: 0x2E6C6, offset: 0x2E6C6, size: 0x8, addend: 0x0, symName: __ZSteqIcSt11char_traitsIcESaIcEEbRKNSt7__cxx1112basic_stringIT_T0_T1_EESA_, symObjAddr: 0x2E20, symBinAddr: 0x100004418, symSize: 0x80 }
  - { offsetInCU: 0x2E720, offset: 0x2E720, size: 0x8, addend: 0x0, symName: __ZNSt6vectorIP5OrderSaIS1_EE6resizeEmRKS1_, symObjAddr: 0x2D50, symBinAddr: 0x100004348, symSize: 0xD0 }
  - { offsetInCU: 0x2E76C, offset: 0x2E76C, size: 0x8, addend: 0x0, symName: __ZNSt6vectorIP6VertexSaIS1_EE6resizeEmRKS1_, symObjAddr: 0x2C80, symBinAddr: 0x100004278, symSize: 0xD0 }
  - { offsetInCU: 0x2E7F9, offset: 0x2E7F9, size: 0x8, addend: 0x0, symName: __ZNSt6vectorIP5OrderSaIS1_EED1Ev, symObjAddr: 0x2C24, symBinAddr: 0x10000421C, symSize: 0x5C }
  - { offsetInCU: 0x2E880, offset: 0x2E880, size: 0x8, addend: 0x0, symName: __ZNSt12_Vector_baseIP5OrderSaIS1_EED2Ev, symObjAddr: 0x2BD4, symBinAddr: 0x1000041CC, symSize: 0x50 }
  - { offsetInCU: 0x2E8EE, offset: 0x2E8EE, size: 0x8, addend: 0x0, symName: __ZNSt12_Vector_baseIP5OrderSaIS1_EE12_Vector_implC1Ev, symObjAddr: 0x2B9C, symBinAddr: 0x100004194, symSize: 0x38 }
  - { offsetInCU: 0x2E96A, offset: 0x2E96A, size: 0x8, addend: 0x0, symName: __ZNSt6vectorIP6VertexSaIS1_EED1Ev, symObjAddr: 0x2B40, symBinAddr: 0x100004138, symSize: 0x5C }
  - { offsetInCU: 0x2E9F1, offset: 0x2E9F1, size: 0x8, addend: 0x0, symName: __ZNSt12_Vector_baseIP6VertexSaIS1_EED2Ev, symObjAddr: 0x2AF0, symBinAddr: 0x1000040E8, symSize: 0x50 }
  - { offsetInCU: 0x2EA5F, offset: 0x2EA5F, size: 0x8, addend: 0x0, symName: __ZNSt12_Vector_baseIP6VertexSaIS1_EE12_Vector_implC1Ev, symObjAddr: 0x2AB8, symBinAddr: 0x1000040B0, symSize: 0x38 }
  - { offsetInCU: 0x2EADD, offset: 0x2EADD, size: 0x8, addend: 0x0, symName: __ZNSt6vectorISt4pairIiiESaIS1_EED1Ev, symObjAddr: 0x2A5C, symBinAddr: 0x100004054, symSize: 0x5C }
  - { offsetInCU: 0x2EB64, offset: 0x2EB64, size: 0x8, addend: 0x0, symName: __ZNSt12_Vector_baseISt4pairIiiESaIS1_EED2Ev, symObjAddr: 0x2A0C, symBinAddr: 0x100004004, symSize: 0x50 }
  - { offsetInCU: 0x2EBD2, offset: 0x2EBD2, size: 0x8, addend: 0x0, symName: __ZNSt12_Vector_baseISt4pairIiiESaIS1_EE12_Vector_implC1Ev, symObjAddr: 0x29D4, symBinAddr: 0x100003FCC, symSize: 0x38 }
  - { offsetInCU: 0x2EC08, offset: 0x2EC08, size: 0x8, addend: 0x0, symName: __ZNK9__gnu_cxx17__normal_iteratorIPSt4pairIiP4EdgeESt6vectorIS4_SaIS4_EEEdeEv, symObjAddr: 0x29BC, symBinAddr: 0x100003FB4, symSize: 0x18 }
  - { offsetInCU: 0x2EC32, offset: 0x2EC32, size: 0x8, addend: 0x0, symName: __ZN9__gnu_cxx17__normal_iteratorIPSt4pairIiP4EdgeESt6vectorIS4_SaIS4_EEEppEi, symObjAddr: 0x297C, symBinAddr: 0x100003F74, symSize: 0x40 }
  - { offsetInCU: 0x2EC61, offset: 0x2EC61, size: 0x8, addend: 0x0, symName: __ZN9__gnu_cxxneIPSt4pairIiP4EdgeESt6vectorIS4_SaIS4_EEEEbRKNS_17__normal_iteratorIT_T0_EESE_, symObjAddr: 0x2938, symBinAddr: 0x100003F30, symSize: 0x44 }
  - { offsetInCU: 0x2ECB2, offset: 0x2ECB2, size: 0x8, addend: 0x0, symName: __ZNSt6vectorISt4pairIiP4EdgeESaIS3_EE3endEv, symObjAddr: 0x2910, symBinAddr: 0x100003F08, symSize: 0x28 }
  - { offsetInCU: 0x2ECDC, offset: 0x2ECDC, size: 0x8, addend: 0x0, symName: __ZNSt6vectorISt4pairIiP4EdgeESaIS3_EE5beginEv, symObjAddr: 0x28EC, symBinAddr: 0x100003EE4, symSize: 0x24 }
  - { offsetInCU: 0x2ED06, offset: 0x2ED06, size: 0x8, addend: 0x0, symName: __ZNSt6vectorISt4pairIiP4EdgeESaIS3_EEixEm, symObjAddr: 0x28C4, symBinAddr: 0x100003EBC, symSize: 0x28 }
  - { offsetInCU: 0x2ED41, offset: 0x2ED41, size: 0x8, addend: 0x0, symName: __ZNKSt6vectorISt4pairIiP4EdgeESaIS3_EE4sizeEv, symObjAddr: 0x289C, symBinAddr: 0x100003E94, symSize: 0x28 }
  - { offsetInCU: 0x2EDC0, offset: 0x2EDC0, size: 0x8, addend: 0x0, symName: __ZNSt12_Vector_baseISt4pairIiP4EdgeESaIS3_EE12_Vector_implC1Ev, symObjAddr: 0x2864, symBinAddr: 0x100003E5C, symSize: 0x38 }
  - { offsetInCU: 0x2EE2A, offset: 0x2EE2A, size: 0x8, addend: 0x0, symName: __ZNSt6vectorIiSaIiEED1Ev, symObjAddr: 0x2808, symBinAddr: 0x100003E00, symSize: 0x5C }
  - { offsetInCU: 0x2EEB1, offset: 0x2EEB1, size: 0x8, addend: 0x0, symName: __ZNSt12_Vector_baseIiSaIiEED2Ev, symObjAddr: 0x27B8, symBinAddr: 0x100003DB0, symSize: 0x50 }
  - { offsetInCU: 0x2EF1F, offset: 0x2EF1F, size: 0x8, addend: 0x0, symName: __ZNSt12_Vector_baseIiSaIiEE12_Vector_implC1Ev, symObjAddr: 0x2780, symBinAddr: 0x100003D78, symSize: 0x38 }
  - { offsetInCU: 0x2EFEA, offset: 0x2EFEA, size: 0x8, addend: 0x0, symName: __ZNSt7__cxx1112basic_stringIcSt11char_traitsIcESaIcEEC1IS3_EEPKcRKS3_, symObjAddr: 0x26E4, symBinAddr: 0x100003CDC, symSize: 0x9C }
  - { offsetInCU: 0x2F009, offset: 0x2F009, size: 0x8, addend: 0x0, symName: __ZSt3maxImERKT_S2_S2_, symObjAddr: 0x26AC, symBinAddr: 0x100003CA4, symSize: 0x38 }
  - { offsetInCU: 0x2F0DC, offset: 0x2F0DC, size: 0x8, addend: 0x0, symName: __ZNSt7__cxx1112basic_stringIcSt11char_traitsIcESaIcEE12_Alloc_hiderD1Ev, symObjAddr: 0x2680, symBinAddr: 0x100003C78, symSize: 0x2C }
  - { offsetInCU: 0x2F0DD, offset: 0x2F0DD, size: 0x8, addend: 0x0, symName: __ZN9__gnu_cxx11char_traitsIcE6lengthEPKc, symObjAddr: 0x2628, symBinAddr: 0x100003C20, symSize: 0x58 }
  - { offsetInCU: 0x2F11E, offset: 0x2F11E, size: 0x8, addend: 0x0, symName: __ZN5Graph7CuttingEii, symObjAddr: 0x23DC, symBinAddr: 0x1000039D4, symSize: 0x24C }
  - { offsetInCU: 0x2F289, offset: 0x2F289, size: 0x8, addend: 0x0, symName: __ZN5Graph7RecoverEii, symObjAddr: 0x2184, symBinAddr: 0x10000377C, symSize: 0x258 }
  - { offsetInCU: 0x2F3F4, offset: 0x2F3F4, size: 0x8, addend: 0x0, symName: __ZN5Graph11ChooseOrderEv, symObjAddr: 0x20A0, symBinAddr: 0x100003698, symSize: 0xE4 }
  - { offsetInCU: 0x2F445, offset: 0x2F445, size: 0x8, addend: 0x0, symName: __ZN5Graph13CompleteOrderEi, symObjAddr: 0x1FB8, symBinAddr: 0x1000035B0, symSize: 0xE8 }
  - { offsetInCU: 0x2F4B8, offset: 0x2F4B8, size: 0x8, addend: 0x0, symName: __ZN5Graph9DropOrderEiib, symObjAddr: 0x1D74, symBinAddr: 0x10000336C, symSize: 0x244 }
  - { offsetInCU: 0x2F56E, offset: 0x2F56E, size: 0x8, addend: 0x0, symName: __ZN5Graph8SetOrderEiii, symObjAddr: 0x1B40, symBinAddr: 0x100003138, symSize: 0x234 }
  - { offsetInCU: 0x2F616, offset: 0x2F616, size: 0x8, addend: 0x0, symName: __ZN5Graph11findMinPathEiii, symObjAddr: 0x1630, symBinAddr: 0x100002C28, symSize: 0x510 }
  - { offsetInCU: 0x2F8AA, offset: 0x2F8AA, size: 0x8, addend: 0x0, symName: __ZN5Graph12Dijkstra_SetEiii, symObjAddr: 0xFA4, symBinAddr: 0x10000259C, symSize: 0x68C }
  - { offsetInCU: 0x2FB9C, offset: 0x2FB9C, size: 0x8, addend: 0x0, symName: __ZNSt4pairIS_IiiESt6vectorIiSaIiEEED1Ev, symObjAddr: 0xF80, symBinAddr: 0x100002578, symSize: 0x24 }
  - { offsetInCU: 0x2FB9A, offset: 0x2FB9A, size: 0x8, addend: 0x0, symName: __ZNSt10__pair_getILm1EE10__move_getIiiEEOT0_OSt4pairIT_S2_E, symObjAddr: 0xF60, symBinAddr: 0x100002558, symSize: 0x20 }
  - { offsetInCU: 0x2FBD6, offset: 0x2FBD6, size: 0x8, addend: 0x0, symName: __ZSt3getILm1EiiEONSt13tuple_elementIXT_ESt4pairIT0_T1_EE4typeEOS4_, symObjAddr: 0xF40, symBinAddr: 0x100002538, symSize: 0x20 }
  - { offsetInCU: 0x2FC22, offset: 0x2FC22, size: 0x8, addend: 0x0, symName: __ZSt7forwardIiEOT_RNSt16remove_referenceIS0_E4typeE, symObjAddr: 0xF2C, symBinAddr: 0x100002524, symSize: 0x14 }
  - { offsetInCU: 0x2FC54, offset: 0x2FC54, size: 0x8, addend: 0x0, symName: __ZNSt10__pair_getILm0EE10__move_getIiiEEOT_OSt4pairIS2_T0_E, symObjAddr: 0xF10, symBinAddr: 0x100002508, symSize: 0x1C }
  - { offsetInCU: 0x2FC96, offset: 0x2FC96, size: 0x8, addend: 0x0, symName: __ZSt4moveIRSt4pairIiiEEONSt16remove_referenceIT_E4typeEOS4_, symObjAddr: 0xEFC, symBinAddr: 0x1000024F4, symSize: 0x14 }
  - { offsetInCU: 0x2FCC8, offset: 0x2FCC8, size: 0x8, addend: 0x0, symName: __ZSt3getILm0EiiEONSt13tuple_elementIXT_ESt4pairIT0_T1_EE4typeEOS4_, symObjAddr: 0xEDC, symBinAddr: 0x1000024D4, symSize: 0x20 }
  - { offsetInCU: 0x2FD81, offset: 0x2FD81, size: 0x8, addend: 0x0, symName: __ZNSt14priority_queueISt4pairIiiESt6vectorIS1_SaIS1_EESt7greaterIS1_EED1Ev, symObjAddr: 0xEBC, symBinAddr: 0x1000024B4, symSize: 0x20 }
  - { offsetInCU: 0x2FD6A, offset: 0x2FD6A, size: 0x8, addend: 0x0, symName: __ZN5Graph12SortNeighborEv, symObjAddr: 0xDB4, symBinAddr: 0x1000023AC, symSize: 0x108 }
  - { offsetInCU: 0x2FDE8, offset: 0x2FDE8, size: 0x8, addend: 0x0, symName: __Z7compareSt4pairIiP4EdgeES2_, symObjAddr: 0xD8C, symBinAddr: 0x100002384, symSize: 0x28 }
  - { offsetInCU: 0x2FE0D, offset: 0x2FE0D, size: 0x8, addend: 0x0, symName: __ZN5Graph9InsetEdgeEiiii, symObjAddr: 0xB54, symBinAddr: 0x10000214C, symSize: 0x238 }
  - { offsetInCU: 0x2FE8B, offset: 0x2FE8B, size: 0x8, addend: 0x0, symName: __ZN5Graph12InsertVertexEii, symObjAddr: 0xACC, symBinAddr: 0x1000020C4, symSize: 0x88 }
  - { offsetInCU: 0x2FEE9, offset: 0x2FEE9, size: 0x8, addend: 0x0, symName: _main, symObjAddr: 0x764, symBinAddr: 0x100001D5C, symSize: 0x368 }
  - { offsetInCU: 0x30118, offset: 0x30118, size: 0x8, addend: 0x0, symName: __ZN5GraphD1Ev, symObjAddr: 0x6E8, symBinAddr: 0x100001CE0, symSize: 0x7C }
  - { offsetInCU: 0x30173, offset: 0x30173, size: 0x8, addend: 0x0, symName: __ZN5GraphC1Eii, symObjAddr: 0x574, symBinAddr: 0x100001B6C, symSize: 0x174 }
  - { offsetInCU: 0x301D7, offset: 0x301D7, size: 0x8, addend: 0x0, symName: __ZNSt6vectorIP5OrderSaIS1_EEC1Ev, symObjAddr: 0x554, symBinAddr: 0x100001B4C, symSize: 0x20 }
  - { offsetInCU: 0x3021E, offset: 0x3021E, size: 0x8, addend: 0x0, symName: __ZNSt12_Vector_baseIP5OrderSaIS1_EEC2Ev, symObjAddr: 0x534, symBinAddr: 0x100001B2C, symSize: 0x20 }
  - { offsetInCU: 0x30279, offset: 0x30279, size: 0x8, addend: 0x0, symName: __ZNSt12_Vector_baseIP5OrderSaIS1_EE12_Vector_implD1Ev, symObjAddr: 0x508, symBinAddr: 0x100001B00, symSize: 0x2C }
  - { offsetInCU: 0x302C8, offset: 0x302C8, size: 0x8, addend: 0x0, symName: __ZNSt6vectorIP6VertexSaIS1_EEC1Ev, symObjAddr: 0x4E8, symBinAddr: 0x100001AE0, symSize: 0x20 }
  - { offsetInCU: 0x3030F, offset: 0x3030F, size: 0x8, addend: 0x0, symName: __ZNSt12_Vector_baseIP6VertexSaIS1_EEC2Ev, symObjAddr: 0x4C8, symBinAddr: 0x100001AC0, symSize: 0x20 }
  - { offsetInCU: 0x3036A, offset: 0x3036A, size: 0x8, addend: 0x0, symName: __ZNSt12_Vector_baseIP6VertexSaIS1_EE12_Vector_implD1Ev, symObjAddr: 0x49C, symBinAddr: 0x100001A94, symSize: 0x2C }
  - { offsetInCU: 0x303BB, offset: 0x303BB, size: 0x8, addend: 0x0, symName: __ZNSt6vectorISt4pairIiiESaIS1_EEC1Ev, symObjAddr: 0x47C, symBinAddr: 0x100001A74, symSize: 0x20 }
  - { offsetInCU: 0x30402, offset: 0x30402, size: 0x8, addend: 0x0, symName: __ZNSt12_Vector_baseISt4pairIiiESaIS1_EEC2Ev, symObjAddr: 0x45C, symBinAddr: 0x100001A54, symSize: 0x20 }
  - { offsetInCU: 0x3045D, offset: 0x3045D, size: 0x8, addend: 0x0, symName: __ZNSt12_Vector_baseISt4pairIiiESaIS1_EE12_Vector_implD1Ev, symObjAddr: 0x430, symBinAddr: 0x100001A28, symSize: 0x2C }
  - { offsetInCU: 0x30470, offset: 0x30470, size: 0x8, addend: 0x0, symName: __ZN6Vertex8findEdgeEi, symObjAddr: 0x394, symBinAddr: 0x10000198C, symSize: 0x9C }
  - { offsetInCU: 0x3050D, offset: 0x3050D, size: 0x8, addend: 0x0, symName: __ZN6VertexC1Eii, symObjAddr: 0x350, symBinAddr: 0x100001948, symSize: 0x44 }
  - { offsetInCU: 0x30579, offset: 0x30579, size: 0x8, addend: 0x0, symName: __ZNSt6vectorISt4pairIiP4EdgeESaIS3_EEC1Ev, symObjAddr: 0x330, symBinAddr: 0x100001928, symSize: 0x20 }
  - { offsetInCU: 0x305C0, offset: 0x305C0, size: 0x8, addend: 0x0, symName: __ZNSt12_Vector_baseISt4pairIiP4EdgeESaIS3_EEC2Ev, symObjAddr: 0x310, symBinAddr: 0x100001908, symSize: 0x20 }
  - { offsetInCU: 0x30606, offset: 0x30606, size: 0x8, addend: 0x0, symName: __ZN5OrderC1Eiii, symObjAddr: 0x288, symBinAddr: 0x100001880, symSize: 0x88 }
  - { offsetInCU: 0x3066A, offset: 0x3066A, size: 0x8, addend: 0x0, symName: __ZNSt6vectorIiSaIiEEC1Ev, symObjAddr: 0x268, symBinAddr: 0x100001860, symSize: 0x20 }
  - { offsetInCU: 0x306B1, offset: 0x306B1, size: 0x8, addend: 0x0, symName: __ZNSt12_Vector_baseIiSaIiEEC2Ev, symObjAddr: 0x248, symBinAddr: 0x100001840, symSize: 0x20 }
  - { offsetInCU: 0x3070C, offset: 0x3070C, size: 0x8, addend: 0x0, symName: __ZNSt12_Vector_baseIiSaIiEE12_Vector_implD1Ev, symObjAddr: 0x21C, symBinAddr: 0x100001814, symSize: 0x2C }
  - { offsetInCU: 0x30785, offset: 0x30785, size: 0x8, addend: 0x0, symName: __ZN4EdgeC1Eiiii, symObjAddr: 0x1C8, symBinAddr: 0x1000017C0, symSize: 0x54 }
  - { offsetInCU: 0x307BF, offset: 0x307BF, size: 0x8, addend: 0x0, symName: __ZSt3minImERKT_S2_S2_, symObjAddr: 0x190, symBinAddr: 0x100001788, symSize: 0x38 }
  - { offsetInCU: 0x30801, offset: 0x30801, size: 0x8, addend: 0x0, symName: __ZNSt11char_traitsIcE6lengthEPKc, symObjAddr: 0x154, symBinAddr: 0x10000174C, symSize: 0x3C }
  - { offsetInCU: 0x30845, offset: 0x30845, size: 0x8, addend: 0x0, symName: __ZNSt11char_traitsIcE7compareEPKcS2_m, symObjAddr: 0x64, symBinAddr: 0x10000165C, symSize: 0xF0 }
  - { offsetInCU: 0x308CF, offset: 0x308CF, size: 0x8, addend: 0x0, symName: __ZNSt11char_traitsIcE2ltERKcS2_, symObjAddr: 0x2C, symBinAddr: 0x100001624, symSize: 0x38 }
  - { offsetInCU: 0x3091A, offset: 0x3091A, size: 0x8, addend: 0x0, symName: __ZnwmPv, symObjAddr: 0x14, symBinAddr: 0x10000160C, symSize: 0x18 }
  - { offsetInCU: 0x30947, offset: 0x30947, size: 0x8, addend: 0x0, symName: __ZSt17__size_to_integerm, symObjAddr: 0x0, symBinAddr: 0x1000015F8, symSize: 0x14 }
...
